ARM GAS  /tmp/cc1L2lRe.s 			page 1


   1              		.cpu cortex-m4
   2              		.eabi_attribute 27, 1
   3              		.eabi_attribute 28, 1
   4              		.eabi_attribute 20, 1
   5              		.eabi_attribute 21, 1
   6              		.eabi_attribute 23, 3
   7              		.eabi_attribute 24, 1
   8              		.eabi_attribute 25, 1
   9              		.eabi_attribute 26, 1
  10              		.eabi_attribute 30, 1
  11              		.eabi_attribute 34, 1
  12              		.eabi_attribute 18, 4
  13              		.file	"main.c"
  14              		.text
  15              	.Ltext0:
  16              		.cfi_sections	.debug_frame
  17              		.section	.text.MX_GPIO_Init,"ax",%progbits
  18              		.align	1
  19              		.syntax unified
  20              		.thumb
  21              		.thumb_func
  22              		.fpu fpv4-sp-d16
  24              	MX_GPIO_Init:
  25              	.LFB757:
  26              		.file 1 "Src/main.c"
   1:Src/main.c    **** /* USER CODE BEGIN Header */
   2:Src/main.c    **** /**
   3:Src/main.c    ****   ******************************************************************************
   4:Src/main.c    ****   * @file           : main.c
   5:Src/main.c    ****   * @brief          : Main program body
   6:Src/main.c    ****   ******************************************************************************
   7:Src/main.c    ****   ** This notice applies to any and all portions of this file
   8:Src/main.c    ****   * that are not between comment pairs USER CODE BEGIN and
   9:Src/main.c    ****   * USER CODE END. Other portions of this file, whether 
  10:Src/main.c    ****   * inserted by the user or by software development tools
  11:Src/main.c    ****   * are owned by their respective copyright owners.
  12:Src/main.c    ****   *
  13:Src/main.c    ****   * COPYRIGHT(c) 2018 STMicroelectronics
  14:Src/main.c    ****   *
  15:Src/main.c    ****   * Redistribution and use in source and binary forms, with or without modification,
  16:Src/main.c    ****   * are permitted provided that the following conditions are met:
  17:Src/main.c    ****   *   1. Redistributions of source code must retain the above copyright notice,
  18:Src/main.c    ****   *      this list of conditions and the following disclaimer.
  19:Src/main.c    ****   *   2. Redistributions in binary form must reproduce the above copyright notice,
  20:Src/main.c    ****   *      this list of conditions and the following disclaimer in the documentation
  21:Src/main.c    ****   *      and/or other materials provided with the distribution.
  22:Src/main.c    ****   *   3. Neither the name of STMicroelectronics nor the names of its contributors
  23:Src/main.c    ****   *      may be used to endorse or promote products derived from this software
  24:Src/main.c    ****   *      without specific prior written permission.
  25:Src/main.c    ****   *
  26:Src/main.c    ****   * THIS SOFTWARE IS PROVIDED BY THE COPYRIGHT HOLDERS AND CONTRIBUTORS "AS IS"
  27:Src/main.c    ****   * AND ANY EXPRESS OR IMPLIED WARRANTIES, INCLUDING, BUT NOT LIMITED TO, THE
  28:Src/main.c    ****   * IMPLIED WARRANTIES OF MERCHANTABILITY AND FITNESS FOR A PARTICULAR PURPOSE ARE
  29:Src/main.c    ****   * DISCLAIMED. IN NO EVENT SHALL THE COPYRIGHT HOLDER OR CONTRIBUTORS BE LIABLE
  30:Src/main.c    ****   * FOR ANY DIRECT, INDIRECT, INCIDENTAL, SPECIAL, EXEMPLARY, OR CONSEQUENTIAL
  31:Src/main.c    ****   * DAMAGES (INCLUDING, BUT NOT LIMITED TO, PROCUREMENT OF SUBSTITUTE GOODS OR
  32:Src/main.c    ****   * SERVICES; LOSS OF USE, DATA, OR PROFITS; OR BUSINESS INTERRUPTION) HOWEVER
ARM GAS  /tmp/cc1L2lRe.s 			page 2


  33:Src/main.c    ****   * CAUSED AND ON ANY THEORY OF LIABILITY, WHETHER IN CONTRACT, STRICT LIABILITY,
  34:Src/main.c    ****   * OR TORT (INCLUDING NEGLIGENCE OR OTHERWISE) ARISING IN ANY WAY OUT OF THE USE
  35:Src/main.c    ****   * OF THIS SOFTWARE, EVEN IF ADVISED OF THE POSSIBILITY OF SUCH DAMAGE.
  36:Src/main.c    ****   *
  37:Src/main.c    ****   ******************************************************************************
  38:Src/main.c    ****   */
  39:Src/main.c    **** /* USER CODE END Header */
  40:Src/main.c    **** 
  41:Src/main.c    **** /* Includes ------------------------------------------------------------------*/
  42:Src/main.c    **** #include "main.h"
  43:Src/main.c    **** 
  44:Src/main.c    **** /* Private includes ----------------------------------------------------------*/
  45:Src/main.c    **** /* USER CODE BEGIN Includes */
  46:Src/main.c    **** 
  47:Src/main.c    **** /* USER CODE END Includes */
  48:Src/main.c    **** 
  49:Src/main.c    **** /* Private typedef -----------------------------------------------------------*/
  50:Src/main.c    **** /* USER CODE BEGIN PTD */
  51:Src/main.c    **** 
  52:Src/main.c    **** /* USER CODE END PTD */
  53:Src/main.c    **** 
  54:Src/main.c    **** /* Private define ------------------------------------------------------------*/
  55:Src/main.c    **** /* USER CODE BEGIN PD */
  56:Src/main.c    **** 
  57:Src/main.c    **** /* USER CODE END PD */
  58:Src/main.c    **** 
  59:Src/main.c    **** /* Private macro -------------------------------------------------------------*/
  60:Src/main.c    **** /* USER CODE BEGIN PM */
  61:Src/main.c    **** 
  62:Src/main.c    **** /* USER CODE END PM */
  63:Src/main.c    **** 
  64:Src/main.c    **** /* Private variables ---------------------------------------------------------*/
  65:Src/main.c    **** 
  66:Src/main.c    **** PCD_HandleTypeDef hpcd_USB_FS;
  67:Src/main.c    **** 
  68:Src/main.c    **** /* USER CODE BEGIN PV */
  69:Src/main.c    **** 
  70:Src/main.c    **** /* USER CODE END PV */
  71:Src/main.c    **** 
  72:Src/main.c    **** /* Private function prototypes -----------------------------------------------*/
  73:Src/main.c    **** void SystemClock_Config(void);
  74:Src/main.c    **** static void MX_GPIO_Init(void);
  75:Src/main.c    **** static void MX_I2C1_Init(void);
  76:Src/main.c    **** static void MX_SPI1_Init(void);
  77:Src/main.c    **** static void MX_USB_PCD_Init(void);
  78:Src/main.c    **** /* USER CODE BEGIN PFP */
  79:Src/main.c    **** 
  80:Src/main.c    **** /* USER CODE END PFP */
  81:Src/main.c    **** 
  82:Src/main.c    **** /* Private user code ---------------------------------------------------------*/
  83:Src/main.c    **** /* USER CODE BEGIN 0 */
  84:Src/main.c    **** 
  85:Src/main.c    **** /* USER CODE END 0 */
  86:Src/main.c    **** 
  87:Src/main.c    **** /**
  88:Src/main.c    ****   * @brief  The application entry point.
  89:Src/main.c    ****   * @retval int
ARM GAS  /tmp/cc1L2lRe.s 			page 3


  90:Src/main.c    ****   */
  91:Src/main.c    **** int main(void)
  92:Src/main.c    **** {
  93:Src/main.c    ****   /* USER CODE BEGIN 1 */
  94:Src/main.c    **** 
  95:Src/main.c    ****   /* USER CODE END 1 */
  96:Src/main.c    **** 
  97:Src/main.c    ****   /* MCU Configuration--------------------------------------------------------*/
  98:Src/main.c    **** 
  99:Src/main.c    ****   /* Reset of all peripherals, Initializes the Flash interface and the Systick. */
 100:Src/main.c    ****   HAL_Init();
 101:Src/main.c    **** 
 102:Src/main.c    ****   /* USER CODE BEGIN Init */
 103:Src/main.c    **** 
 104:Src/main.c    ****   /* USER CODE END Init */
 105:Src/main.c    **** 
 106:Src/main.c    ****   /* Configure the system clock */
 107:Src/main.c    ****   SystemClock_Config();
 108:Src/main.c    **** 
 109:Src/main.c    ****   /* USER CODE BEGIN SysInit */
 110:Src/main.c    **** 
 111:Src/main.c    ****   /* USER CODE END SysInit */
 112:Src/main.c    **** 
 113:Src/main.c    ****   /* Initialize all configured peripherals */
 114:Src/main.c    ****   MX_GPIO_Init();
 115:Src/main.c    ****   MX_I2C1_Init();
 116:Src/main.c    ****   MX_SPI1_Init();
 117:Src/main.c    ****   MX_USB_PCD_Init();
 118:Src/main.c    ****   /* USER CODE BEGIN 2 */
 119:Src/main.c    **** 
 120:Src/main.c    ****   /* USER CODE END 2 */
 121:Src/main.c    **** 
 122:Src/main.c    ****   /* Infinite loop */
 123:Src/main.c    ****   /* USER CODE BEGIN WHILE */
 124:Src/main.c    ****   while (1)
 125:Src/main.c    ****   {
 126:Src/main.c    ****     /* USER CODE END WHILE */
 127:Src/main.c    **** 		LL_GPIO_TogglePin(GPIOE, LL_GPIO_PIN_9);
 128:Src/main.c    **** 		for(int i = 0; i< 120000; i++);
 129:Src/main.c    ****     /* USER CODE BEGIN 3 */
 130:Src/main.c    ****   }
 131:Src/main.c    ****   /* USER CODE END 3 */
 132:Src/main.c    **** }
 133:Src/main.c    **** 
 134:Src/main.c    **** /**
 135:Src/main.c    ****   * @brief System Clock Configuration
 136:Src/main.c    ****   * @retval None
 137:Src/main.c    ****   */
 138:Src/main.c    **** void SystemClock_Config(void)
 139:Src/main.c    **** {
 140:Src/main.c    ****   LL_FLASH_SetLatency(LL_FLASH_LATENCY_1);
 141:Src/main.c    **** 
 142:Src/main.c    ****   if(LL_FLASH_GetLatency() != LL_FLASH_LATENCY_1)
 143:Src/main.c    ****   {
 144:Src/main.c    ****   Error_Handler();  
 145:Src/main.c    ****   }
 146:Src/main.c    ****   LL_RCC_HSE_EnableBypass();
ARM GAS  /tmp/cc1L2lRe.s 			page 4


 147:Src/main.c    ****   LL_RCC_HSE_Enable();
 148:Src/main.c    **** 
 149:Src/main.c    ****    /* Wait till HSE is ready */
 150:Src/main.c    ****   while(LL_RCC_HSE_IsReady() != 1)
 151:Src/main.c    ****   {
 152:Src/main.c    ****     
 153:Src/main.c    ****   }
 154:Src/main.c    ****   LL_RCC_HSI_Enable();
 155:Src/main.c    **** 
 156:Src/main.c    ****    /* Wait till HSI is ready */
 157:Src/main.c    ****   while(LL_RCC_HSI_IsReady() != 1)
 158:Src/main.c    ****   {
 159:Src/main.c    ****     
 160:Src/main.c    ****   }
 161:Src/main.c    ****   LL_RCC_HSI_SetCalibTrimming(16);
 162:Src/main.c    ****   LL_RCC_PLL_ConfigDomain_SYS(LL_RCC_PLLSOURCE_HSE_DIV_1, LL_RCC_PLL_MUL_6);
 163:Src/main.c    ****   LL_RCC_PLL_Enable();
 164:Src/main.c    **** 
 165:Src/main.c    ****    /* Wait till PLL is ready */
 166:Src/main.c    ****   while(LL_RCC_PLL_IsReady() != 1)
 167:Src/main.c    ****   {
 168:Src/main.c    ****     
 169:Src/main.c    ****   }
 170:Src/main.c    ****   LL_RCC_SetAHBPrescaler(LL_RCC_SYSCLK_DIV_1);
 171:Src/main.c    ****   LL_RCC_SetAPB1Prescaler(LL_RCC_APB1_DIV_2);
 172:Src/main.c    ****   LL_RCC_SetAPB2Prescaler(LL_RCC_APB1_DIV_1);
 173:Src/main.c    ****   LL_RCC_SetSysClkSource(LL_RCC_SYS_CLKSOURCE_PLL);
 174:Src/main.c    **** 
 175:Src/main.c    ****    /* Wait till System clock is ready */
 176:Src/main.c    ****   while(LL_RCC_GetSysClkSource() != LL_RCC_SYS_CLKSOURCE_STATUS_PLL)
 177:Src/main.c    ****   {
 178:Src/main.c    ****   
 179:Src/main.c    ****   }
 180:Src/main.c    ****   LL_Init1msTick(48000000);
 181:Src/main.c    ****   LL_SYSTICK_SetClkSource(LL_SYSTICK_CLKSOURCE_HCLK);
 182:Src/main.c    ****   LL_SetSystemCoreClock(48000000);
 183:Src/main.c    ****   LL_RCC_SetI2CClockSource(LL_RCC_I2C1_CLKSOURCE_HSI);
 184:Src/main.c    ****   LL_RCC_SetUSBClockSource(LL_RCC_USB_CLKSOURCE_PLL);
 185:Src/main.c    **** }
 186:Src/main.c    **** 
 187:Src/main.c    **** /**
 188:Src/main.c    ****   * @brief I2C1 Initialization Function
 189:Src/main.c    ****   * @param None
 190:Src/main.c    ****   * @retval None
 191:Src/main.c    ****   */
 192:Src/main.c    **** static void MX_I2C1_Init(void)
 193:Src/main.c    **** {
 194:Src/main.c    **** 
 195:Src/main.c    ****   /* USER CODE BEGIN I2C1_Init 0 */
 196:Src/main.c    **** 
 197:Src/main.c    ****   /* USER CODE END I2C1_Init 0 */
 198:Src/main.c    **** 
 199:Src/main.c    ****   LL_I2C_InitTypeDef I2C_InitStruct = {0};
 200:Src/main.c    **** 
 201:Src/main.c    ****   LL_GPIO_InitTypeDef GPIO_InitStruct = {0};
 202:Src/main.c    **** 
 203:Src/main.c    ****   LL_AHB1_GRP1_EnableClock(LL_AHB1_GRP1_PERIPH_GPIOB);
ARM GAS  /tmp/cc1L2lRe.s 			page 5


 204:Src/main.c    ****   /**I2C1 GPIO Configuration  
 205:Src/main.c    ****   PB6   ------> I2C1_SCL
 206:Src/main.c    ****   PB7   ------> I2C1_SDA 
 207:Src/main.c    ****   */
 208:Src/main.c    ****   GPIO_InitStruct.Pin = I2C1_SCL_Pin|I2C1_SDA_Pin;
 209:Src/main.c    ****   GPIO_InitStruct.Mode = LL_GPIO_MODE_ALTERNATE;
 210:Src/main.c    ****   GPIO_InitStruct.Speed = LL_GPIO_SPEED_FREQ_HIGH;
 211:Src/main.c    ****   GPIO_InitStruct.OutputType = LL_GPIO_OUTPUT_OPENDRAIN;
 212:Src/main.c    ****   GPIO_InitStruct.Pull = LL_GPIO_PULL_UP;
 213:Src/main.c    ****   GPIO_InitStruct.Alternate = LL_GPIO_AF_4;
 214:Src/main.c    ****   LL_GPIO_Init(GPIOB, &GPIO_InitStruct);
 215:Src/main.c    **** 
 216:Src/main.c    ****   /* Peripheral clock enable */
 217:Src/main.c    ****   LL_APB1_GRP1_EnableClock(LL_APB1_GRP1_PERIPH_I2C1);
 218:Src/main.c    **** 
 219:Src/main.c    ****   /* USER CODE BEGIN I2C1_Init 1 */
 220:Src/main.c    **** 
 221:Src/main.c    ****   /* USER CODE END I2C1_Init 1 */
 222:Src/main.c    ****   /**I2C Initialization 
 223:Src/main.c    ****   */
 224:Src/main.c    ****   LL_I2C_EnableAutoEndMode(I2C1);
 225:Src/main.c    ****   LL_I2C_DisableOwnAddress2(I2C1);
 226:Src/main.c    ****   LL_I2C_DisableGeneralCall(I2C1);
 227:Src/main.c    ****   LL_I2C_EnableClockStretching(I2C1);
 228:Src/main.c    ****   I2C_InitStruct.PeripheralMode = LL_I2C_MODE_I2C;
 229:Src/main.c    ****   I2C_InitStruct.Timing = 0x2000090E;
 230:Src/main.c    ****   I2C_InitStruct.AnalogFilter = LL_I2C_ANALOGFILTER_ENABLE;
 231:Src/main.c    ****   I2C_InitStruct.DigitalFilter = 0;
 232:Src/main.c    ****   I2C_InitStruct.OwnAddress1 = 0;
 233:Src/main.c    ****   I2C_InitStruct.TypeAcknowledge = LL_I2C_ACK;
 234:Src/main.c    ****   I2C_InitStruct.OwnAddrSize = LL_I2C_OWNADDRESS1_7BIT;
 235:Src/main.c    ****   LL_I2C_Init(I2C1, &I2C_InitStruct);
 236:Src/main.c    ****   LL_I2C_SetOwnAddress2(I2C1, 0, LL_I2C_OWNADDRESS2_NOMASK);
 237:Src/main.c    ****   /* USER CODE BEGIN I2C1_Init 2 */
 238:Src/main.c    **** 
 239:Src/main.c    ****   /* USER CODE END I2C1_Init 2 */
 240:Src/main.c    **** 
 241:Src/main.c    **** }
 242:Src/main.c    **** 
 243:Src/main.c    **** /**
 244:Src/main.c    ****   * @brief SPI1 Initialization Function
 245:Src/main.c    ****   * @param None
 246:Src/main.c    ****   * @retval None
 247:Src/main.c    ****   */
 248:Src/main.c    **** static void MX_SPI1_Init(void)
 249:Src/main.c    **** {
 250:Src/main.c    **** 
 251:Src/main.c    ****   /* USER CODE BEGIN SPI1_Init 0 */
 252:Src/main.c    **** 
 253:Src/main.c    ****   /* USER CODE END SPI1_Init 0 */
 254:Src/main.c    **** 
 255:Src/main.c    ****   LL_SPI_InitTypeDef SPI_InitStruct = {0};
 256:Src/main.c    **** 
 257:Src/main.c    ****   LL_GPIO_InitTypeDef GPIO_InitStruct = {0};
 258:Src/main.c    **** 
 259:Src/main.c    ****   /* Peripheral clock enable */
 260:Src/main.c    ****   LL_APB2_GRP1_EnableClock(LL_APB2_GRP1_PERIPH_SPI1);
ARM GAS  /tmp/cc1L2lRe.s 			page 6


 261:Src/main.c    ****   
 262:Src/main.c    ****   LL_AHB1_GRP1_EnableClock(LL_AHB1_GRP1_PERIPH_GPIOA);
 263:Src/main.c    ****   /**SPI1 GPIO Configuration  
 264:Src/main.c    ****   PA5   ------> SPI1_SCK
 265:Src/main.c    ****   PA6   ------> SPI1_MISO
 266:Src/main.c    ****   PA7   ------> SPI1_MOSI 
 267:Src/main.c    ****   */
 268:Src/main.c    ****   GPIO_InitStruct.Pin = SPI1_SCK_Pin|SPI1_MISO_Pin|SPI1_MISOA7_Pin;
 269:Src/main.c    ****   GPIO_InitStruct.Mode = LL_GPIO_MODE_ALTERNATE;
 270:Src/main.c    ****   GPIO_InitStruct.Speed = LL_GPIO_SPEED_FREQ_HIGH;
 271:Src/main.c    ****   GPIO_InitStruct.OutputType = LL_GPIO_OUTPUT_PUSHPULL;
 272:Src/main.c    ****   GPIO_InitStruct.Pull = LL_GPIO_PULL_NO;
 273:Src/main.c    ****   GPIO_InitStruct.Alternate = LL_GPIO_AF_5;
 274:Src/main.c    ****   LL_GPIO_Init(GPIOA, &GPIO_InitStruct);
 275:Src/main.c    **** 
 276:Src/main.c    ****   /* USER CODE BEGIN SPI1_Init 1 */
 277:Src/main.c    **** 
 278:Src/main.c    ****   /* USER CODE END SPI1_Init 1 */
 279:Src/main.c    ****   /* SPI1 parameter configuration*/
 280:Src/main.c    ****   SPI_InitStruct.TransferDirection = LL_SPI_FULL_DUPLEX;
 281:Src/main.c    ****   SPI_InitStruct.Mode = LL_SPI_MODE_MASTER;
 282:Src/main.c    ****   SPI_InitStruct.DataWidth = LL_SPI_DATAWIDTH_4BIT;
 283:Src/main.c    ****   SPI_InitStruct.ClockPolarity = LL_SPI_POLARITY_LOW;
 284:Src/main.c    ****   SPI_InitStruct.ClockPhase = LL_SPI_PHASE_1EDGE;
 285:Src/main.c    ****   SPI_InitStruct.NSS = LL_SPI_NSS_SOFT;
 286:Src/main.c    ****   SPI_InitStruct.BaudRate = LL_SPI_BAUDRATEPRESCALER_DIV4;
 287:Src/main.c    ****   SPI_InitStruct.BitOrder = LL_SPI_MSB_FIRST;
 288:Src/main.c    ****   SPI_InitStruct.CRCCalculation = LL_SPI_CRCCALCULATION_DISABLE;
 289:Src/main.c    ****   SPI_InitStruct.CRCPoly = 7;
 290:Src/main.c    ****   LL_SPI_Init(SPI1, &SPI_InitStruct);
 291:Src/main.c    ****   LL_SPI_SetStandard(SPI1, LL_SPI_PROTOCOL_MOTOROLA);
 292:Src/main.c    ****   LL_SPI_EnableNSSPulseMgt(SPI1);
 293:Src/main.c    ****   /* USER CODE BEGIN SPI1_Init 2 */
 294:Src/main.c    **** 
 295:Src/main.c    ****   /* USER CODE END SPI1_Init 2 */
 296:Src/main.c    **** 
 297:Src/main.c    **** }
 298:Src/main.c    **** 
 299:Src/main.c    **** /**
 300:Src/main.c    ****   * @brief USB Initialization Function
 301:Src/main.c    ****   * @param None
 302:Src/main.c    ****   * @retval None
 303:Src/main.c    ****   */
 304:Src/main.c    **** static void MX_USB_PCD_Init(void)
 305:Src/main.c    **** {
 306:Src/main.c    **** 
 307:Src/main.c    ****   /* USER CODE BEGIN USB_Init 0 */
 308:Src/main.c    **** 
 309:Src/main.c    ****   /* USER CODE END USB_Init 0 */
 310:Src/main.c    **** 
 311:Src/main.c    ****   /* USER CODE BEGIN USB_Init 1 */
 312:Src/main.c    **** 
 313:Src/main.c    ****   /* USER CODE END USB_Init 1 */
 314:Src/main.c    ****   hpcd_USB_FS.Instance = USB;
 315:Src/main.c    ****   hpcd_USB_FS.Init.dev_endpoints = 8;
 316:Src/main.c    ****   hpcd_USB_FS.Init.speed = PCD_SPEED_FULL;
 317:Src/main.c    ****   hpcd_USB_FS.Init.ep0_mps = DEP0CTL_MPS_64;
ARM GAS  /tmp/cc1L2lRe.s 			page 7


 318:Src/main.c    ****   hpcd_USB_FS.Init.phy_itface = PCD_PHY_EMBEDDED;
 319:Src/main.c    ****   hpcd_USB_FS.Init.low_power_enable = DISABLE;
 320:Src/main.c    ****   hpcd_USB_FS.Init.battery_charging_enable = DISABLE;
 321:Src/main.c    ****   if (HAL_PCD_Init(&hpcd_USB_FS) != HAL_OK)
 322:Src/main.c    ****   {
 323:Src/main.c    ****     Error_Handler();
 324:Src/main.c    ****   }
 325:Src/main.c    ****   /* USER CODE BEGIN USB_Init 2 */
 326:Src/main.c    **** 
 327:Src/main.c    ****   /* USER CODE END USB_Init 2 */
 328:Src/main.c    **** 
 329:Src/main.c    **** }
 330:Src/main.c    **** 
 331:Src/main.c    **** /**
 332:Src/main.c    ****   * @brief GPIO Initialization Function
 333:Src/main.c    ****   * @param None
 334:Src/main.c    ****   * @retval None
 335:Src/main.c    ****   */
 336:Src/main.c    **** static void MX_GPIO_Init(void)
 337:Src/main.c    **** {
  27              		.loc 1 337 0
  28              		.cfi_startproc
  29              		@ args = 0, pretend = 0, frame = 56
  30              		@ frame_needed = 0, uses_anonymous_args = 0
  31 0000 2DE9F047 		push	{r4, r5, r6, r7, r8, r9, r10, lr}
  32              	.LCFI0:
  33              		.cfi_def_cfa_offset 32
  34              		.cfi_offset 4, -32
  35              		.cfi_offset 5, -28
  36              		.cfi_offset 6, -24
  37              		.cfi_offset 7, -20
  38              		.cfi_offset 8, -16
  39              		.cfi_offset 9, -12
  40              		.cfi_offset 10, -8
  41              		.cfi_offset 14, -4
  42 0004 8EB0     		sub	sp, sp, #56
  43              	.LCFI1:
  44              		.cfi_def_cfa_offset 88
 338:Src/main.c    ****   LL_GPIO_InitTypeDef GPIO_InitStruct = {0};
  45              		.loc 1 338 0
  46 0006 0026     		movs	r6, #0
  47 0008 0896     		str	r6, [sp, #32]
  48 000a 0996     		str	r6, [sp, #36]
  49 000c 0A96     		str	r6, [sp, #40]
  50 000e 0B96     		str	r6, [sp, #44]
  51 0010 0C96     		str	r6, [sp, #48]
  52 0012 0D96     		str	r6, [sp, #52]
 339:Src/main.c    ****   LL_EXTI_InitTypeDef EXTI_InitStruct = {0};
  53              		.loc 1 339 0
  54 0014 0596     		str	r6, [sp, #20]
  55 0016 0696     		str	r6, [sp, #24]
  56 0018 0796     		str	r6, [sp, #28]
  57              	.LVL0:
  58              	.LBB167:
  59              	.LBB168:
  60              		.file 2 "Drivers/STM32F3xx_HAL_Driver/Inc/stm32f3xx_ll_bus.h"
   1:Drivers/STM32F3xx_HAL_Driver/Inc/stm32f3xx_ll_bus.h **** /**
ARM GAS  /tmp/cc1L2lRe.s 			page 8


   2:Drivers/STM32F3xx_HAL_Driver/Inc/stm32f3xx_ll_bus.h ****   ******************************************************************************
   3:Drivers/STM32F3xx_HAL_Driver/Inc/stm32f3xx_ll_bus.h ****   * @file    stm32f3xx_ll_bus.h
   4:Drivers/STM32F3xx_HAL_Driver/Inc/stm32f3xx_ll_bus.h ****   * @author  MCD Application Team
   5:Drivers/STM32F3xx_HAL_Driver/Inc/stm32f3xx_ll_bus.h ****   * @brief   Header file of BUS LL module.
   6:Drivers/STM32F3xx_HAL_Driver/Inc/stm32f3xx_ll_bus.h **** 
   7:Drivers/STM32F3xx_HAL_Driver/Inc/stm32f3xx_ll_bus.h ****   @verbatim                
   8:Drivers/STM32F3xx_HAL_Driver/Inc/stm32f3xx_ll_bus.h ****                       ##### RCC Limitations #####
   9:Drivers/STM32F3xx_HAL_Driver/Inc/stm32f3xx_ll_bus.h ****   ==============================================================================
  10:Drivers/STM32F3xx_HAL_Driver/Inc/stm32f3xx_ll_bus.h ****     [..]  
  11:Drivers/STM32F3xx_HAL_Driver/Inc/stm32f3xx_ll_bus.h ****       A delay between an RCC peripheral clock enable and the effective peripheral 
  12:Drivers/STM32F3xx_HAL_Driver/Inc/stm32f3xx_ll_bus.h ****       enabling should be taken into account in order to manage the peripheral read/write 
  13:Drivers/STM32F3xx_HAL_Driver/Inc/stm32f3xx_ll_bus.h ****       from/to registers.
  14:Drivers/STM32F3xx_HAL_Driver/Inc/stm32f3xx_ll_bus.h ****       (+) This delay depends on the peripheral mapping.
  15:Drivers/STM32F3xx_HAL_Driver/Inc/stm32f3xx_ll_bus.h ****         (++) AHB & APB peripherals, 1 dummy read is necessary
  16:Drivers/STM32F3xx_HAL_Driver/Inc/stm32f3xx_ll_bus.h **** 
  17:Drivers/STM32F3xx_HAL_Driver/Inc/stm32f3xx_ll_bus.h ****     [..]  
  18:Drivers/STM32F3xx_HAL_Driver/Inc/stm32f3xx_ll_bus.h ****       Workarounds:
  19:Drivers/STM32F3xx_HAL_Driver/Inc/stm32f3xx_ll_bus.h ****       (#) For AHB & APB peripherals, a dummy read to the peripheral register has been
  20:Drivers/STM32F3xx_HAL_Driver/Inc/stm32f3xx_ll_bus.h ****           inserted in each LL_{BUS}_GRP{x}_EnableClock() function.
  21:Drivers/STM32F3xx_HAL_Driver/Inc/stm32f3xx_ll_bus.h **** 
  22:Drivers/STM32F3xx_HAL_Driver/Inc/stm32f3xx_ll_bus.h ****   @endverbatim
  23:Drivers/STM32F3xx_HAL_Driver/Inc/stm32f3xx_ll_bus.h ****   ******************************************************************************
  24:Drivers/STM32F3xx_HAL_Driver/Inc/stm32f3xx_ll_bus.h ****   * @attention
  25:Drivers/STM32F3xx_HAL_Driver/Inc/stm32f3xx_ll_bus.h ****   *
  26:Drivers/STM32F3xx_HAL_Driver/Inc/stm32f3xx_ll_bus.h ****   * <h2><center>&copy; COPYRIGHT(c) 2016 STMicroelectronics</center></h2>
  27:Drivers/STM32F3xx_HAL_Driver/Inc/stm32f3xx_ll_bus.h ****   *
  28:Drivers/STM32F3xx_HAL_Driver/Inc/stm32f3xx_ll_bus.h ****   * Redistribution and use in source and binary forms, with or without modification,
  29:Drivers/STM32F3xx_HAL_Driver/Inc/stm32f3xx_ll_bus.h ****   * are permitted provided that the following conditions are met:
  30:Drivers/STM32F3xx_HAL_Driver/Inc/stm32f3xx_ll_bus.h ****   *   1. Redistributions of source code must retain the above copyright notice,
  31:Drivers/STM32F3xx_HAL_Driver/Inc/stm32f3xx_ll_bus.h ****   *      this list of conditions and the following disclaimer.
  32:Drivers/STM32F3xx_HAL_Driver/Inc/stm32f3xx_ll_bus.h ****   *   2. Redistributions in binary form must reproduce the above copyright notice,
  33:Drivers/STM32F3xx_HAL_Driver/Inc/stm32f3xx_ll_bus.h ****   *      this list of conditions and the following disclaimer in the documentation
  34:Drivers/STM32F3xx_HAL_Driver/Inc/stm32f3xx_ll_bus.h ****   *      and/or other materials provided with the distribution.
  35:Drivers/STM32F3xx_HAL_Driver/Inc/stm32f3xx_ll_bus.h ****   *   3. Neither the name of STMicroelectronics nor the names of its contributors
  36:Drivers/STM32F3xx_HAL_Driver/Inc/stm32f3xx_ll_bus.h ****   *      may be used to endorse or promote products derived from this software
  37:Drivers/STM32F3xx_HAL_Driver/Inc/stm32f3xx_ll_bus.h ****   *      without specific prior written permission.
  38:Drivers/STM32F3xx_HAL_Driver/Inc/stm32f3xx_ll_bus.h ****   *
  39:Drivers/STM32F3xx_HAL_Driver/Inc/stm32f3xx_ll_bus.h ****   * THIS SOFTWARE IS PROVIDED BY THE COPYRIGHT HOLDERS AND CONTRIBUTORS "AS IS"
  40:Drivers/STM32F3xx_HAL_Driver/Inc/stm32f3xx_ll_bus.h ****   * AND ANY EXPRESS OR IMPLIED WARRANTIES, INCLUDING, BUT NOT LIMITED TO, THE
  41:Drivers/STM32F3xx_HAL_Driver/Inc/stm32f3xx_ll_bus.h ****   * IMPLIED WARRANTIES OF MERCHANTABILITY AND FITNESS FOR A PARTICULAR PURPOSE ARE
  42:Drivers/STM32F3xx_HAL_Driver/Inc/stm32f3xx_ll_bus.h ****   * DISCLAIMED. IN NO EVENT SHALL THE COPYRIGHT HOLDER OR CONTRIBUTORS BE LIABLE
  43:Drivers/STM32F3xx_HAL_Driver/Inc/stm32f3xx_ll_bus.h ****   * FOR ANY DIRECT, INDIRECT, INCIDENTAL, SPECIAL, EXEMPLARY, OR CONSEQUENTIAL
  44:Drivers/STM32F3xx_HAL_Driver/Inc/stm32f3xx_ll_bus.h ****   * DAMAGES (INCLUDING, BUT NOT LIMITED TO, PROCUREMENT OF SUBSTITUTE GOODS OR
  45:Drivers/STM32F3xx_HAL_Driver/Inc/stm32f3xx_ll_bus.h ****   * SERVICES; LOSS OF USE, DATA, OR PROFITS; OR BUSINESS INTERRUPTION) HOWEVER
  46:Drivers/STM32F3xx_HAL_Driver/Inc/stm32f3xx_ll_bus.h ****   * CAUSED AND ON ANY THEORY OF LIABILITY, WHETHER IN CONTRACT, STRICT LIABILITY,
  47:Drivers/STM32F3xx_HAL_Driver/Inc/stm32f3xx_ll_bus.h ****   * OR TORT (INCLUDING NEGLIGENCE OR OTHERWISE) ARISING IN ANY WAY OUT OF THE USE
  48:Drivers/STM32F3xx_HAL_Driver/Inc/stm32f3xx_ll_bus.h ****   * OF THIS SOFTWARE, EVEN IF ADVISED OF THE POSSIBILITY OF SUCH DAMAGE.
  49:Drivers/STM32F3xx_HAL_Driver/Inc/stm32f3xx_ll_bus.h ****   *
  50:Drivers/STM32F3xx_HAL_Driver/Inc/stm32f3xx_ll_bus.h ****   ******************************************************************************
  51:Drivers/STM32F3xx_HAL_Driver/Inc/stm32f3xx_ll_bus.h ****   */
  52:Drivers/STM32F3xx_HAL_Driver/Inc/stm32f3xx_ll_bus.h **** 
  53:Drivers/STM32F3xx_HAL_Driver/Inc/stm32f3xx_ll_bus.h **** /* Define to prevent recursive inclusion -------------------------------------*/
  54:Drivers/STM32F3xx_HAL_Driver/Inc/stm32f3xx_ll_bus.h **** #ifndef __STM32F3xx_LL_BUS_H
  55:Drivers/STM32F3xx_HAL_Driver/Inc/stm32f3xx_ll_bus.h **** #define __STM32F3xx_LL_BUS_H
  56:Drivers/STM32F3xx_HAL_Driver/Inc/stm32f3xx_ll_bus.h **** 
  57:Drivers/STM32F3xx_HAL_Driver/Inc/stm32f3xx_ll_bus.h **** #ifdef __cplusplus
  58:Drivers/STM32F3xx_HAL_Driver/Inc/stm32f3xx_ll_bus.h **** extern "C" {
ARM GAS  /tmp/cc1L2lRe.s 			page 9


  59:Drivers/STM32F3xx_HAL_Driver/Inc/stm32f3xx_ll_bus.h **** #endif
  60:Drivers/STM32F3xx_HAL_Driver/Inc/stm32f3xx_ll_bus.h **** 
  61:Drivers/STM32F3xx_HAL_Driver/Inc/stm32f3xx_ll_bus.h **** /* Includes ------------------------------------------------------------------*/
  62:Drivers/STM32F3xx_HAL_Driver/Inc/stm32f3xx_ll_bus.h **** #include "stm32f3xx.h"
  63:Drivers/STM32F3xx_HAL_Driver/Inc/stm32f3xx_ll_bus.h **** 
  64:Drivers/STM32F3xx_HAL_Driver/Inc/stm32f3xx_ll_bus.h **** /** @addtogroup STM32F3xx_LL_Driver
  65:Drivers/STM32F3xx_HAL_Driver/Inc/stm32f3xx_ll_bus.h ****   * @{
  66:Drivers/STM32F3xx_HAL_Driver/Inc/stm32f3xx_ll_bus.h ****   */
  67:Drivers/STM32F3xx_HAL_Driver/Inc/stm32f3xx_ll_bus.h **** 
  68:Drivers/STM32F3xx_HAL_Driver/Inc/stm32f3xx_ll_bus.h **** #if defined(RCC)
  69:Drivers/STM32F3xx_HAL_Driver/Inc/stm32f3xx_ll_bus.h **** 
  70:Drivers/STM32F3xx_HAL_Driver/Inc/stm32f3xx_ll_bus.h **** /** @defgroup BUS_LL BUS
  71:Drivers/STM32F3xx_HAL_Driver/Inc/stm32f3xx_ll_bus.h ****   * @{
  72:Drivers/STM32F3xx_HAL_Driver/Inc/stm32f3xx_ll_bus.h ****   */
  73:Drivers/STM32F3xx_HAL_Driver/Inc/stm32f3xx_ll_bus.h **** 
  74:Drivers/STM32F3xx_HAL_Driver/Inc/stm32f3xx_ll_bus.h **** /* Private types -------------------------------------------------------------*/
  75:Drivers/STM32F3xx_HAL_Driver/Inc/stm32f3xx_ll_bus.h **** /* Private variables ---------------------------------------------------------*/
  76:Drivers/STM32F3xx_HAL_Driver/Inc/stm32f3xx_ll_bus.h **** 
  77:Drivers/STM32F3xx_HAL_Driver/Inc/stm32f3xx_ll_bus.h **** /* Private constants ---------------------------------------------------------*/
  78:Drivers/STM32F3xx_HAL_Driver/Inc/stm32f3xx_ll_bus.h **** 
  79:Drivers/STM32F3xx_HAL_Driver/Inc/stm32f3xx_ll_bus.h **** /* Private macros ------------------------------------------------------------*/
  80:Drivers/STM32F3xx_HAL_Driver/Inc/stm32f3xx_ll_bus.h **** 
  81:Drivers/STM32F3xx_HAL_Driver/Inc/stm32f3xx_ll_bus.h **** /* Exported types ------------------------------------------------------------*/
  82:Drivers/STM32F3xx_HAL_Driver/Inc/stm32f3xx_ll_bus.h **** /* Exported constants --------------------------------------------------------*/
  83:Drivers/STM32F3xx_HAL_Driver/Inc/stm32f3xx_ll_bus.h **** /** @defgroup BUS_LL_Exported_Constants BUS Exported Constants
  84:Drivers/STM32F3xx_HAL_Driver/Inc/stm32f3xx_ll_bus.h ****   * @{
  85:Drivers/STM32F3xx_HAL_Driver/Inc/stm32f3xx_ll_bus.h ****   */
  86:Drivers/STM32F3xx_HAL_Driver/Inc/stm32f3xx_ll_bus.h **** 
  87:Drivers/STM32F3xx_HAL_Driver/Inc/stm32f3xx_ll_bus.h **** /** @defgroup BUS_LL_EC_AHB1_GRP1_PERIPH  AHB1 GRP1 PERIPH
  88:Drivers/STM32F3xx_HAL_Driver/Inc/stm32f3xx_ll_bus.h ****   * @{
  89:Drivers/STM32F3xx_HAL_Driver/Inc/stm32f3xx_ll_bus.h ****   */
  90:Drivers/STM32F3xx_HAL_Driver/Inc/stm32f3xx_ll_bus.h **** #define LL_AHB1_GRP1_PERIPH_ALL            (uint32_t)0xFFFFFFFFU
  91:Drivers/STM32F3xx_HAL_Driver/Inc/stm32f3xx_ll_bus.h **** #define LL_AHB1_GRP1_PERIPH_DMA1           RCC_AHBENR_DMA1EN
  92:Drivers/STM32F3xx_HAL_Driver/Inc/stm32f3xx_ll_bus.h **** #if defined(DMA2)
  93:Drivers/STM32F3xx_HAL_Driver/Inc/stm32f3xx_ll_bus.h **** #define LL_AHB1_GRP1_PERIPH_DMA2           RCC_AHBENR_DMA2EN
  94:Drivers/STM32F3xx_HAL_Driver/Inc/stm32f3xx_ll_bus.h **** #endif /*DMA2*/
  95:Drivers/STM32F3xx_HAL_Driver/Inc/stm32f3xx_ll_bus.h **** #define LL_AHB1_GRP1_PERIPH_SRAM           RCC_AHBENR_SRAMEN
  96:Drivers/STM32F3xx_HAL_Driver/Inc/stm32f3xx_ll_bus.h **** #define LL_AHB1_GRP1_PERIPH_FLASH          RCC_AHBENR_FLITFEN
  97:Drivers/STM32F3xx_HAL_Driver/Inc/stm32f3xx_ll_bus.h **** #if defined(FMC_Bank1)
  98:Drivers/STM32F3xx_HAL_Driver/Inc/stm32f3xx_ll_bus.h **** #define LL_AHB1_GRP1_PERIPH_FMC            RCC_AHBENR_FMCEN
  99:Drivers/STM32F3xx_HAL_Driver/Inc/stm32f3xx_ll_bus.h **** #endif /*FMC_Bank1*/
 100:Drivers/STM32F3xx_HAL_Driver/Inc/stm32f3xx_ll_bus.h **** #define LL_AHB1_GRP1_PERIPH_CRC            RCC_AHBENR_CRCEN
 101:Drivers/STM32F3xx_HAL_Driver/Inc/stm32f3xx_ll_bus.h **** #if defined(GPIOH)
 102:Drivers/STM32F3xx_HAL_Driver/Inc/stm32f3xx_ll_bus.h **** #define LL_AHB1_GRP1_PERIPH_GPIOH          RCC_AHBENR_GPIOHEN
 103:Drivers/STM32F3xx_HAL_Driver/Inc/stm32f3xx_ll_bus.h **** #endif /*GPIOH*/
 104:Drivers/STM32F3xx_HAL_Driver/Inc/stm32f3xx_ll_bus.h **** #define LL_AHB1_GRP1_PERIPH_GPIOA          RCC_AHBENR_GPIOAEN
 105:Drivers/STM32F3xx_HAL_Driver/Inc/stm32f3xx_ll_bus.h **** #define LL_AHB1_GRP1_PERIPH_GPIOB          RCC_AHBENR_GPIOBEN
 106:Drivers/STM32F3xx_HAL_Driver/Inc/stm32f3xx_ll_bus.h **** #define LL_AHB1_GRP1_PERIPH_GPIOC          RCC_AHBENR_GPIOCEN
 107:Drivers/STM32F3xx_HAL_Driver/Inc/stm32f3xx_ll_bus.h **** #define LL_AHB1_GRP1_PERIPH_GPIOD          RCC_AHBENR_GPIODEN
 108:Drivers/STM32F3xx_HAL_Driver/Inc/stm32f3xx_ll_bus.h **** #if defined(GPIOE)
 109:Drivers/STM32F3xx_HAL_Driver/Inc/stm32f3xx_ll_bus.h **** #define LL_AHB1_GRP1_PERIPH_GPIOE          RCC_AHBENR_GPIOEEN
 110:Drivers/STM32F3xx_HAL_Driver/Inc/stm32f3xx_ll_bus.h **** #endif /*GPIOE*/
 111:Drivers/STM32F3xx_HAL_Driver/Inc/stm32f3xx_ll_bus.h **** #define LL_AHB1_GRP1_PERIPH_GPIOF          RCC_AHBENR_GPIOFEN
 112:Drivers/STM32F3xx_HAL_Driver/Inc/stm32f3xx_ll_bus.h **** #if defined(GPIOG)
 113:Drivers/STM32F3xx_HAL_Driver/Inc/stm32f3xx_ll_bus.h **** #define LL_AHB1_GRP1_PERIPH_GPIOG          RCC_AHBENR_GPIOGEN
 114:Drivers/STM32F3xx_HAL_Driver/Inc/stm32f3xx_ll_bus.h **** #endif /*GPIOH*/
 115:Drivers/STM32F3xx_HAL_Driver/Inc/stm32f3xx_ll_bus.h **** #define LL_AHB1_GRP1_PERIPH_TSC            RCC_AHBENR_TSCEN
ARM GAS  /tmp/cc1L2lRe.s 			page 10


 116:Drivers/STM32F3xx_HAL_Driver/Inc/stm32f3xx_ll_bus.h **** #if defined(RCC_AHBENR_ADC1EN)
 117:Drivers/STM32F3xx_HAL_Driver/Inc/stm32f3xx_ll_bus.h **** #define LL_AHB1_GRP1_PERIPH_ADC1           RCC_AHBENR_ADC1EN
 118:Drivers/STM32F3xx_HAL_Driver/Inc/stm32f3xx_ll_bus.h **** #endif /*RCC_AHBENR_ADC1EN*/
 119:Drivers/STM32F3xx_HAL_Driver/Inc/stm32f3xx_ll_bus.h **** #if defined(ADC1_2_COMMON)
 120:Drivers/STM32F3xx_HAL_Driver/Inc/stm32f3xx_ll_bus.h **** #define LL_AHB1_GRP1_PERIPH_ADC12          RCC_AHBENR_ADC12EN
 121:Drivers/STM32F3xx_HAL_Driver/Inc/stm32f3xx_ll_bus.h **** #endif /*ADC1_2_COMMON*/
 122:Drivers/STM32F3xx_HAL_Driver/Inc/stm32f3xx_ll_bus.h **** #if defined(ADC3_4_COMMON)
 123:Drivers/STM32F3xx_HAL_Driver/Inc/stm32f3xx_ll_bus.h **** #define LL_AHB1_GRP1_PERIPH_ADC34          RCC_AHBENR_ADC34EN
 124:Drivers/STM32F3xx_HAL_Driver/Inc/stm32f3xx_ll_bus.h **** #endif /*ADC3_4_COMMON*/
 125:Drivers/STM32F3xx_HAL_Driver/Inc/stm32f3xx_ll_bus.h **** /**
 126:Drivers/STM32F3xx_HAL_Driver/Inc/stm32f3xx_ll_bus.h ****   * @}
 127:Drivers/STM32F3xx_HAL_Driver/Inc/stm32f3xx_ll_bus.h ****   */
 128:Drivers/STM32F3xx_HAL_Driver/Inc/stm32f3xx_ll_bus.h **** 
 129:Drivers/STM32F3xx_HAL_Driver/Inc/stm32f3xx_ll_bus.h **** /** @defgroup BUS_LL_EC_APB1_GRP1_PERIPH  APB1 GRP1 PERIPH
 130:Drivers/STM32F3xx_HAL_Driver/Inc/stm32f3xx_ll_bus.h ****   * @{
 131:Drivers/STM32F3xx_HAL_Driver/Inc/stm32f3xx_ll_bus.h ****   */
 132:Drivers/STM32F3xx_HAL_Driver/Inc/stm32f3xx_ll_bus.h **** #define LL_APB1_GRP1_PERIPH_ALL            (uint32_t)0xFFFFFFFFU
 133:Drivers/STM32F3xx_HAL_Driver/Inc/stm32f3xx_ll_bus.h **** #define LL_APB1_GRP1_PERIPH_TIM2           RCC_APB1ENR_TIM2EN
 134:Drivers/STM32F3xx_HAL_Driver/Inc/stm32f3xx_ll_bus.h **** #if defined(TIM3)
 135:Drivers/STM32F3xx_HAL_Driver/Inc/stm32f3xx_ll_bus.h **** #define LL_APB1_GRP1_PERIPH_TIM3           RCC_APB1ENR_TIM3EN
 136:Drivers/STM32F3xx_HAL_Driver/Inc/stm32f3xx_ll_bus.h **** #endif /*TIM3*/
 137:Drivers/STM32F3xx_HAL_Driver/Inc/stm32f3xx_ll_bus.h **** #if defined(TIM4)
 138:Drivers/STM32F3xx_HAL_Driver/Inc/stm32f3xx_ll_bus.h **** #define LL_APB1_GRP1_PERIPH_TIM4           RCC_APB1ENR_TIM4EN
 139:Drivers/STM32F3xx_HAL_Driver/Inc/stm32f3xx_ll_bus.h **** #endif /*TIM4*/
 140:Drivers/STM32F3xx_HAL_Driver/Inc/stm32f3xx_ll_bus.h **** #if defined(TIM5)
 141:Drivers/STM32F3xx_HAL_Driver/Inc/stm32f3xx_ll_bus.h **** #define LL_APB1_GRP1_PERIPH_TIM5           RCC_APB1ENR_TIM5EN
 142:Drivers/STM32F3xx_HAL_Driver/Inc/stm32f3xx_ll_bus.h **** #endif /*TIM5*/
 143:Drivers/STM32F3xx_HAL_Driver/Inc/stm32f3xx_ll_bus.h **** #define LL_APB1_GRP1_PERIPH_TIM6           RCC_APB1ENR_TIM6EN
 144:Drivers/STM32F3xx_HAL_Driver/Inc/stm32f3xx_ll_bus.h **** #if defined(TIM7)
 145:Drivers/STM32F3xx_HAL_Driver/Inc/stm32f3xx_ll_bus.h **** #define LL_APB1_GRP1_PERIPH_TIM7           RCC_APB1ENR_TIM7EN
 146:Drivers/STM32F3xx_HAL_Driver/Inc/stm32f3xx_ll_bus.h **** #endif /*TIM7*/
 147:Drivers/STM32F3xx_HAL_Driver/Inc/stm32f3xx_ll_bus.h **** #if defined(TIM12)
 148:Drivers/STM32F3xx_HAL_Driver/Inc/stm32f3xx_ll_bus.h **** #define LL_APB1_GRP1_PERIPH_TIM12          RCC_APB1ENR_TIM12EN
 149:Drivers/STM32F3xx_HAL_Driver/Inc/stm32f3xx_ll_bus.h **** #endif /*TIM12*/
 150:Drivers/STM32F3xx_HAL_Driver/Inc/stm32f3xx_ll_bus.h **** #if defined(TIM13)
 151:Drivers/STM32F3xx_HAL_Driver/Inc/stm32f3xx_ll_bus.h **** #define LL_APB1_GRP1_PERIPH_TIM13          RCC_APB1ENR_TIM13EN
 152:Drivers/STM32F3xx_HAL_Driver/Inc/stm32f3xx_ll_bus.h **** #endif /*TIM13*/
 153:Drivers/STM32F3xx_HAL_Driver/Inc/stm32f3xx_ll_bus.h **** #if defined(TIM14)
 154:Drivers/STM32F3xx_HAL_Driver/Inc/stm32f3xx_ll_bus.h **** #define LL_APB1_GRP1_PERIPH_TIM14          RCC_APB1ENR_TIM14EN
 155:Drivers/STM32F3xx_HAL_Driver/Inc/stm32f3xx_ll_bus.h **** #endif /*TIM14*/
 156:Drivers/STM32F3xx_HAL_Driver/Inc/stm32f3xx_ll_bus.h **** #if defined(TIM18)
 157:Drivers/STM32F3xx_HAL_Driver/Inc/stm32f3xx_ll_bus.h **** #define LL_APB1_GRP1_PERIPH_TIM18          RCC_APB1ENR_TIM18EN
 158:Drivers/STM32F3xx_HAL_Driver/Inc/stm32f3xx_ll_bus.h **** #endif /*TIM18*/
 159:Drivers/STM32F3xx_HAL_Driver/Inc/stm32f3xx_ll_bus.h **** #define LL_APB1_GRP1_PERIPH_WWDG           RCC_APB1ENR_WWDGEN
 160:Drivers/STM32F3xx_HAL_Driver/Inc/stm32f3xx_ll_bus.h **** #if defined(SPI2)
 161:Drivers/STM32F3xx_HAL_Driver/Inc/stm32f3xx_ll_bus.h **** #define LL_APB1_GRP1_PERIPH_SPI2           RCC_APB1ENR_SPI2EN
 162:Drivers/STM32F3xx_HAL_Driver/Inc/stm32f3xx_ll_bus.h **** #endif /*SPI2*/
 163:Drivers/STM32F3xx_HAL_Driver/Inc/stm32f3xx_ll_bus.h **** #if defined(SPI3)
 164:Drivers/STM32F3xx_HAL_Driver/Inc/stm32f3xx_ll_bus.h **** #define LL_APB1_GRP1_PERIPH_SPI3           RCC_APB1ENR_SPI3EN
 165:Drivers/STM32F3xx_HAL_Driver/Inc/stm32f3xx_ll_bus.h **** #endif /*SPI3*/
 166:Drivers/STM32F3xx_HAL_Driver/Inc/stm32f3xx_ll_bus.h **** #define LL_APB1_GRP1_PERIPH_USART2         RCC_APB1ENR_USART2EN
 167:Drivers/STM32F3xx_HAL_Driver/Inc/stm32f3xx_ll_bus.h **** #define LL_APB1_GRP1_PERIPH_USART3         RCC_APB1ENR_USART3EN
 168:Drivers/STM32F3xx_HAL_Driver/Inc/stm32f3xx_ll_bus.h **** #if defined(UART4)
 169:Drivers/STM32F3xx_HAL_Driver/Inc/stm32f3xx_ll_bus.h **** #define LL_APB1_GRP1_PERIPH_UART4          RCC_APB1ENR_UART4EN
 170:Drivers/STM32F3xx_HAL_Driver/Inc/stm32f3xx_ll_bus.h **** #endif /*UART4*/
 171:Drivers/STM32F3xx_HAL_Driver/Inc/stm32f3xx_ll_bus.h **** #if defined(UART5)
 172:Drivers/STM32F3xx_HAL_Driver/Inc/stm32f3xx_ll_bus.h **** #define LL_APB1_GRP1_PERIPH_UART5          RCC_APB1ENR_UART5EN
ARM GAS  /tmp/cc1L2lRe.s 			page 11


 173:Drivers/STM32F3xx_HAL_Driver/Inc/stm32f3xx_ll_bus.h **** #endif /*UART5*/
 174:Drivers/STM32F3xx_HAL_Driver/Inc/stm32f3xx_ll_bus.h **** #define LL_APB1_GRP1_PERIPH_I2C1           RCC_APB1ENR_I2C1EN
 175:Drivers/STM32F3xx_HAL_Driver/Inc/stm32f3xx_ll_bus.h **** #if defined(I2C2)
 176:Drivers/STM32F3xx_HAL_Driver/Inc/stm32f3xx_ll_bus.h **** #define LL_APB1_GRP1_PERIPH_I2C2           RCC_APB1ENR_I2C2EN
 177:Drivers/STM32F3xx_HAL_Driver/Inc/stm32f3xx_ll_bus.h **** #endif /*I2C2*/
 178:Drivers/STM32F3xx_HAL_Driver/Inc/stm32f3xx_ll_bus.h **** #if defined(USB)
 179:Drivers/STM32F3xx_HAL_Driver/Inc/stm32f3xx_ll_bus.h **** #define LL_APB1_GRP1_PERIPH_USB            RCC_APB1ENR_USBEN
 180:Drivers/STM32F3xx_HAL_Driver/Inc/stm32f3xx_ll_bus.h **** #endif /*USB*/
 181:Drivers/STM32F3xx_HAL_Driver/Inc/stm32f3xx_ll_bus.h **** #if defined(CAN)
 182:Drivers/STM32F3xx_HAL_Driver/Inc/stm32f3xx_ll_bus.h **** #define LL_APB1_GRP1_PERIPH_CAN            RCC_APB1ENR_CANEN
 183:Drivers/STM32F3xx_HAL_Driver/Inc/stm32f3xx_ll_bus.h **** #endif /*CAN*/
 184:Drivers/STM32F3xx_HAL_Driver/Inc/stm32f3xx_ll_bus.h **** #if defined(DAC2)
 185:Drivers/STM32F3xx_HAL_Driver/Inc/stm32f3xx_ll_bus.h **** #define LL_APB1_GRP1_PERIPH_DAC2           RCC_APB1ENR_DAC2EN
 186:Drivers/STM32F3xx_HAL_Driver/Inc/stm32f3xx_ll_bus.h **** #endif /*DAC2*/
 187:Drivers/STM32F3xx_HAL_Driver/Inc/stm32f3xx_ll_bus.h **** #define LL_APB1_GRP1_PERIPH_PWR            RCC_APB1ENR_PWREN
 188:Drivers/STM32F3xx_HAL_Driver/Inc/stm32f3xx_ll_bus.h **** #define LL_APB1_GRP1_PERIPH_DAC1           RCC_APB1ENR_DAC1EN
 189:Drivers/STM32F3xx_HAL_Driver/Inc/stm32f3xx_ll_bus.h **** #if defined(CEC)
 190:Drivers/STM32F3xx_HAL_Driver/Inc/stm32f3xx_ll_bus.h **** #define LL_APB1_GRP1_PERIPH_CEC            RCC_APB1ENR_CECEN
 191:Drivers/STM32F3xx_HAL_Driver/Inc/stm32f3xx_ll_bus.h **** #endif /*CEC*/
 192:Drivers/STM32F3xx_HAL_Driver/Inc/stm32f3xx_ll_bus.h **** #if defined(I2C3)
 193:Drivers/STM32F3xx_HAL_Driver/Inc/stm32f3xx_ll_bus.h **** #define LL_APB1_GRP1_PERIPH_I2C3           RCC_APB1ENR_I2C3EN
 194:Drivers/STM32F3xx_HAL_Driver/Inc/stm32f3xx_ll_bus.h **** #endif /*I2C3*/
 195:Drivers/STM32F3xx_HAL_Driver/Inc/stm32f3xx_ll_bus.h **** /**
 196:Drivers/STM32F3xx_HAL_Driver/Inc/stm32f3xx_ll_bus.h ****   * @}
 197:Drivers/STM32F3xx_HAL_Driver/Inc/stm32f3xx_ll_bus.h ****   */
 198:Drivers/STM32F3xx_HAL_Driver/Inc/stm32f3xx_ll_bus.h **** 
 199:Drivers/STM32F3xx_HAL_Driver/Inc/stm32f3xx_ll_bus.h **** /** @defgroup BUS_LL_EC_APB2_GRP1_PERIPH  APB2 GRP1 PERIPH
 200:Drivers/STM32F3xx_HAL_Driver/Inc/stm32f3xx_ll_bus.h ****   * @{
 201:Drivers/STM32F3xx_HAL_Driver/Inc/stm32f3xx_ll_bus.h ****   */
 202:Drivers/STM32F3xx_HAL_Driver/Inc/stm32f3xx_ll_bus.h **** #define LL_APB2_GRP1_PERIPH_ALL            (uint32_t)0xFFFFFFFFU
 203:Drivers/STM32F3xx_HAL_Driver/Inc/stm32f3xx_ll_bus.h **** #define LL_APB2_GRP1_PERIPH_SYSCFG         RCC_APB2ENR_SYSCFGEN
 204:Drivers/STM32F3xx_HAL_Driver/Inc/stm32f3xx_ll_bus.h **** #if defined(RCC_APB2ENR_ADC1EN)
 205:Drivers/STM32F3xx_HAL_Driver/Inc/stm32f3xx_ll_bus.h **** #define LL_APB2_GRP1_PERIPH_ADC1           RCC_APB2ENR_ADC1EN
 206:Drivers/STM32F3xx_HAL_Driver/Inc/stm32f3xx_ll_bus.h **** #endif /*RCC_APB2ENR_ADC1EN*/
 207:Drivers/STM32F3xx_HAL_Driver/Inc/stm32f3xx_ll_bus.h **** #if defined(TIM1)
 208:Drivers/STM32F3xx_HAL_Driver/Inc/stm32f3xx_ll_bus.h **** #define LL_APB2_GRP1_PERIPH_TIM1           RCC_APB2ENR_TIM1EN
 209:Drivers/STM32F3xx_HAL_Driver/Inc/stm32f3xx_ll_bus.h **** #endif /*TIM1*/
 210:Drivers/STM32F3xx_HAL_Driver/Inc/stm32f3xx_ll_bus.h **** #if defined(SPI1)
 211:Drivers/STM32F3xx_HAL_Driver/Inc/stm32f3xx_ll_bus.h **** #define LL_APB2_GRP1_PERIPH_SPI1           RCC_APB2ENR_SPI1EN
 212:Drivers/STM32F3xx_HAL_Driver/Inc/stm32f3xx_ll_bus.h **** #endif /*SPI1*/
 213:Drivers/STM32F3xx_HAL_Driver/Inc/stm32f3xx_ll_bus.h **** #if defined(TIM8)
 214:Drivers/STM32F3xx_HAL_Driver/Inc/stm32f3xx_ll_bus.h **** #define LL_APB2_GRP1_PERIPH_TIM8           RCC_APB2ENR_TIM8EN
 215:Drivers/STM32F3xx_HAL_Driver/Inc/stm32f3xx_ll_bus.h **** #endif /*TIM8*/
 216:Drivers/STM32F3xx_HAL_Driver/Inc/stm32f3xx_ll_bus.h **** #define LL_APB2_GRP1_PERIPH_USART1         RCC_APB2ENR_USART1EN
 217:Drivers/STM32F3xx_HAL_Driver/Inc/stm32f3xx_ll_bus.h **** #if defined(SPI4)
 218:Drivers/STM32F3xx_HAL_Driver/Inc/stm32f3xx_ll_bus.h **** #define LL_APB2_GRP1_PERIPH_SPI4           RCC_APB2ENR_SPI4EN
 219:Drivers/STM32F3xx_HAL_Driver/Inc/stm32f3xx_ll_bus.h **** #endif /*SPI4*/
 220:Drivers/STM32F3xx_HAL_Driver/Inc/stm32f3xx_ll_bus.h **** #define LL_APB2_GRP1_PERIPH_TIM15          RCC_APB2ENR_TIM15EN
 221:Drivers/STM32F3xx_HAL_Driver/Inc/stm32f3xx_ll_bus.h **** #define LL_APB2_GRP1_PERIPH_TIM16          RCC_APB2ENR_TIM16EN
 222:Drivers/STM32F3xx_HAL_Driver/Inc/stm32f3xx_ll_bus.h **** #define LL_APB2_GRP1_PERIPH_TIM17          RCC_APB2ENR_TIM17EN
 223:Drivers/STM32F3xx_HAL_Driver/Inc/stm32f3xx_ll_bus.h **** #if defined(TIM19)
 224:Drivers/STM32F3xx_HAL_Driver/Inc/stm32f3xx_ll_bus.h **** #define LL_APB2_GRP1_PERIPH_TIM19          RCC_APB2ENR_TIM19EN
 225:Drivers/STM32F3xx_HAL_Driver/Inc/stm32f3xx_ll_bus.h **** #endif /*TIM19*/
 226:Drivers/STM32F3xx_HAL_Driver/Inc/stm32f3xx_ll_bus.h **** #if defined(TIM20)
 227:Drivers/STM32F3xx_HAL_Driver/Inc/stm32f3xx_ll_bus.h **** #define LL_APB2_GRP1_PERIPH_TIM20          RCC_APB2ENR_TIM20EN
 228:Drivers/STM32F3xx_HAL_Driver/Inc/stm32f3xx_ll_bus.h **** #endif /*TIM20*/
 229:Drivers/STM32F3xx_HAL_Driver/Inc/stm32f3xx_ll_bus.h **** #if defined(HRTIM1)
ARM GAS  /tmp/cc1L2lRe.s 			page 12


 230:Drivers/STM32F3xx_HAL_Driver/Inc/stm32f3xx_ll_bus.h **** #define LL_APB2_GRP1_PERIPH_HRTIM1         RCC_APB2ENR_HRTIM1EN
 231:Drivers/STM32F3xx_HAL_Driver/Inc/stm32f3xx_ll_bus.h **** #endif /*HRTIM1*/
 232:Drivers/STM32F3xx_HAL_Driver/Inc/stm32f3xx_ll_bus.h **** #if defined(SDADC1)
 233:Drivers/STM32F3xx_HAL_Driver/Inc/stm32f3xx_ll_bus.h **** #define LL_APB2_GRP1_PERIPH_SDADC1         RCC_APB2ENR_SDADC1EN
 234:Drivers/STM32F3xx_HAL_Driver/Inc/stm32f3xx_ll_bus.h **** #endif /*SDADC1*/
 235:Drivers/STM32F3xx_HAL_Driver/Inc/stm32f3xx_ll_bus.h **** #if defined(SDADC2)
 236:Drivers/STM32F3xx_HAL_Driver/Inc/stm32f3xx_ll_bus.h **** #define LL_APB2_GRP1_PERIPH_SDADC2         RCC_APB2ENR_SDADC2EN
 237:Drivers/STM32F3xx_HAL_Driver/Inc/stm32f3xx_ll_bus.h **** #endif /*SDADC2*/
 238:Drivers/STM32F3xx_HAL_Driver/Inc/stm32f3xx_ll_bus.h **** #if defined(SDADC3)
 239:Drivers/STM32F3xx_HAL_Driver/Inc/stm32f3xx_ll_bus.h **** #define LL_APB2_GRP1_PERIPH_SDADC3         RCC_APB2ENR_SDADC3EN
 240:Drivers/STM32F3xx_HAL_Driver/Inc/stm32f3xx_ll_bus.h **** #endif /*SDADC3*/
 241:Drivers/STM32F3xx_HAL_Driver/Inc/stm32f3xx_ll_bus.h **** /**
 242:Drivers/STM32F3xx_HAL_Driver/Inc/stm32f3xx_ll_bus.h ****   * @}
 243:Drivers/STM32F3xx_HAL_Driver/Inc/stm32f3xx_ll_bus.h ****   */
 244:Drivers/STM32F3xx_HAL_Driver/Inc/stm32f3xx_ll_bus.h **** 
 245:Drivers/STM32F3xx_HAL_Driver/Inc/stm32f3xx_ll_bus.h **** /**
 246:Drivers/STM32F3xx_HAL_Driver/Inc/stm32f3xx_ll_bus.h ****   * @}
 247:Drivers/STM32F3xx_HAL_Driver/Inc/stm32f3xx_ll_bus.h ****   */
 248:Drivers/STM32F3xx_HAL_Driver/Inc/stm32f3xx_ll_bus.h **** 
 249:Drivers/STM32F3xx_HAL_Driver/Inc/stm32f3xx_ll_bus.h **** /* Exported macro ------------------------------------------------------------*/
 250:Drivers/STM32F3xx_HAL_Driver/Inc/stm32f3xx_ll_bus.h **** 
 251:Drivers/STM32F3xx_HAL_Driver/Inc/stm32f3xx_ll_bus.h **** /* Exported functions --------------------------------------------------------*/
 252:Drivers/STM32F3xx_HAL_Driver/Inc/stm32f3xx_ll_bus.h **** /** @defgroup BUS_LL_Exported_Functions BUS Exported Functions
 253:Drivers/STM32F3xx_HAL_Driver/Inc/stm32f3xx_ll_bus.h ****   * @{
 254:Drivers/STM32F3xx_HAL_Driver/Inc/stm32f3xx_ll_bus.h ****   */
 255:Drivers/STM32F3xx_HAL_Driver/Inc/stm32f3xx_ll_bus.h **** 
 256:Drivers/STM32F3xx_HAL_Driver/Inc/stm32f3xx_ll_bus.h **** /** @defgroup BUS_LL_EF_AHB1 AHB1
 257:Drivers/STM32F3xx_HAL_Driver/Inc/stm32f3xx_ll_bus.h ****   * @{
 258:Drivers/STM32F3xx_HAL_Driver/Inc/stm32f3xx_ll_bus.h ****   */
 259:Drivers/STM32F3xx_HAL_Driver/Inc/stm32f3xx_ll_bus.h **** 
 260:Drivers/STM32F3xx_HAL_Driver/Inc/stm32f3xx_ll_bus.h **** /**
 261:Drivers/STM32F3xx_HAL_Driver/Inc/stm32f3xx_ll_bus.h ****   * @brief  Enable AHB1 peripherals clock.
 262:Drivers/STM32F3xx_HAL_Driver/Inc/stm32f3xx_ll_bus.h ****   * @rmtoll AHBENR       DMA1EN        LL_AHB1_GRP1_EnableClock\n
 263:Drivers/STM32F3xx_HAL_Driver/Inc/stm32f3xx_ll_bus.h ****   *         AHBENR       DMA2EN        LL_AHB1_GRP1_EnableClock\n
 264:Drivers/STM32F3xx_HAL_Driver/Inc/stm32f3xx_ll_bus.h ****   *         AHBENR       SRAMEN        LL_AHB1_GRP1_EnableClock\n
 265:Drivers/STM32F3xx_HAL_Driver/Inc/stm32f3xx_ll_bus.h ****   *         AHBENR       FLITFEN       LL_AHB1_GRP1_EnableClock\n
 266:Drivers/STM32F3xx_HAL_Driver/Inc/stm32f3xx_ll_bus.h ****   *         AHBENR       FMCEN         LL_AHB1_GRP1_EnableClock\n
 267:Drivers/STM32F3xx_HAL_Driver/Inc/stm32f3xx_ll_bus.h ****   *         AHBENR       CRCEN         LL_AHB1_GRP1_EnableClock\n
 268:Drivers/STM32F3xx_HAL_Driver/Inc/stm32f3xx_ll_bus.h ****   *         AHBENR       GPIOHEN       LL_AHB1_GRP1_EnableClock\n
 269:Drivers/STM32F3xx_HAL_Driver/Inc/stm32f3xx_ll_bus.h ****   *         AHBENR       GPIOAEN       LL_AHB1_GRP1_EnableClock\n
 270:Drivers/STM32F3xx_HAL_Driver/Inc/stm32f3xx_ll_bus.h ****   *         AHBENR       GPIOBEN       LL_AHB1_GRP1_EnableClock\n
 271:Drivers/STM32F3xx_HAL_Driver/Inc/stm32f3xx_ll_bus.h ****   *         AHBENR       GPIOCEN       LL_AHB1_GRP1_EnableClock\n
 272:Drivers/STM32F3xx_HAL_Driver/Inc/stm32f3xx_ll_bus.h ****   *         AHBENR       GPIODEN       LL_AHB1_GRP1_EnableClock\n
 273:Drivers/STM32F3xx_HAL_Driver/Inc/stm32f3xx_ll_bus.h ****   *         AHBENR       GPIOEEN       LL_AHB1_GRP1_EnableClock\n
 274:Drivers/STM32F3xx_HAL_Driver/Inc/stm32f3xx_ll_bus.h ****   *         AHBENR       GPIOFEN       LL_AHB1_GRP1_EnableClock\n
 275:Drivers/STM32F3xx_HAL_Driver/Inc/stm32f3xx_ll_bus.h ****   *         AHBENR       GPIOGEN       LL_AHB1_GRP1_EnableClock\n
 276:Drivers/STM32F3xx_HAL_Driver/Inc/stm32f3xx_ll_bus.h ****   *         AHBENR       TSCEN         LL_AHB1_GRP1_EnableClock\n
 277:Drivers/STM32F3xx_HAL_Driver/Inc/stm32f3xx_ll_bus.h ****   *         AHBENR       ADC1EN        LL_AHB1_GRP1_EnableClock\n
 278:Drivers/STM32F3xx_HAL_Driver/Inc/stm32f3xx_ll_bus.h ****   *         AHBENR       ADC12EN       LL_AHB1_GRP1_EnableClock\n
 279:Drivers/STM32F3xx_HAL_Driver/Inc/stm32f3xx_ll_bus.h ****   *         AHBENR       ADC34EN       LL_AHB1_GRP1_EnableClock
 280:Drivers/STM32F3xx_HAL_Driver/Inc/stm32f3xx_ll_bus.h ****   * @param  Periphs This parameter can be a combination of the following values:
 281:Drivers/STM32F3xx_HAL_Driver/Inc/stm32f3xx_ll_bus.h ****   *         @arg @ref LL_AHB1_GRP1_PERIPH_DMA1
 282:Drivers/STM32F3xx_HAL_Driver/Inc/stm32f3xx_ll_bus.h ****   *         @arg @ref LL_AHB1_GRP1_PERIPH_DMA2 (*)
 283:Drivers/STM32F3xx_HAL_Driver/Inc/stm32f3xx_ll_bus.h ****   *         @arg @ref LL_AHB1_GRP1_PERIPH_SRAM
 284:Drivers/STM32F3xx_HAL_Driver/Inc/stm32f3xx_ll_bus.h ****   *         @arg @ref LL_AHB1_GRP1_PERIPH_FLASH
 285:Drivers/STM32F3xx_HAL_Driver/Inc/stm32f3xx_ll_bus.h ****   *         @arg @ref LL_AHB1_GRP1_PERIPH_FMC (*)
 286:Drivers/STM32F3xx_HAL_Driver/Inc/stm32f3xx_ll_bus.h ****   *         @arg @ref LL_AHB1_GRP1_PERIPH_CRC
ARM GAS  /tmp/cc1L2lRe.s 			page 13


 287:Drivers/STM32F3xx_HAL_Driver/Inc/stm32f3xx_ll_bus.h ****   *         @arg @ref LL_AHB1_GRP1_PERIPH_GPIOH (*)
 288:Drivers/STM32F3xx_HAL_Driver/Inc/stm32f3xx_ll_bus.h ****   *         @arg @ref LL_AHB1_GRP1_PERIPH_GPIOA
 289:Drivers/STM32F3xx_HAL_Driver/Inc/stm32f3xx_ll_bus.h ****   *         @arg @ref LL_AHB1_GRP1_PERIPH_GPIOB
 290:Drivers/STM32F3xx_HAL_Driver/Inc/stm32f3xx_ll_bus.h ****   *         @arg @ref LL_AHB1_GRP1_PERIPH_GPIOC
 291:Drivers/STM32F3xx_HAL_Driver/Inc/stm32f3xx_ll_bus.h ****   *         @arg @ref LL_AHB1_GRP1_PERIPH_GPIOD
 292:Drivers/STM32F3xx_HAL_Driver/Inc/stm32f3xx_ll_bus.h ****   *         @arg @ref LL_AHB1_GRP1_PERIPH_GPIOE (*)
 293:Drivers/STM32F3xx_HAL_Driver/Inc/stm32f3xx_ll_bus.h ****   *         @arg @ref LL_AHB1_GRP1_PERIPH_GPIOF
 294:Drivers/STM32F3xx_HAL_Driver/Inc/stm32f3xx_ll_bus.h ****   *         @arg @ref LL_AHB1_GRP1_PERIPH_GPIOG (*)
 295:Drivers/STM32F3xx_HAL_Driver/Inc/stm32f3xx_ll_bus.h ****   *         @arg @ref LL_AHB1_GRP1_PERIPH_TSC
 296:Drivers/STM32F3xx_HAL_Driver/Inc/stm32f3xx_ll_bus.h ****   *         @arg @ref LL_AHB1_GRP1_PERIPH_ADC1 (*)
 297:Drivers/STM32F3xx_HAL_Driver/Inc/stm32f3xx_ll_bus.h ****   *         @arg @ref LL_AHB1_GRP1_PERIPH_ADC12 (*)
 298:Drivers/STM32F3xx_HAL_Driver/Inc/stm32f3xx_ll_bus.h ****   *         @arg @ref LL_AHB1_GRP1_PERIPH_ADC34 (*)
 299:Drivers/STM32F3xx_HAL_Driver/Inc/stm32f3xx_ll_bus.h ****   *
 300:Drivers/STM32F3xx_HAL_Driver/Inc/stm32f3xx_ll_bus.h ****   *         (*) value not defined in all devices.
 301:Drivers/STM32F3xx_HAL_Driver/Inc/stm32f3xx_ll_bus.h ****   * @retval None
 302:Drivers/STM32F3xx_HAL_Driver/Inc/stm32f3xx_ll_bus.h **** */
 303:Drivers/STM32F3xx_HAL_Driver/Inc/stm32f3xx_ll_bus.h **** __STATIC_INLINE void LL_AHB1_GRP1_EnableClock(uint32_t Periphs)
 304:Drivers/STM32F3xx_HAL_Driver/Inc/stm32f3xx_ll_bus.h **** {
 305:Drivers/STM32F3xx_HAL_Driver/Inc/stm32f3xx_ll_bus.h ****   __IO uint32_t tmpreg;
 306:Drivers/STM32F3xx_HAL_Driver/Inc/stm32f3xx_ll_bus.h ****   SET_BIT(RCC->AHBENR, Periphs);
  61              		.loc 2 306 0
  62 001a A44B     		ldr	r3, .L3
  63 001c 5A69     		ldr	r2, [r3, #20]
  64 001e 42F40012 		orr	r2, r2, #2097152
  65 0022 5A61     		str	r2, [r3, #20]
 307:Drivers/STM32F3xx_HAL_Driver/Inc/stm32f3xx_ll_bus.h ****   /* Delay after an RCC peripheral clock enabling */
 308:Drivers/STM32F3xx_HAL_Driver/Inc/stm32f3xx_ll_bus.h ****   tmpreg = READ_BIT(RCC->AHBENR, Periphs);
  66              		.loc 2 308 0
  67 0024 5A69     		ldr	r2, [r3, #20]
  68 0026 02F40012 		and	r2, r2, #2097152
  69 002a 0492     		str	r2, [sp, #16]
 309:Drivers/STM32F3xx_HAL_Driver/Inc/stm32f3xx_ll_bus.h ****   (void)tmpreg;
  70              		.loc 2 309 0
  71 002c 049A     		ldr	r2, [sp, #16]
  72              	.LVL1:
  73              	.LBE168:
  74              	.LBE167:
  75              	.LBB169:
  76              	.LBB170:
 306:Drivers/STM32F3xx_HAL_Driver/Inc/stm32f3xx_ll_bus.h ****   /* Delay after an RCC peripheral clock enabling */
  77              		.loc 2 306 0
  78 002e 5A69     		ldr	r2, [r3, #20]
  79 0030 42F40022 		orr	r2, r2, #524288
  80 0034 5A61     		str	r2, [r3, #20]
 308:Drivers/STM32F3xx_HAL_Driver/Inc/stm32f3xx_ll_bus.h ****   (void)tmpreg;
  81              		.loc 2 308 0
  82 0036 5A69     		ldr	r2, [r3, #20]
  83 0038 02F40022 		and	r2, r2, #524288
  84 003c 0392     		str	r2, [sp, #12]
  85              		.loc 2 309 0
  86 003e 039A     		ldr	r2, [sp, #12]
  87              	.LVL2:
  88              	.LBE170:
  89              	.LBE169:
  90              	.LBB171:
  91              	.LBB172:
 306:Drivers/STM32F3xx_HAL_Driver/Inc/stm32f3xx_ll_bus.h ****   /* Delay after an RCC peripheral clock enabling */
ARM GAS  /tmp/cc1L2lRe.s 			page 14


  92              		.loc 2 306 0
  93 0040 5A69     		ldr	r2, [r3, #20]
  94 0042 42F48002 		orr	r2, r2, #4194304
  95 0046 5A61     		str	r2, [r3, #20]
 308:Drivers/STM32F3xx_HAL_Driver/Inc/stm32f3xx_ll_bus.h ****   (void)tmpreg;
  96              		.loc 2 308 0
  97 0048 5A69     		ldr	r2, [r3, #20]
  98 004a 02F48002 		and	r2, r2, #4194304
  99 004e 0292     		str	r2, [sp, #8]
 100              		.loc 2 309 0
 101 0050 029A     		ldr	r2, [sp, #8]
 102              	.LVL3:
 103              	.LBE172:
 104              	.LBE171:
 105              	.LBB173:
 106              	.LBB174:
 306:Drivers/STM32F3xx_HAL_Driver/Inc/stm32f3xx_ll_bus.h ****   /* Delay after an RCC peripheral clock enabling */
 107              		.loc 2 306 0
 108 0052 5A69     		ldr	r2, [r3, #20]
 109 0054 42F40032 		orr	r2, r2, #131072
 110 0058 5A61     		str	r2, [r3, #20]
 308:Drivers/STM32F3xx_HAL_Driver/Inc/stm32f3xx_ll_bus.h ****   (void)tmpreg;
 111              		.loc 2 308 0
 112 005a 5A69     		ldr	r2, [r3, #20]
 113 005c 02F40032 		and	r2, r2, #131072
 114 0060 0192     		str	r2, [sp, #4]
 115              		.loc 2 309 0
 116 0062 019A     		ldr	r2, [sp, #4]
 117              	.LVL4:
 118              	.LBE174:
 119              	.LBE173:
 120              	.LBB175:
 121              	.LBB176:
 306:Drivers/STM32F3xx_HAL_Driver/Inc/stm32f3xx_ll_bus.h ****   /* Delay after an RCC peripheral clock enabling */
 122              		.loc 2 306 0
 123 0064 5A69     		ldr	r2, [r3, #20]
 124 0066 42F48022 		orr	r2, r2, #262144
 125 006a 5A61     		str	r2, [r3, #20]
 308:Drivers/STM32F3xx_HAL_Driver/Inc/stm32f3xx_ll_bus.h ****   (void)tmpreg;
 126              		.loc 2 308 0
 127 006c 5B69     		ldr	r3, [r3, #20]
 128 006e 03F48023 		and	r3, r3, #262144
 129 0072 0093     		str	r3, [sp]
 130              		.loc 2 309 0
 131 0074 009B     		ldr	r3, [sp]
 132              	.LVL5:
 133              	.LBE176:
 134              	.LBE175:
 135              	.LBB177:
 136              	.LBB178:
 137              		.file 3 "Drivers/STM32F3xx_HAL_Driver/Inc/stm32f3xx_ll_gpio.h"
   1:Drivers/STM32F3xx_HAL_Driver/Inc/stm32f3xx_ll_gpio.h **** /**
   2:Drivers/STM32F3xx_HAL_Driver/Inc/stm32f3xx_ll_gpio.h ****   ******************************************************************************
   3:Drivers/STM32F3xx_HAL_Driver/Inc/stm32f3xx_ll_gpio.h ****   * @file    stm32f3xx_ll_gpio.h
   4:Drivers/STM32F3xx_HAL_Driver/Inc/stm32f3xx_ll_gpio.h ****   * @author  MCD Application Team
   5:Drivers/STM32F3xx_HAL_Driver/Inc/stm32f3xx_ll_gpio.h ****   * @brief   Header file of GPIO LL module.
   6:Drivers/STM32F3xx_HAL_Driver/Inc/stm32f3xx_ll_gpio.h ****   ******************************************************************************
ARM GAS  /tmp/cc1L2lRe.s 			page 15


   7:Drivers/STM32F3xx_HAL_Driver/Inc/stm32f3xx_ll_gpio.h ****   * @attention
   8:Drivers/STM32F3xx_HAL_Driver/Inc/stm32f3xx_ll_gpio.h ****   *
   9:Drivers/STM32F3xx_HAL_Driver/Inc/stm32f3xx_ll_gpio.h ****   * <h2><center>&copy; COPYRIGHT(c) 2016 STMicroelectronics</center></h2>
  10:Drivers/STM32F3xx_HAL_Driver/Inc/stm32f3xx_ll_gpio.h ****   *
  11:Drivers/STM32F3xx_HAL_Driver/Inc/stm32f3xx_ll_gpio.h ****   * Redistribution and use in source and binary forms, with or without modification,
  12:Drivers/STM32F3xx_HAL_Driver/Inc/stm32f3xx_ll_gpio.h ****   * are permitted provided that the following conditions are met:
  13:Drivers/STM32F3xx_HAL_Driver/Inc/stm32f3xx_ll_gpio.h ****   *   1. Redistributions of source code must retain the above copyright notice,
  14:Drivers/STM32F3xx_HAL_Driver/Inc/stm32f3xx_ll_gpio.h ****   *      this list of conditions and the following disclaimer.
  15:Drivers/STM32F3xx_HAL_Driver/Inc/stm32f3xx_ll_gpio.h ****   *   2. Redistributions in binary form must reproduce the above copyright notice,
  16:Drivers/STM32F3xx_HAL_Driver/Inc/stm32f3xx_ll_gpio.h ****   *      this list of conditions and the following disclaimer in the documentation
  17:Drivers/STM32F3xx_HAL_Driver/Inc/stm32f3xx_ll_gpio.h ****   *      and/or other materials provided with the distribution.
  18:Drivers/STM32F3xx_HAL_Driver/Inc/stm32f3xx_ll_gpio.h ****   *   3. Neither the name of STMicroelectronics nor the names of its contributors
  19:Drivers/STM32F3xx_HAL_Driver/Inc/stm32f3xx_ll_gpio.h ****   *      may be used to endorse or promote products derived from this software
  20:Drivers/STM32F3xx_HAL_Driver/Inc/stm32f3xx_ll_gpio.h ****   *      without specific prior written permission.
  21:Drivers/STM32F3xx_HAL_Driver/Inc/stm32f3xx_ll_gpio.h ****   *
  22:Drivers/STM32F3xx_HAL_Driver/Inc/stm32f3xx_ll_gpio.h ****   * THIS SOFTWARE IS PROVIDED BY THE COPYRIGHT HOLDERS AND CONTRIBUTORS "AS IS"
  23:Drivers/STM32F3xx_HAL_Driver/Inc/stm32f3xx_ll_gpio.h ****   * AND ANY EXPRESS OR IMPLIED WARRANTIES, INCLUDING, BUT NOT LIMITED TO, THE
  24:Drivers/STM32F3xx_HAL_Driver/Inc/stm32f3xx_ll_gpio.h ****   * IMPLIED WARRANTIES OF MERCHANTABILITY AND FITNESS FOR A PARTICULAR PURPOSE ARE
  25:Drivers/STM32F3xx_HAL_Driver/Inc/stm32f3xx_ll_gpio.h ****   * DISCLAIMED. IN NO EVENT SHALL THE COPYRIGHT HOLDER OR CONTRIBUTORS BE LIABLE
  26:Drivers/STM32F3xx_HAL_Driver/Inc/stm32f3xx_ll_gpio.h ****   * FOR ANY DIRECT, INDIRECT, INCIDENTAL, SPECIAL, EXEMPLARY, OR CONSEQUENTIAL
  27:Drivers/STM32F3xx_HAL_Driver/Inc/stm32f3xx_ll_gpio.h ****   * DAMAGES (INCLUDING, BUT NOT LIMITED TO, PROCUREMENT OF SUBSTITUTE GOODS OR
  28:Drivers/STM32F3xx_HAL_Driver/Inc/stm32f3xx_ll_gpio.h ****   * SERVICES; LOSS OF USE, DATA, OR PROFITS; OR BUSINESS INTERRUPTION) HOWEVER
  29:Drivers/STM32F3xx_HAL_Driver/Inc/stm32f3xx_ll_gpio.h ****   * CAUSED AND ON ANY THEORY OF LIABILITY, WHETHER IN CONTRACT, STRICT LIABILITY,
  30:Drivers/STM32F3xx_HAL_Driver/Inc/stm32f3xx_ll_gpio.h ****   * OR TORT (INCLUDING NEGLIGENCE OR OTHERWISE) ARISING IN ANY WAY OUT OF THE USE
  31:Drivers/STM32F3xx_HAL_Driver/Inc/stm32f3xx_ll_gpio.h ****   * OF THIS SOFTWARE, EVEN IF ADVISED OF THE POSSIBILITY OF SUCH DAMAGE.
  32:Drivers/STM32F3xx_HAL_Driver/Inc/stm32f3xx_ll_gpio.h ****   *
  33:Drivers/STM32F3xx_HAL_Driver/Inc/stm32f3xx_ll_gpio.h ****   ******************************************************************************
  34:Drivers/STM32F3xx_HAL_Driver/Inc/stm32f3xx_ll_gpio.h ****   */
  35:Drivers/STM32F3xx_HAL_Driver/Inc/stm32f3xx_ll_gpio.h **** 
  36:Drivers/STM32F3xx_HAL_Driver/Inc/stm32f3xx_ll_gpio.h **** /* Define to prevent recursive inclusion -------------------------------------*/
  37:Drivers/STM32F3xx_HAL_Driver/Inc/stm32f3xx_ll_gpio.h **** #ifndef __STM32F3xx_LL_GPIO_H
  38:Drivers/STM32F3xx_HAL_Driver/Inc/stm32f3xx_ll_gpio.h **** #define __STM32F3xx_LL_GPIO_H
  39:Drivers/STM32F3xx_HAL_Driver/Inc/stm32f3xx_ll_gpio.h **** 
  40:Drivers/STM32F3xx_HAL_Driver/Inc/stm32f3xx_ll_gpio.h **** #ifdef __cplusplus
  41:Drivers/STM32F3xx_HAL_Driver/Inc/stm32f3xx_ll_gpio.h **** extern "C" {
  42:Drivers/STM32F3xx_HAL_Driver/Inc/stm32f3xx_ll_gpio.h **** #endif
  43:Drivers/STM32F3xx_HAL_Driver/Inc/stm32f3xx_ll_gpio.h **** 
  44:Drivers/STM32F3xx_HAL_Driver/Inc/stm32f3xx_ll_gpio.h **** /* Includes ------------------------------------------------------------------*/
  45:Drivers/STM32F3xx_HAL_Driver/Inc/stm32f3xx_ll_gpio.h **** #include "stm32f3xx.h"
  46:Drivers/STM32F3xx_HAL_Driver/Inc/stm32f3xx_ll_gpio.h **** 
  47:Drivers/STM32F3xx_HAL_Driver/Inc/stm32f3xx_ll_gpio.h **** /** @addtogroup STM32F3xx_LL_Driver
  48:Drivers/STM32F3xx_HAL_Driver/Inc/stm32f3xx_ll_gpio.h ****   * @{
  49:Drivers/STM32F3xx_HAL_Driver/Inc/stm32f3xx_ll_gpio.h ****   */
  50:Drivers/STM32F3xx_HAL_Driver/Inc/stm32f3xx_ll_gpio.h **** 
  51:Drivers/STM32F3xx_HAL_Driver/Inc/stm32f3xx_ll_gpio.h **** #if defined (GPIOA) || defined (GPIOB) || defined (GPIOC) || defined (GPIOD) || defined (GPIOE) || 
  52:Drivers/STM32F3xx_HAL_Driver/Inc/stm32f3xx_ll_gpio.h **** 
  53:Drivers/STM32F3xx_HAL_Driver/Inc/stm32f3xx_ll_gpio.h **** /** @defgroup GPIO_LL GPIO
  54:Drivers/STM32F3xx_HAL_Driver/Inc/stm32f3xx_ll_gpio.h ****   * @{
  55:Drivers/STM32F3xx_HAL_Driver/Inc/stm32f3xx_ll_gpio.h ****   */
  56:Drivers/STM32F3xx_HAL_Driver/Inc/stm32f3xx_ll_gpio.h **** 
  57:Drivers/STM32F3xx_HAL_Driver/Inc/stm32f3xx_ll_gpio.h **** /* Private types -------------------------------------------------------------*/
  58:Drivers/STM32F3xx_HAL_Driver/Inc/stm32f3xx_ll_gpio.h **** /* Private variables ---------------------------------------------------------*/
  59:Drivers/STM32F3xx_HAL_Driver/Inc/stm32f3xx_ll_gpio.h **** /* Private constants ---------------------------------------------------------*/
  60:Drivers/STM32F3xx_HAL_Driver/Inc/stm32f3xx_ll_gpio.h **** /* Private macros ------------------------------------------------------------*/
  61:Drivers/STM32F3xx_HAL_Driver/Inc/stm32f3xx_ll_gpio.h **** #if defined(USE_FULL_LL_DRIVER)
  62:Drivers/STM32F3xx_HAL_Driver/Inc/stm32f3xx_ll_gpio.h **** /** @defgroup GPIO_LL_Private_Macros GPIO Private Macros
  63:Drivers/STM32F3xx_HAL_Driver/Inc/stm32f3xx_ll_gpio.h ****   * @{
ARM GAS  /tmp/cc1L2lRe.s 			page 16


  64:Drivers/STM32F3xx_HAL_Driver/Inc/stm32f3xx_ll_gpio.h ****   */
  65:Drivers/STM32F3xx_HAL_Driver/Inc/stm32f3xx_ll_gpio.h **** 
  66:Drivers/STM32F3xx_HAL_Driver/Inc/stm32f3xx_ll_gpio.h **** /**
  67:Drivers/STM32F3xx_HAL_Driver/Inc/stm32f3xx_ll_gpio.h ****   * @}
  68:Drivers/STM32F3xx_HAL_Driver/Inc/stm32f3xx_ll_gpio.h ****   */
  69:Drivers/STM32F3xx_HAL_Driver/Inc/stm32f3xx_ll_gpio.h **** #endif /*USE_FULL_LL_DRIVER*/
  70:Drivers/STM32F3xx_HAL_Driver/Inc/stm32f3xx_ll_gpio.h **** 
  71:Drivers/STM32F3xx_HAL_Driver/Inc/stm32f3xx_ll_gpio.h **** /* Exported types ------------------------------------------------------------*/
  72:Drivers/STM32F3xx_HAL_Driver/Inc/stm32f3xx_ll_gpio.h **** #if defined(USE_FULL_LL_DRIVER)
  73:Drivers/STM32F3xx_HAL_Driver/Inc/stm32f3xx_ll_gpio.h **** /** @defgroup GPIO_LL_ES_INIT GPIO Exported Init structures
  74:Drivers/STM32F3xx_HAL_Driver/Inc/stm32f3xx_ll_gpio.h ****   * @{
  75:Drivers/STM32F3xx_HAL_Driver/Inc/stm32f3xx_ll_gpio.h ****   */
  76:Drivers/STM32F3xx_HAL_Driver/Inc/stm32f3xx_ll_gpio.h **** 
  77:Drivers/STM32F3xx_HAL_Driver/Inc/stm32f3xx_ll_gpio.h **** /**
  78:Drivers/STM32F3xx_HAL_Driver/Inc/stm32f3xx_ll_gpio.h ****   * @brief LL GPIO Init Structure definition
  79:Drivers/STM32F3xx_HAL_Driver/Inc/stm32f3xx_ll_gpio.h ****   */
  80:Drivers/STM32F3xx_HAL_Driver/Inc/stm32f3xx_ll_gpio.h **** typedef struct
  81:Drivers/STM32F3xx_HAL_Driver/Inc/stm32f3xx_ll_gpio.h **** {
  82:Drivers/STM32F3xx_HAL_Driver/Inc/stm32f3xx_ll_gpio.h ****   uint32_t Pin;          /*!< Specifies the GPIO pins to be configured.
  83:Drivers/STM32F3xx_HAL_Driver/Inc/stm32f3xx_ll_gpio.h ****                               This parameter can be any value of @ref GPIO_LL_EC_PIN */
  84:Drivers/STM32F3xx_HAL_Driver/Inc/stm32f3xx_ll_gpio.h **** 
  85:Drivers/STM32F3xx_HAL_Driver/Inc/stm32f3xx_ll_gpio.h ****   uint32_t Mode;         /*!< Specifies the operating mode for the selected pins.
  86:Drivers/STM32F3xx_HAL_Driver/Inc/stm32f3xx_ll_gpio.h ****                               This parameter can be a value of @ref GPIO_LL_EC_MODE.
  87:Drivers/STM32F3xx_HAL_Driver/Inc/stm32f3xx_ll_gpio.h **** 
  88:Drivers/STM32F3xx_HAL_Driver/Inc/stm32f3xx_ll_gpio.h ****                               GPIO HW configuration can be modified afterwards using unitary functi
  89:Drivers/STM32F3xx_HAL_Driver/Inc/stm32f3xx_ll_gpio.h **** 
  90:Drivers/STM32F3xx_HAL_Driver/Inc/stm32f3xx_ll_gpio.h ****   uint32_t Speed;        /*!< Specifies the speed for the selected pins.
  91:Drivers/STM32F3xx_HAL_Driver/Inc/stm32f3xx_ll_gpio.h ****                               This parameter can be a value of @ref GPIO_LL_EC_SPEED.
  92:Drivers/STM32F3xx_HAL_Driver/Inc/stm32f3xx_ll_gpio.h **** 
  93:Drivers/STM32F3xx_HAL_Driver/Inc/stm32f3xx_ll_gpio.h ****                               GPIO HW configuration can be modified afterwards using unitary functi
  94:Drivers/STM32F3xx_HAL_Driver/Inc/stm32f3xx_ll_gpio.h **** 
  95:Drivers/STM32F3xx_HAL_Driver/Inc/stm32f3xx_ll_gpio.h ****   uint32_t OutputType;   /*!< Specifies the operating output type for the selected pins.
  96:Drivers/STM32F3xx_HAL_Driver/Inc/stm32f3xx_ll_gpio.h ****                               This parameter can be a value of @ref GPIO_LL_EC_OUTPUT.
  97:Drivers/STM32F3xx_HAL_Driver/Inc/stm32f3xx_ll_gpio.h **** 
  98:Drivers/STM32F3xx_HAL_Driver/Inc/stm32f3xx_ll_gpio.h ****                               GPIO HW configuration can be modified afterwards using unitary functi
  99:Drivers/STM32F3xx_HAL_Driver/Inc/stm32f3xx_ll_gpio.h **** 
 100:Drivers/STM32F3xx_HAL_Driver/Inc/stm32f3xx_ll_gpio.h ****   uint32_t Pull;         /*!< Specifies the operating Pull-up/Pull down for the selected pins.
 101:Drivers/STM32F3xx_HAL_Driver/Inc/stm32f3xx_ll_gpio.h ****                               This parameter can be a value of @ref GPIO_LL_EC_PULL.
 102:Drivers/STM32F3xx_HAL_Driver/Inc/stm32f3xx_ll_gpio.h **** 
 103:Drivers/STM32F3xx_HAL_Driver/Inc/stm32f3xx_ll_gpio.h ****                               GPIO HW configuration can be modified afterwards using unitary functi
 104:Drivers/STM32F3xx_HAL_Driver/Inc/stm32f3xx_ll_gpio.h **** 
 105:Drivers/STM32F3xx_HAL_Driver/Inc/stm32f3xx_ll_gpio.h ****   uint32_t Alternate;    /*!< Specifies the Peripheral to be connected to the selected pins.
 106:Drivers/STM32F3xx_HAL_Driver/Inc/stm32f3xx_ll_gpio.h ****                               This parameter can be a value of @ref GPIO_LL_EC_AF.
 107:Drivers/STM32F3xx_HAL_Driver/Inc/stm32f3xx_ll_gpio.h **** 
 108:Drivers/STM32F3xx_HAL_Driver/Inc/stm32f3xx_ll_gpio.h ****                               GPIO HW configuration can be modified afterwards using unitary functi
 109:Drivers/STM32F3xx_HAL_Driver/Inc/stm32f3xx_ll_gpio.h **** } LL_GPIO_InitTypeDef;
 110:Drivers/STM32F3xx_HAL_Driver/Inc/stm32f3xx_ll_gpio.h **** 
 111:Drivers/STM32F3xx_HAL_Driver/Inc/stm32f3xx_ll_gpio.h **** /**
 112:Drivers/STM32F3xx_HAL_Driver/Inc/stm32f3xx_ll_gpio.h ****   * @}
 113:Drivers/STM32F3xx_HAL_Driver/Inc/stm32f3xx_ll_gpio.h ****   */
 114:Drivers/STM32F3xx_HAL_Driver/Inc/stm32f3xx_ll_gpio.h **** #endif /* USE_FULL_LL_DRIVER */
 115:Drivers/STM32F3xx_HAL_Driver/Inc/stm32f3xx_ll_gpio.h **** 
 116:Drivers/STM32F3xx_HAL_Driver/Inc/stm32f3xx_ll_gpio.h **** /* Exported constants --------------------------------------------------------*/
 117:Drivers/STM32F3xx_HAL_Driver/Inc/stm32f3xx_ll_gpio.h **** /** @defgroup GPIO_LL_Exported_Constants GPIO Exported Constants
 118:Drivers/STM32F3xx_HAL_Driver/Inc/stm32f3xx_ll_gpio.h ****   * @{
 119:Drivers/STM32F3xx_HAL_Driver/Inc/stm32f3xx_ll_gpio.h ****   */
 120:Drivers/STM32F3xx_HAL_Driver/Inc/stm32f3xx_ll_gpio.h **** 
ARM GAS  /tmp/cc1L2lRe.s 			page 17


 121:Drivers/STM32F3xx_HAL_Driver/Inc/stm32f3xx_ll_gpio.h **** /** @defgroup GPIO_LL_EC_PIN PIN
 122:Drivers/STM32F3xx_HAL_Driver/Inc/stm32f3xx_ll_gpio.h ****   * @{
 123:Drivers/STM32F3xx_HAL_Driver/Inc/stm32f3xx_ll_gpio.h ****   */
 124:Drivers/STM32F3xx_HAL_Driver/Inc/stm32f3xx_ll_gpio.h **** #define LL_GPIO_PIN_0                      GPIO_BSRR_BS_0 /*!< Select pin 0 */
 125:Drivers/STM32F3xx_HAL_Driver/Inc/stm32f3xx_ll_gpio.h **** #define LL_GPIO_PIN_1                      GPIO_BSRR_BS_1 /*!< Select pin 1 */
 126:Drivers/STM32F3xx_HAL_Driver/Inc/stm32f3xx_ll_gpio.h **** #define LL_GPIO_PIN_2                      GPIO_BSRR_BS_2 /*!< Select pin 2 */
 127:Drivers/STM32F3xx_HAL_Driver/Inc/stm32f3xx_ll_gpio.h **** #define LL_GPIO_PIN_3                      GPIO_BSRR_BS_3 /*!< Select pin 3 */
 128:Drivers/STM32F3xx_HAL_Driver/Inc/stm32f3xx_ll_gpio.h **** #define LL_GPIO_PIN_4                      GPIO_BSRR_BS_4 /*!< Select pin 4 */
 129:Drivers/STM32F3xx_HAL_Driver/Inc/stm32f3xx_ll_gpio.h **** #define LL_GPIO_PIN_5                      GPIO_BSRR_BS_5 /*!< Select pin 5 */
 130:Drivers/STM32F3xx_HAL_Driver/Inc/stm32f3xx_ll_gpio.h **** #define LL_GPIO_PIN_6                      GPIO_BSRR_BS_6 /*!< Select pin 6 */
 131:Drivers/STM32F3xx_HAL_Driver/Inc/stm32f3xx_ll_gpio.h **** #define LL_GPIO_PIN_7                      GPIO_BSRR_BS_7 /*!< Select pin 7 */
 132:Drivers/STM32F3xx_HAL_Driver/Inc/stm32f3xx_ll_gpio.h **** #define LL_GPIO_PIN_8                      GPIO_BSRR_BS_8 /*!< Select pin 8 */
 133:Drivers/STM32F3xx_HAL_Driver/Inc/stm32f3xx_ll_gpio.h **** #define LL_GPIO_PIN_9                      GPIO_BSRR_BS_9 /*!< Select pin 9 */
 134:Drivers/STM32F3xx_HAL_Driver/Inc/stm32f3xx_ll_gpio.h **** #define LL_GPIO_PIN_10                     GPIO_BSRR_BS_10 /*!< Select pin 10 */
 135:Drivers/STM32F3xx_HAL_Driver/Inc/stm32f3xx_ll_gpio.h **** #define LL_GPIO_PIN_11                     GPIO_BSRR_BS_11 /*!< Select pin 11 */
 136:Drivers/STM32F3xx_HAL_Driver/Inc/stm32f3xx_ll_gpio.h **** #define LL_GPIO_PIN_12                     GPIO_BSRR_BS_12 /*!< Select pin 12 */
 137:Drivers/STM32F3xx_HAL_Driver/Inc/stm32f3xx_ll_gpio.h **** #define LL_GPIO_PIN_13                     GPIO_BSRR_BS_13 /*!< Select pin 13 */
 138:Drivers/STM32F3xx_HAL_Driver/Inc/stm32f3xx_ll_gpio.h **** #define LL_GPIO_PIN_14                     GPIO_BSRR_BS_14 /*!< Select pin 14 */
 139:Drivers/STM32F3xx_HAL_Driver/Inc/stm32f3xx_ll_gpio.h **** #define LL_GPIO_PIN_15                     GPIO_BSRR_BS_15 /*!< Select pin 15 */
 140:Drivers/STM32F3xx_HAL_Driver/Inc/stm32f3xx_ll_gpio.h **** #define LL_GPIO_PIN_ALL                    (GPIO_BSRR_BS_0 | GPIO_BSRR_BS_1  | GPIO_BSRR_BS_2  | \
 141:Drivers/STM32F3xx_HAL_Driver/Inc/stm32f3xx_ll_gpio.h ****                                            GPIO_BSRR_BS_3  | GPIO_BSRR_BS_4  | GPIO_BSRR_BS_5  | \
 142:Drivers/STM32F3xx_HAL_Driver/Inc/stm32f3xx_ll_gpio.h ****                                            GPIO_BSRR_BS_6  | GPIO_BSRR_BS_7  | GPIO_BSRR_BS_8  | \
 143:Drivers/STM32F3xx_HAL_Driver/Inc/stm32f3xx_ll_gpio.h ****                                            GPIO_BSRR_BS_9  | GPIO_BSRR_BS_10 | GPIO_BSRR_BS_11 | \
 144:Drivers/STM32F3xx_HAL_Driver/Inc/stm32f3xx_ll_gpio.h ****                                            GPIO_BSRR_BS_12 | GPIO_BSRR_BS_13 | GPIO_BSRR_BS_14 | \
 145:Drivers/STM32F3xx_HAL_Driver/Inc/stm32f3xx_ll_gpio.h ****                                            GPIO_BSRR_BS_15) /*!< Select all pins */
 146:Drivers/STM32F3xx_HAL_Driver/Inc/stm32f3xx_ll_gpio.h **** /**
 147:Drivers/STM32F3xx_HAL_Driver/Inc/stm32f3xx_ll_gpio.h ****   * @}
 148:Drivers/STM32F3xx_HAL_Driver/Inc/stm32f3xx_ll_gpio.h ****   */
 149:Drivers/STM32F3xx_HAL_Driver/Inc/stm32f3xx_ll_gpio.h **** 
 150:Drivers/STM32F3xx_HAL_Driver/Inc/stm32f3xx_ll_gpio.h **** /** @defgroup GPIO_LL_EC_MODE Mode
 151:Drivers/STM32F3xx_HAL_Driver/Inc/stm32f3xx_ll_gpio.h ****   * @{
 152:Drivers/STM32F3xx_HAL_Driver/Inc/stm32f3xx_ll_gpio.h ****   */
 153:Drivers/STM32F3xx_HAL_Driver/Inc/stm32f3xx_ll_gpio.h **** #define LL_GPIO_MODE_INPUT                 (0x00000000U) /*!< Select input mode */
 154:Drivers/STM32F3xx_HAL_Driver/Inc/stm32f3xx_ll_gpio.h **** #define LL_GPIO_MODE_OUTPUT                GPIO_MODER_MODER0_0  /*!< Select output mode */
 155:Drivers/STM32F3xx_HAL_Driver/Inc/stm32f3xx_ll_gpio.h **** #define LL_GPIO_MODE_ALTERNATE             GPIO_MODER_MODER0_1  /*!< Select alternate function mode
 156:Drivers/STM32F3xx_HAL_Driver/Inc/stm32f3xx_ll_gpio.h **** #define LL_GPIO_MODE_ANALOG                GPIO_MODER_MODER0    /*!< Select analog mode */
 157:Drivers/STM32F3xx_HAL_Driver/Inc/stm32f3xx_ll_gpio.h **** /**
 158:Drivers/STM32F3xx_HAL_Driver/Inc/stm32f3xx_ll_gpio.h ****   * @}
 159:Drivers/STM32F3xx_HAL_Driver/Inc/stm32f3xx_ll_gpio.h ****   */
 160:Drivers/STM32F3xx_HAL_Driver/Inc/stm32f3xx_ll_gpio.h **** 
 161:Drivers/STM32F3xx_HAL_Driver/Inc/stm32f3xx_ll_gpio.h **** /** @defgroup GPIO_LL_EC_OUTPUT Output Type
 162:Drivers/STM32F3xx_HAL_Driver/Inc/stm32f3xx_ll_gpio.h ****   * @{
 163:Drivers/STM32F3xx_HAL_Driver/Inc/stm32f3xx_ll_gpio.h ****   */
 164:Drivers/STM32F3xx_HAL_Driver/Inc/stm32f3xx_ll_gpio.h **** #define LL_GPIO_OUTPUT_PUSHPULL            (0x00000000U) /*!< Select push-pull as output type */
 165:Drivers/STM32F3xx_HAL_Driver/Inc/stm32f3xx_ll_gpio.h **** #define LL_GPIO_OUTPUT_OPENDRAIN           GPIO_OTYPER_OT_0 /*!< Select open-drain as output type *
 166:Drivers/STM32F3xx_HAL_Driver/Inc/stm32f3xx_ll_gpio.h **** /**
 167:Drivers/STM32F3xx_HAL_Driver/Inc/stm32f3xx_ll_gpio.h ****   * @}
 168:Drivers/STM32F3xx_HAL_Driver/Inc/stm32f3xx_ll_gpio.h ****   */
 169:Drivers/STM32F3xx_HAL_Driver/Inc/stm32f3xx_ll_gpio.h **** 
 170:Drivers/STM32F3xx_HAL_Driver/Inc/stm32f3xx_ll_gpio.h **** /** @defgroup GPIO_LL_EC_SPEED Output Speed
 171:Drivers/STM32F3xx_HAL_Driver/Inc/stm32f3xx_ll_gpio.h ****   * @{
 172:Drivers/STM32F3xx_HAL_Driver/Inc/stm32f3xx_ll_gpio.h ****   */
 173:Drivers/STM32F3xx_HAL_Driver/Inc/stm32f3xx_ll_gpio.h **** #define LL_GPIO_SPEED_FREQ_LOW             (0x00000000U) /*!< Select I/O low output speed    */
 174:Drivers/STM32F3xx_HAL_Driver/Inc/stm32f3xx_ll_gpio.h **** #define LL_GPIO_SPEED_FREQ_MEDIUM          GPIO_OSPEEDER_OSPEEDR0_0 /*!< Select I/O medium output s
 175:Drivers/STM32F3xx_HAL_Driver/Inc/stm32f3xx_ll_gpio.h **** #define LL_GPIO_SPEED_FREQ_HIGH            GPIO_OSPEEDER_OSPEEDR0   /*!< Select I/O high output spe
 176:Drivers/STM32F3xx_HAL_Driver/Inc/stm32f3xx_ll_gpio.h **** /**
 177:Drivers/STM32F3xx_HAL_Driver/Inc/stm32f3xx_ll_gpio.h ****   * @}
ARM GAS  /tmp/cc1L2lRe.s 			page 18


 178:Drivers/STM32F3xx_HAL_Driver/Inc/stm32f3xx_ll_gpio.h ****   */
 179:Drivers/STM32F3xx_HAL_Driver/Inc/stm32f3xx_ll_gpio.h **** 
 180:Drivers/STM32F3xx_HAL_Driver/Inc/stm32f3xx_ll_gpio.h **** /** @defgroup GPIO_LL_EC_PULL Pull Up Pull Down
 181:Drivers/STM32F3xx_HAL_Driver/Inc/stm32f3xx_ll_gpio.h ****   * @{
 182:Drivers/STM32F3xx_HAL_Driver/Inc/stm32f3xx_ll_gpio.h ****   */
 183:Drivers/STM32F3xx_HAL_Driver/Inc/stm32f3xx_ll_gpio.h **** #define LL_GPIO_PULL_NO                    (0x00000000U) /*!< Select I/O no pull */
 184:Drivers/STM32F3xx_HAL_Driver/Inc/stm32f3xx_ll_gpio.h **** #define LL_GPIO_PULL_UP                    GPIO_PUPDR_PUPDR0_0 /*!< Select I/O pull up */
 185:Drivers/STM32F3xx_HAL_Driver/Inc/stm32f3xx_ll_gpio.h **** #define LL_GPIO_PULL_DOWN                  GPIO_PUPDR_PUPDR0_1 /*!< Select I/O pull down */
 186:Drivers/STM32F3xx_HAL_Driver/Inc/stm32f3xx_ll_gpio.h **** /**
 187:Drivers/STM32F3xx_HAL_Driver/Inc/stm32f3xx_ll_gpio.h ****   * @}
 188:Drivers/STM32F3xx_HAL_Driver/Inc/stm32f3xx_ll_gpio.h ****   */
 189:Drivers/STM32F3xx_HAL_Driver/Inc/stm32f3xx_ll_gpio.h **** 
 190:Drivers/STM32F3xx_HAL_Driver/Inc/stm32f3xx_ll_gpio.h **** /** @defgroup GPIO_LL_EC_AF Alternate Function
 191:Drivers/STM32F3xx_HAL_Driver/Inc/stm32f3xx_ll_gpio.h ****   * @{
 192:Drivers/STM32F3xx_HAL_Driver/Inc/stm32f3xx_ll_gpio.h ****   */
 193:Drivers/STM32F3xx_HAL_Driver/Inc/stm32f3xx_ll_gpio.h **** #define LL_GPIO_AF_0                       (0x0000000U) /*!< Select alternate function 0 */
 194:Drivers/STM32F3xx_HAL_Driver/Inc/stm32f3xx_ll_gpio.h **** #define LL_GPIO_AF_1                       (0x0000001U) /*!< Select alternate function 1 */
 195:Drivers/STM32F3xx_HAL_Driver/Inc/stm32f3xx_ll_gpio.h **** #define LL_GPIO_AF_2                       (0x0000002U) /*!< Select alternate function 2 */
 196:Drivers/STM32F3xx_HAL_Driver/Inc/stm32f3xx_ll_gpio.h **** #define LL_GPIO_AF_3                       (0x0000003U) /*!< Select alternate function 3 */
 197:Drivers/STM32F3xx_HAL_Driver/Inc/stm32f3xx_ll_gpio.h **** #define LL_GPIO_AF_4                       (0x0000004U) /*!< Select alternate function 4 */
 198:Drivers/STM32F3xx_HAL_Driver/Inc/stm32f3xx_ll_gpio.h **** #define LL_GPIO_AF_5                       (0x0000005U) /*!< Select alternate function 5 */
 199:Drivers/STM32F3xx_HAL_Driver/Inc/stm32f3xx_ll_gpio.h **** #define LL_GPIO_AF_6                       (0x0000006U) /*!< Select alternate function 6 */
 200:Drivers/STM32F3xx_HAL_Driver/Inc/stm32f3xx_ll_gpio.h **** #define LL_GPIO_AF_7                       (0x0000007U) /*!< Select alternate function 7 */
 201:Drivers/STM32F3xx_HAL_Driver/Inc/stm32f3xx_ll_gpio.h **** #define LL_GPIO_AF_8                       (0x0000008U) /*!< Select alternate function 8 */
 202:Drivers/STM32F3xx_HAL_Driver/Inc/stm32f3xx_ll_gpio.h **** #define LL_GPIO_AF_9                       (0x0000009U) /*!< Select alternate function 9 */
 203:Drivers/STM32F3xx_HAL_Driver/Inc/stm32f3xx_ll_gpio.h **** #define LL_GPIO_AF_10                      (0x000000AU) /*!< Select alternate function 10 */
 204:Drivers/STM32F3xx_HAL_Driver/Inc/stm32f3xx_ll_gpio.h **** #define LL_GPIO_AF_11                      (0x000000BU) /*!< Select alternate function 11 */
 205:Drivers/STM32F3xx_HAL_Driver/Inc/stm32f3xx_ll_gpio.h **** #define LL_GPIO_AF_12                      (0x000000CU) /*!< Select alternate function 12 */
 206:Drivers/STM32F3xx_HAL_Driver/Inc/stm32f3xx_ll_gpio.h **** #define LL_GPIO_AF_13                      (0x000000DU) /*!< Select alternate function 13 */
 207:Drivers/STM32F3xx_HAL_Driver/Inc/stm32f3xx_ll_gpio.h **** #define LL_GPIO_AF_14                      (0x000000EU) /*!< Select alternate function 14 */
 208:Drivers/STM32F3xx_HAL_Driver/Inc/stm32f3xx_ll_gpio.h **** #define LL_GPIO_AF_15                      (0x000000FU) /*!< Select alternate function 15 */
 209:Drivers/STM32F3xx_HAL_Driver/Inc/stm32f3xx_ll_gpio.h **** /**
 210:Drivers/STM32F3xx_HAL_Driver/Inc/stm32f3xx_ll_gpio.h ****   * @}
 211:Drivers/STM32F3xx_HAL_Driver/Inc/stm32f3xx_ll_gpio.h ****   */
 212:Drivers/STM32F3xx_HAL_Driver/Inc/stm32f3xx_ll_gpio.h **** 
 213:Drivers/STM32F3xx_HAL_Driver/Inc/stm32f3xx_ll_gpio.h **** /**
 214:Drivers/STM32F3xx_HAL_Driver/Inc/stm32f3xx_ll_gpio.h ****   * @}
 215:Drivers/STM32F3xx_HAL_Driver/Inc/stm32f3xx_ll_gpio.h ****   */
 216:Drivers/STM32F3xx_HAL_Driver/Inc/stm32f3xx_ll_gpio.h **** 
 217:Drivers/STM32F3xx_HAL_Driver/Inc/stm32f3xx_ll_gpio.h **** /* Exported macro ------------------------------------------------------------*/
 218:Drivers/STM32F3xx_HAL_Driver/Inc/stm32f3xx_ll_gpio.h **** /** @defgroup GPIO_LL_Exported_Macros GPIO Exported Macros
 219:Drivers/STM32F3xx_HAL_Driver/Inc/stm32f3xx_ll_gpio.h ****   * @{
 220:Drivers/STM32F3xx_HAL_Driver/Inc/stm32f3xx_ll_gpio.h ****   */
 221:Drivers/STM32F3xx_HAL_Driver/Inc/stm32f3xx_ll_gpio.h **** 
 222:Drivers/STM32F3xx_HAL_Driver/Inc/stm32f3xx_ll_gpio.h **** /** @defgroup GPIO_LL_EM_WRITE_READ Common Write and read registers Macros
 223:Drivers/STM32F3xx_HAL_Driver/Inc/stm32f3xx_ll_gpio.h ****   * @{
 224:Drivers/STM32F3xx_HAL_Driver/Inc/stm32f3xx_ll_gpio.h ****   */
 225:Drivers/STM32F3xx_HAL_Driver/Inc/stm32f3xx_ll_gpio.h **** 
 226:Drivers/STM32F3xx_HAL_Driver/Inc/stm32f3xx_ll_gpio.h **** /**
 227:Drivers/STM32F3xx_HAL_Driver/Inc/stm32f3xx_ll_gpio.h ****   * @brief  Write a value in GPIO register
 228:Drivers/STM32F3xx_HAL_Driver/Inc/stm32f3xx_ll_gpio.h ****   * @param  __INSTANCE__ GPIO Instance
 229:Drivers/STM32F3xx_HAL_Driver/Inc/stm32f3xx_ll_gpio.h ****   * @param  __REG__ Register to be written
 230:Drivers/STM32F3xx_HAL_Driver/Inc/stm32f3xx_ll_gpio.h ****   * @param  __VALUE__ Value to be written in the register
 231:Drivers/STM32F3xx_HAL_Driver/Inc/stm32f3xx_ll_gpio.h ****   * @retval None
 232:Drivers/STM32F3xx_HAL_Driver/Inc/stm32f3xx_ll_gpio.h ****   */
 233:Drivers/STM32F3xx_HAL_Driver/Inc/stm32f3xx_ll_gpio.h **** #define LL_GPIO_WriteReg(__INSTANCE__, __REG__, __VALUE__) WRITE_REG(__INSTANCE__->__REG__, (__VALU
 234:Drivers/STM32F3xx_HAL_Driver/Inc/stm32f3xx_ll_gpio.h **** 
ARM GAS  /tmp/cc1L2lRe.s 			page 19


 235:Drivers/STM32F3xx_HAL_Driver/Inc/stm32f3xx_ll_gpio.h **** /**
 236:Drivers/STM32F3xx_HAL_Driver/Inc/stm32f3xx_ll_gpio.h ****   * @brief  Read a value in GPIO register
 237:Drivers/STM32F3xx_HAL_Driver/Inc/stm32f3xx_ll_gpio.h ****   * @param  __INSTANCE__ GPIO Instance
 238:Drivers/STM32F3xx_HAL_Driver/Inc/stm32f3xx_ll_gpio.h ****   * @param  __REG__ Register to be read
 239:Drivers/STM32F3xx_HAL_Driver/Inc/stm32f3xx_ll_gpio.h ****   * @retval Register value
 240:Drivers/STM32F3xx_HAL_Driver/Inc/stm32f3xx_ll_gpio.h ****   */
 241:Drivers/STM32F3xx_HAL_Driver/Inc/stm32f3xx_ll_gpio.h **** #define LL_GPIO_ReadReg(__INSTANCE__, __REG__) READ_REG(__INSTANCE__->__REG__)
 242:Drivers/STM32F3xx_HAL_Driver/Inc/stm32f3xx_ll_gpio.h **** /**
 243:Drivers/STM32F3xx_HAL_Driver/Inc/stm32f3xx_ll_gpio.h ****   * @}
 244:Drivers/STM32F3xx_HAL_Driver/Inc/stm32f3xx_ll_gpio.h ****   */
 245:Drivers/STM32F3xx_HAL_Driver/Inc/stm32f3xx_ll_gpio.h **** 
 246:Drivers/STM32F3xx_HAL_Driver/Inc/stm32f3xx_ll_gpio.h **** /**
 247:Drivers/STM32F3xx_HAL_Driver/Inc/stm32f3xx_ll_gpio.h ****   * @}
 248:Drivers/STM32F3xx_HAL_Driver/Inc/stm32f3xx_ll_gpio.h ****   */
 249:Drivers/STM32F3xx_HAL_Driver/Inc/stm32f3xx_ll_gpio.h **** 
 250:Drivers/STM32F3xx_HAL_Driver/Inc/stm32f3xx_ll_gpio.h **** /* Exported functions --------------------------------------------------------*/
 251:Drivers/STM32F3xx_HAL_Driver/Inc/stm32f3xx_ll_gpio.h **** /** @defgroup GPIO_LL_Exported_Functions GPIO Exported Functions
 252:Drivers/STM32F3xx_HAL_Driver/Inc/stm32f3xx_ll_gpio.h ****   * @{
 253:Drivers/STM32F3xx_HAL_Driver/Inc/stm32f3xx_ll_gpio.h ****   */
 254:Drivers/STM32F3xx_HAL_Driver/Inc/stm32f3xx_ll_gpio.h **** 
 255:Drivers/STM32F3xx_HAL_Driver/Inc/stm32f3xx_ll_gpio.h **** /** @defgroup GPIO_LL_EF_Port_Configuration Port Configuration
 256:Drivers/STM32F3xx_HAL_Driver/Inc/stm32f3xx_ll_gpio.h ****   * @{
 257:Drivers/STM32F3xx_HAL_Driver/Inc/stm32f3xx_ll_gpio.h ****   */
 258:Drivers/STM32F3xx_HAL_Driver/Inc/stm32f3xx_ll_gpio.h **** 
 259:Drivers/STM32F3xx_HAL_Driver/Inc/stm32f3xx_ll_gpio.h **** /**
 260:Drivers/STM32F3xx_HAL_Driver/Inc/stm32f3xx_ll_gpio.h ****   * @brief  Configure gpio mode for a dedicated pin on dedicated port.
 261:Drivers/STM32F3xx_HAL_Driver/Inc/stm32f3xx_ll_gpio.h ****   * @note   I/O mode can be Input mode, General purpose output, Alternate function mode or Analog.
 262:Drivers/STM32F3xx_HAL_Driver/Inc/stm32f3xx_ll_gpio.h ****   * @note   Warning: only one pin can be passed as parameter.
 263:Drivers/STM32F3xx_HAL_Driver/Inc/stm32f3xx_ll_gpio.h ****   * @rmtoll MODER        MODEy         LL_GPIO_SetPinMode
 264:Drivers/STM32F3xx_HAL_Driver/Inc/stm32f3xx_ll_gpio.h ****   * @param  GPIOx GPIO Port
 265:Drivers/STM32F3xx_HAL_Driver/Inc/stm32f3xx_ll_gpio.h ****   * @param  Pin This parameter can be one of the following values:
 266:Drivers/STM32F3xx_HAL_Driver/Inc/stm32f3xx_ll_gpio.h ****   *         @arg @ref LL_GPIO_PIN_0
 267:Drivers/STM32F3xx_HAL_Driver/Inc/stm32f3xx_ll_gpio.h ****   *         @arg @ref LL_GPIO_PIN_1
 268:Drivers/STM32F3xx_HAL_Driver/Inc/stm32f3xx_ll_gpio.h ****   *         @arg @ref LL_GPIO_PIN_2
 269:Drivers/STM32F3xx_HAL_Driver/Inc/stm32f3xx_ll_gpio.h ****   *         @arg @ref LL_GPIO_PIN_3
 270:Drivers/STM32F3xx_HAL_Driver/Inc/stm32f3xx_ll_gpio.h ****   *         @arg @ref LL_GPIO_PIN_4
 271:Drivers/STM32F3xx_HAL_Driver/Inc/stm32f3xx_ll_gpio.h ****   *         @arg @ref LL_GPIO_PIN_5
 272:Drivers/STM32F3xx_HAL_Driver/Inc/stm32f3xx_ll_gpio.h ****   *         @arg @ref LL_GPIO_PIN_6
 273:Drivers/STM32F3xx_HAL_Driver/Inc/stm32f3xx_ll_gpio.h ****   *         @arg @ref LL_GPIO_PIN_7
 274:Drivers/STM32F3xx_HAL_Driver/Inc/stm32f3xx_ll_gpio.h ****   *         @arg @ref LL_GPIO_PIN_8
 275:Drivers/STM32F3xx_HAL_Driver/Inc/stm32f3xx_ll_gpio.h ****   *         @arg @ref LL_GPIO_PIN_9
 276:Drivers/STM32F3xx_HAL_Driver/Inc/stm32f3xx_ll_gpio.h ****   *         @arg @ref LL_GPIO_PIN_10
 277:Drivers/STM32F3xx_HAL_Driver/Inc/stm32f3xx_ll_gpio.h ****   *         @arg @ref LL_GPIO_PIN_11
 278:Drivers/STM32F3xx_HAL_Driver/Inc/stm32f3xx_ll_gpio.h ****   *         @arg @ref LL_GPIO_PIN_12
 279:Drivers/STM32F3xx_HAL_Driver/Inc/stm32f3xx_ll_gpio.h ****   *         @arg @ref LL_GPIO_PIN_13
 280:Drivers/STM32F3xx_HAL_Driver/Inc/stm32f3xx_ll_gpio.h ****   *         @arg @ref LL_GPIO_PIN_14
 281:Drivers/STM32F3xx_HAL_Driver/Inc/stm32f3xx_ll_gpio.h ****   *         @arg @ref LL_GPIO_PIN_15
 282:Drivers/STM32F3xx_HAL_Driver/Inc/stm32f3xx_ll_gpio.h ****   * @param  Mode This parameter can be one of the following values:
 283:Drivers/STM32F3xx_HAL_Driver/Inc/stm32f3xx_ll_gpio.h ****   *         @arg @ref LL_GPIO_MODE_INPUT
 284:Drivers/STM32F3xx_HAL_Driver/Inc/stm32f3xx_ll_gpio.h ****   *         @arg @ref LL_GPIO_MODE_OUTPUT
 285:Drivers/STM32F3xx_HAL_Driver/Inc/stm32f3xx_ll_gpio.h ****   *         @arg @ref LL_GPIO_MODE_ALTERNATE
 286:Drivers/STM32F3xx_HAL_Driver/Inc/stm32f3xx_ll_gpio.h ****   *         @arg @ref LL_GPIO_MODE_ANALOG
 287:Drivers/STM32F3xx_HAL_Driver/Inc/stm32f3xx_ll_gpio.h ****   * @retval None
 288:Drivers/STM32F3xx_HAL_Driver/Inc/stm32f3xx_ll_gpio.h ****   */
 289:Drivers/STM32F3xx_HAL_Driver/Inc/stm32f3xx_ll_gpio.h **** __STATIC_INLINE void LL_GPIO_SetPinMode(GPIO_TypeDef *GPIOx, uint32_t Pin, uint32_t Mode)
 290:Drivers/STM32F3xx_HAL_Driver/Inc/stm32f3xx_ll_gpio.h **** {
 291:Drivers/STM32F3xx_HAL_Driver/Inc/stm32f3xx_ll_gpio.h ****   MODIFY_REG(GPIOx->MODER, (GPIO_MODER_MODER0 << (POSITION_VAL(Pin) * 2U)), (Mode << (POSITION_VAL(
ARM GAS  /tmp/cc1L2lRe.s 			page 20


 292:Drivers/STM32F3xx_HAL_Driver/Inc/stm32f3xx_ll_gpio.h **** }
 293:Drivers/STM32F3xx_HAL_Driver/Inc/stm32f3xx_ll_gpio.h **** 
 294:Drivers/STM32F3xx_HAL_Driver/Inc/stm32f3xx_ll_gpio.h **** /**
 295:Drivers/STM32F3xx_HAL_Driver/Inc/stm32f3xx_ll_gpio.h ****   * @brief  Return gpio mode for a dedicated pin on dedicated port.
 296:Drivers/STM32F3xx_HAL_Driver/Inc/stm32f3xx_ll_gpio.h ****   * @note   I/O mode can be Input mode, General purpose output, Alternate function mode or Analog.
 297:Drivers/STM32F3xx_HAL_Driver/Inc/stm32f3xx_ll_gpio.h ****   * @note   Warning: only one pin can be passed as parameter.
 298:Drivers/STM32F3xx_HAL_Driver/Inc/stm32f3xx_ll_gpio.h ****   * @rmtoll MODER        MODEy         LL_GPIO_GetPinMode
 299:Drivers/STM32F3xx_HAL_Driver/Inc/stm32f3xx_ll_gpio.h ****   * @param  GPIOx GPIO Port
 300:Drivers/STM32F3xx_HAL_Driver/Inc/stm32f3xx_ll_gpio.h ****   * @param  Pin This parameter can be one of the following values:
 301:Drivers/STM32F3xx_HAL_Driver/Inc/stm32f3xx_ll_gpio.h ****   *         @arg @ref LL_GPIO_PIN_0
 302:Drivers/STM32F3xx_HAL_Driver/Inc/stm32f3xx_ll_gpio.h ****   *         @arg @ref LL_GPIO_PIN_1
 303:Drivers/STM32F3xx_HAL_Driver/Inc/stm32f3xx_ll_gpio.h ****   *         @arg @ref LL_GPIO_PIN_2
 304:Drivers/STM32F3xx_HAL_Driver/Inc/stm32f3xx_ll_gpio.h ****   *         @arg @ref LL_GPIO_PIN_3
 305:Drivers/STM32F3xx_HAL_Driver/Inc/stm32f3xx_ll_gpio.h ****   *         @arg @ref LL_GPIO_PIN_4
 306:Drivers/STM32F3xx_HAL_Driver/Inc/stm32f3xx_ll_gpio.h ****   *         @arg @ref LL_GPIO_PIN_5
 307:Drivers/STM32F3xx_HAL_Driver/Inc/stm32f3xx_ll_gpio.h ****   *         @arg @ref LL_GPIO_PIN_6
 308:Drivers/STM32F3xx_HAL_Driver/Inc/stm32f3xx_ll_gpio.h ****   *         @arg @ref LL_GPIO_PIN_7
 309:Drivers/STM32F3xx_HAL_Driver/Inc/stm32f3xx_ll_gpio.h ****   *         @arg @ref LL_GPIO_PIN_8
 310:Drivers/STM32F3xx_HAL_Driver/Inc/stm32f3xx_ll_gpio.h ****   *         @arg @ref LL_GPIO_PIN_9
 311:Drivers/STM32F3xx_HAL_Driver/Inc/stm32f3xx_ll_gpio.h ****   *         @arg @ref LL_GPIO_PIN_10
 312:Drivers/STM32F3xx_HAL_Driver/Inc/stm32f3xx_ll_gpio.h ****   *         @arg @ref LL_GPIO_PIN_11
 313:Drivers/STM32F3xx_HAL_Driver/Inc/stm32f3xx_ll_gpio.h ****   *         @arg @ref LL_GPIO_PIN_12
 314:Drivers/STM32F3xx_HAL_Driver/Inc/stm32f3xx_ll_gpio.h ****   *         @arg @ref LL_GPIO_PIN_13
 315:Drivers/STM32F3xx_HAL_Driver/Inc/stm32f3xx_ll_gpio.h ****   *         @arg @ref LL_GPIO_PIN_14
 316:Drivers/STM32F3xx_HAL_Driver/Inc/stm32f3xx_ll_gpio.h ****   *         @arg @ref LL_GPIO_PIN_15
 317:Drivers/STM32F3xx_HAL_Driver/Inc/stm32f3xx_ll_gpio.h ****   * @retval Returned value can be one of the following values:
 318:Drivers/STM32F3xx_HAL_Driver/Inc/stm32f3xx_ll_gpio.h ****   *         @arg @ref LL_GPIO_MODE_INPUT
 319:Drivers/STM32F3xx_HAL_Driver/Inc/stm32f3xx_ll_gpio.h ****   *         @arg @ref LL_GPIO_MODE_OUTPUT
 320:Drivers/STM32F3xx_HAL_Driver/Inc/stm32f3xx_ll_gpio.h ****   *         @arg @ref LL_GPIO_MODE_ALTERNATE
 321:Drivers/STM32F3xx_HAL_Driver/Inc/stm32f3xx_ll_gpio.h ****   *         @arg @ref LL_GPIO_MODE_ANALOG
 322:Drivers/STM32F3xx_HAL_Driver/Inc/stm32f3xx_ll_gpio.h ****   */
 323:Drivers/STM32F3xx_HAL_Driver/Inc/stm32f3xx_ll_gpio.h **** __STATIC_INLINE uint32_t LL_GPIO_GetPinMode(GPIO_TypeDef *GPIOx, uint32_t Pin)
 324:Drivers/STM32F3xx_HAL_Driver/Inc/stm32f3xx_ll_gpio.h **** {
 325:Drivers/STM32F3xx_HAL_Driver/Inc/stm32f3xx_ll_gpio.h ****   return (uint32_t)(READ_BIT(GPIOx->MODER,
 326:Drivers/STM32F3xx_HAL_Driver/Inc/stm32f3xx_ll_gpio.h ****                              (GPIO_MODER_MODER0 << (POSITION_VAL(Pin) * 2U))) >> (POSITION_VAL(Pin)
 327:Drivers/STM32F3xx_HAL_Driver/Inc/stm32f3xx_ll_gpio.h **** }
 328:Drivers/STM32F3xx_HAL_Driver/Inc/stm32f3xx_ll_gpio.h **** 
 329:Drivers/STM32F3xx_HAL_Driver/Inc/stm32f3xx_ll_gpio.h **** /**
 330:Drivers/STM32F3xx_HAL_Driver/Inc/stm32f3xx_ll_gpio.h ****   * @brief  Configure gpio output type for several pins on dedicated port.
 331:Drivers/STM32F3xx_HAL_Driver/Inc/stm32f3xx_ll_gpio.h ****   * @note   Output type as to be set when gpio pin is in output or
 332:Drivers/STM32F3xx_HAL_Driver/Inc/stm32f3xx_ll_gpio.h ****   *         alternate modes. Possible type are Push-pull or Open-drain.
 333:Drivers/STM32F3xx_HAL_Driver/Inc/stm32f3xx_ll_gpio.h ****   * @rmtoll OTYPER       OTy           LL_GPIO_SetPinOutputType
 334:Drivers/STM32F3xx_HAL_Driver/Inc/stm32f3xx_ll_gpio.h ****   * @param  GPIOx GPIO Port
 335:Drivers/STM32F3xx_HAL_Driver/Inc/stm32f3xx_ll_gpio.h ****   * @param  PinMask This parameter can be a combination of the following values:
 336:Drivers/STM32F3xx_HAL_Driver/Inc/stm32f3xx_ll_gpio.h ****   *         @arg @ref LL_GPIO_PIN_0
 337:Drivers/STM32F3xx_HAL_Driver/Inc/stm32f3xx_ll_gpio.h ****   *         @arg @ref LL_GPIO_PIN_1
 338:Drivers/STM32F3xx_HAL_Driver/Inc/stm32f3xx_ll_gpio.h ****   *         @arg @ref LL_GPIO_PIN_2
 339:Drivers/STM32F3xx_HAL_Driver/Inc/stm32f3xx_ll_gpio.h ****   *         @arg @ref LL_GPIO_PIN_3
 340:Drivers/STM32F3xx_HAL_Driver/Inc/stm32f3xx_ll_gpio.h ****   *         @arg @ref LL_GPIO_PIN_4
 341:Drivers/STM32F3xx_HAL_Driver/Inc/stm32f3xx_ll_gpio.h ****   *         @arg @ref LL_GPIO_PIN_5
 342:Drivers/STM32F3xx_HAL_Driver/Inc/stm32f3xx_ll_gpio.h ****   *         @arg @ref LL_GPIO_PIN_6
 343:Drivers/STM32F3xx_HAL_Driver/Inc/stm32f3xx_ll_gpio.h ****   *         @arg @ref LL_GPIO_PIN_7
 344:Drivers/STM32F3xx_HAL_Driver/Inc/stm32f3xx_ll_gpio.h ****   *         @arg @ref LL_GPIO_PIN_8
 345:Drivers/STM32F3xx_HAL_Driver/Inc/stm32f3xx_ll_gpio.h ****   *         @arg @ref LL_GPIO_PIN_9
 346:Drivers/STM32F3xx_HAL_Driver/Inc/stm32f3xx_ll_gpio.h ****   *         @arg @ref LL_GPIO_PIN_10
 347:Drivers/STM32F3xx_HAL_Driver/Inc/stm32f3xx_ll_gpio.h ****   *         @arg @ref LL_GPIO_PIN_11
 348:Drivers/STM32F3xx_HAL_Driver/Inc/stm32f3xx_ll_gpio.h ****   *         @arg @ref LL_GPIO_PIN_12
ARM GAS  /tmp/cc1L2lRe.s 			page 21


 349:Drivers/STM32F3xx_HAL_Driver/Inc/stm32f3xx_ll_gpio.h ****   *         @arg @ref LL_GPIO_PIN_13
 350:Drivers/STM32F3xx_HAL_Driver/Inc/stm32f3xx_ll_gpio.h ****   *         @arg @ref LL_GPIO_PIN_14
 351:Drivers/STM32F3xx_HAL_Driver/Inc/stm32f3xx_ll_gpio.h ****   *         @arg @ref LL_GPIO_PIN_15
 352:Drivers/STM32F3xx_HAL_Driver/Inc/stm32f3xx_ll_gpio.h ****   *         @arg @ref LL_GPIO_PIN_ALL
 353:Drivers/STM32F3xx_HAL_Driver/Inc/stm32f3xx_ll_gpio.h ****   * @param  OutputType This parameter can be one of the following values:
 354:Drivers/STM32F3xx_HAL_Driver/Inc/stm32f3xx_ll_gpio.h ****   *         @arg @ref LL_GPIO_OUTPUT_PUSHPULL
 355:Drivers/STM32F3xx_HAL_Driver/Inc/stm32f3xx_ll_gpio.h ****   *         @arg @ref LL_GPIO_OUTPUT_OPENDRAIN
 356:Drivers/STM32F3xx_HAL_Driver/Inc/stm32f3xx_ll_gpio.h ****   * @retval None
 357:Drivers/STM32F3xx_HAL_Driver/Inc/stm32f3xx_ll_gpio.h ****   */
 358:Drivers/STM32F3xx_HAL_Driver/Inc/stm32f3xx_ll_gpio.h **** __STATIC_INLINE void LL_GPIO_SetPinOutputType(GPIO_TypeDef *GPIOx, uint32_t PinMask, uint32_t Outpu
 359:Drivers/STM32F3xx_HAL_Driver/Inc/stm32f3xx_ll_gpio.h **** {
 360:Drivers/STM32F3xx_HAL_Driver/Inc/stm32f3xx_ll_gpio.h ****   MODIFY_REG(GPIOx->OTYPER, PinMask, (PinMask * OutputType));
 361:Drivers/STM32F3xx_HAL_Driver/Inc/stm32f3xx_ll_gpio.h **** }
 362:Drivers/STM32F3xx_HAL_Driver/Inc/stm32f3xx_ll_gpio.h **** 
 363:Drivers/STM32F3xx_HAL_Driver/Inc/stm32f3xx_ll_gpio.h **** /**
 364:Drivers/STM32F3xx_HAL_Driver/Inc/stm32f3xx_ll_gpio.h ****   * @brief  Return gpio output type for several pins on dedicated port.
 365:Drivers/STM32F3xx_HAL_Driver/Inc/stm32f3xx_ll_gpio.h ****   * @note   Output type as to be set when gpio pin is in output or
 366:Drivers/STM32F3xx_HAL_Driver/Inc/stm32f3xx_ll_gpio.h ****   *         alternate modes. Possible type are Push-pull or Open-drain.
 367:Drivers/STM32F3xx_HAL_Driver/Inc/stm32f3xx_ll_gpio.h ****   * @note   Warning: only one pin can be passed as parameter.
 368:Drivers/STM32F3xx_HAL_Driver/Inc/stm32f3xx_ll_gpio.h ****   * @rmtoll OTYPER       OTy           LL_GPIO_GetPinOutputType
 369:Drivers/STM32F3xx_HAL_Driver/Inc/stm32f3xx_ll_gpio.h ****   * @param  GPIOx GPIO Port
 370:Drivers/STM32F3xx_HAL_Driver/Inc/stm32f3xx_ll_gpio.h ****   * @param  Pin This parameter can be one of the following values:
 371:Drivers/STM32F3xx_HAL_Driver/Inc/stm32f3xx_ll_gpio.h ****   *         @arg @ref LL_GPIO_PIN_0
 372:Drivers/STM32F3xx_HAL_Driver/Inc/stm32f3xx_ll_gpio.h ****   *         @arg @ref LL_GPIO_PIN_1
 373:Drivers/STM32F3xx_HAL_Driver/Inc/stm32f3xx_ll_gpio.h ****   *         @arg @ref LL_GPIO_PIN_2
 374:Drivers/STM32F3xx_HAL_Driver/Inc/stm32f3xx_ll_gpio.h ****   *         @arg @ref LL_GPIO_PIN_3
 375:Drivers/STM32F3xx_HAL_Driver/Inc/stm32f3xx_ll_gpio.h ****   *         @arg @ref LL_GPIO_PIN_4
 376:Drivers/STM32F3xx_HAL_Driver/Inc/stm32f3xx_ll_gpio.h ****   *         @arg @ref LL_GPIO_PIN_5
 377:Drivers/STM32F3xx_HAL_Driver/Inc/stm32f3xx_ll_gpio.h ****   *         @arg @ref LL_GPIO_PIN_6
 378:Drivers/STM32F3xx_HAL_Driver/Inc/stm32f3xx_ll_gpio.h ****   *         @arg @ref LL_GPIO_PIN_7
 379:Drivers/STM32F3xx_HAL_Driver/Inc/stm32f3xx_ll_gpio.h ****   *         @arg @ref LL_GPIO_PIN_8
 380:Drivers/STM32F3xx_HAL_Driver/Inc/stm32f3xx_ll_gpio.h ****   *         @arg @ref LL_GPIO_PIN_9
 381:Drivers/STM32F3xx_HAL_Driver/Inc/stm32f3xx_ll_gpio.h ****   *         @arg @ref LL_GPIO_PIN_10
 382:Drivers/STM32F3xx_HAL_Driver/Inc/stm32f3xx_ll_gpio.h ****   *         @arg @ref LL_GPIO_PIN_11
 383:Drivers/STM32F3xx_HAL_Driver/Inc/stm32f3xx_ll_gpio.h ****   *         @arg @ref LL_GPIO_PIN_12
 384:Drivers/STM32F3xx_HAL_Driver/Inc/stm32f3xx_ll_gpio.h ****   *         @arg @ref LL_GPIO_PIN_13
 385:Drivers/STM32F3xx_HAL_Driver/Inc/stm32f3xx_ll_gpio.h ****   *         @arg @ref LL_GPIO_PIN_14
 386:Drivers/STM32F3xx_HAL_Driver/Inc/stm32f3xx_ll_gpio.h ****   *         @arg @ref LL_GPIO_PIN_15
 387:Drivers/STM32F3xx_HAL_Driver/Inc/stm32f3xx_ll_gpio.h ****   *         @arg @ref LL_GPIO_PIN_ALL
 388:Drivers/STM32F3xx_HAL_Driver/Inc/stm32f3xx_ll_gpio.h ****   * @retval Returned value can be one of the following values:
 389:Drivers/STM32F3xx_HAL_Driver/Inc/stm32f3xx_ll_gpio.h ****   *         @arg @ref LL_GPIO_OUTPUT_PUSHPULL
 390:Drivers/STM32F3xx_HAL_Driver/Inc/stm32f3xx_ll_gpio.h ****   *         @arg @ref LL_GPIO_OUTPUT_OPENDRAIN
 391:Drivers/STM32F3xx_HAL_Driver/Inc/stm32f3xx_ll_gpio.h ****   */
 392:Drivers/STM32F3xx_HAL_Driver/Inc/stm32f3xx_ll_gpio.h **** __STATIC_INLINE uint32_t LL_GPIO_GetPinOutputType(GPIO_TypeDef *GPIOx, uint32_t Pin)
 393:Drivers/STM32F3xx_HAL_Driver/Inc/stm32f3xx_ll_gpio.h **** {
 394:Drivers/STM32F3xx_HAL_Driver/Inc/stm32f3xx_ll_gpio.h ****   return (uint32_t)(READ_BIT(GPIOx->OTYPER, Pin) >> POSITION_VAL(Pin));
 395:Drivers/STM32F3xx_HAL_Driver/Inc/stm32f3xx_ll_gpio.h **** }
 396:Drivers/STM32F3xx_HAL_Driver/Inc/stm32f3xx_ll_gpio.h **** 
 397:Drivers/STM32F3xx_HAL_Driver/Inc/stm32f3xx_ll_gpio.h **** /**
 398:Drivers/STM32F3xx_HAL_Driver/Inc/stm32f3xx_ll_gpio.h ****   * @brief  Configure gpio speed for a dedicated pin on dedicated port.
 399:Drivers/STM32F3xx_HAL_Driver/Inc/stm32f3xx_ll_gpio.h ****   * @note   I/O speed can be Low, Medium, Fast or High speed.
 400:Drivers/STM32F3xx_HAL_Driver/Inc/stm32f3xx_ll_gpio.h ****   * @note   Warning: only one pin can be passed as parameter.
 401:Drivers/STM32F3xx_HAL_Driver/Inc/stm32f3xx_ll_gpio.h ****   * @note   Refer to datasheet for frequency specifications and the power
 402:Drivers/STM32F3xx_HAL_Driver/Inc/stm32f3xx_ll_gpio.h ****   *         supply and load conditions for each speed.
 403:Drivers/STM32F3xx_HAL_Driver/Inc/stm32f3xx_ll_gpio.h ****   * @rmtoll OSPEEDR      OSPEEDy       LL_GPIO_SetPinSpeed
 404:Drivers/STM32F3xx_HAL_Driver/Inc/stm32f3xx_ll_gpio.h ****   * @param  GPIOx GPIO Port
 405:Drivers/STM32F3xx_HAL_Driver/Inc/stm32f3xx_ll_gpio.h ****   * @param  Pin This parameter can be one of the following values:
ARM GAS  /tmp/cc1L2lRe.s 			page 22


 406:Drivers/STM32F3xx_HAL_Driver/Inc/stm32f3xx_ll_gpio.h ****   *         @arg @ref LL_GPIO_PIN_0
 407:Drivers/STM32F3xx_HAL_Driver/Inc/stm32f3xx_ll_gpio.h ****   *         @arg @ref LL_GPIO_PIN_1
 408:Drivers/STM32F3xx_HAL_Driver/Inc/stm32f3xx_ll_gpio.h ****   *         @arg @ref LL_GPIO_PIN_2
 409:Drivers/STM32F3xx_HAL_Driver/Inc/stm32f3xx_ll_gpio.h ****   *         @arg @ref LL_GPIO_PIN_3
 410:Drivers/STM32F3xx_HAL_Driver/Inc/stm32f3xx_ll_gpio.h ****   *         @arg @ref LL_GPIO_PIN_4
 411:Drivers/STM32F3xx_HAL_Driver/Inc/stm32f3xx_ll_gpio.h ****   *         @arg @ref LL_GPIO_PIN_5
 412:Drivers/STM32F3xx_HAL_Driver/Inc/stm32f3xx_ll_gpio.h ****   *         @arg @ref LL_GPIO_PIN_6
 413:Drivers/STM32F3xx_HAL_Driver/Inc/stm32f3xx_ll_gpio.h ****   *         @arg @ref LL_GPIO_PIN_7
 414:Drivers/STM32F3xx_HAL_Driver/Inc/stm32f3xx_ll_gpio.h ****   *         @arg @ref LL_GPIO_PIN_8
 415:Drivers/STM32F3xx_HAL_Driver/Inc/stm32f3xx_ll_gpio.h ****   *         @arg @ref LL_GPIO_PIN_9
 416:Drivers/STM32F3xx_HAL_Driver/Inc/stm32f3xx_ll_gpio.h ****   *         @arg @ref LL_GPIO_PIN_10
 417:Drivers/STM32F3xx_HAL_Driver/Inc/stm32f3xx_ll_gpio.h ****   *         @arg @ref LL_GPIO_PIN_11
 418:Drivers/STM32F3xx_HAL_Driver/Inc/stm32f3xx_ll_gpio.h ****   *         @arg @ref LL_GPIO_PIN_12
 419:Drivers/STM32F3xx_HAL_Driver/Inc/stm32f3xx_ll_gpio.h ****   *         @arg @ref LL_GPIO_PIN_13
 420:Drivers/STM32F3xx_HAL_Driver/Inc/stm32f3xx_ll_gpio.h ****   *         @arg @ref LL_GPIO_PIN_14
 421:Drivers/STM32F3xx_HAL_Driver/Inc/stm32f3xx_ll_gpio.h ****   *         @arg @ref LL_GPIO_PIN_15
 422:Drivers/STM32F3xx_HAL_Driver/Inc/stm32f3xx_ll_gpio.h ****   * @param  Speed This parameter can be one of the following values:
 423:Drivers/STM32F3xx_HAL_Driver/Inc/stm32f3xx_ll_gpio.h ****   *         @arg @ref LL_GPIO_SPEED_FREQ_LOW
 424:Drivers/STM32F3xx_HAL_Driver/Inc/stm32f3xx_ll_gpio.h ****   *         @arg @ref LL_GPIO_SPEED_FREQ_MEDIUM
 425:Drivers/STM32F3xx_HAL_Driver/Inc/stm32f3xx_ll_gpio.h ****   *         @arg @ref LL_GPIO_SPEED_FREQ_HIGH
 426:Drivers/STM32F3xx_HAL_Driver/Inc/stm32f3xx_ll_gpio.h ****   * @retval None
 427:Drivers/STM32F3xx_HAL_Driver/Inc/stm32f3xx_ll_gpio.h ****   */
 428:Drivers/STM32F3xx_HAL_Driver/Inc/stm32f3xx_ll_gpio.h **** __STATIC_INLINE void LL_GPIO_SetPinSpeed(GPIO_TypeDef *GPIOx, uint32_t Pin, uint32_t  Speed)
 429:Drivers/STM32F3xx_HAL_Driver/Inc/stm32f3xx_ll_gpio.h **** {
 430:Drivers/STM32F3xx_HAL_Driver/Inc/stm32f3xx_ll_gpio.h ****   MODIFY_REG(GPIOx->OSPEEDR, (GPIO_OSPEEDER_OSPEEDR0 << (POSITION_VAL(Pin) * 2U)),
 431:Drivers/STM32F3xx_HAL_Driver/Inc/stm32f3xx_ll_gpio.h ****              (Speed << (POSITION_VAL(Pin) * 2U)));
 432:Drivers/STM32F3xx_HAL_Driver/Inc/stm32f3xx_ll_gpio.h **** }
 433:Drivers/STM32F3xx_HAL_Driver/Inc/stm32f3xx_ll_gpio.h **** 
 434:Drivers/STM32F3xx_HAL_Driver/Inc/stm32f3xx_ll_gpio.h **** /**
 435:Drivers/STM32F3xx_HAL_Driver/Inc/stm32f3xx_ll_gpio.h ****   * @brief  Return gpio speed for a dedicated pin on dedicated port.
 436:Drivers/STM32F3xx_HAL_Driver/Inc/stm32f3xx_ll_gpio.h ****   * @note   I/O speed can be Low, Medium, Fast or High speed.
 437:Drivers/STM32F3xx_HAL_Driver/Inc/stm32f3xx_ll_gpio.h ****   * @note   Warning: only one pin can be passed as parameter.
 438:Drivers/STM32F3xx_HAL_Driver/Inc/stm32f3xx_ll_gpio.h ****   * @note   Refer to datasheet for frequency specifications and the power
 439:Drivers/STM32F3xx_HAL_Driver/Inc/stm32f3xx_ll_gpio.h ****   *         supply and load conditions for each speed.
 440:Drivers/STM32F3xx_HAL_Driver/Inc/stm32f3xx_ll_gpio.h ****   * @rmtoll OSPEEDR      OSPEEDy       LL_GPIO_GetPinSpeed
 441:Drivers/STM32F3xx_HAL_Driver/Inc/stm32f3xx_ll_gpio.h ****   * @param  GPIOx GPIO Port
 442:Drivers/STM32F3xx_HAL_Driver/Inc/stm32f3xx_ll_gpio.h ****   * @param  Pin This parameter can be one of the following values:
 443:Drivers/STM32F3xx_HAL_Driver/Inc/stm32f3xx_ll_gpio.h ****   *         @arg @ref LL_GPIO_PIN_0
 444:Drivers/STM32F3xx_HAL_Driver/Inc/stm32f3xx_ll_gpio.h ****   *         @arg @ref LL_GPIO_PIN_1
 445:Drivers/STM32F3xx_HAL_Driver/Inc/stm32f3xx_ll_gpio.h ****   *         @arg @ref LL_GPIO_PIN_2
 446:Drivers/STM32F3xx_HAL_Driver/Inc/stm32f3xx_ll_gpio.h ****   *         @arg @ref LL_GPIO_PIN_3
 447:Drivers/STM32F3xx_HAL_Driver/Inc/stm32f3xx_ll_gpio.h ****   *         @arg @ref LL_GPIO_PIN_4
 448:Drivers/STM32F3xx_HAL_Driver/Inc/stm32f3xx_ll_gpio.h ****   *         @arg @ref LL_GPIO_PIN_5
 449:Drivers/STM32F3xx_HAL_Driver/Inc/stm32f3xx_ll_gpio.h ****   *         @arg @ref LL_GPIO_PIN_6
 450:Drivers/STM32F3xx_HAL_Driver/Inc/stm32f3xx_ll_gpio.h ****   *         @arg @ref LL_GPIO_PIN_7
 451:Drivers/STM32F3xx_HAL_Driver/Inc/stm32f3xx_ll_gpio.h ****   *         @arg @ref LL_GPIO_PIN_8
 452:Drivers/STM32F3xx_HAL_Driver/Inc/stm32f3xx_ll_gpio.h ****   *         @arg @ref LL_GPIO_PIN_9
 453:Drivers/STM32F3xx_HAL_Driver/Inc/stm32f3xx_ll_gpio.h ****   *         @arg @ref LL_GPIO_PIN_10
 454:Drivers/STM32F3xx_HAL_Driver/Inc/stm32f3xx_ll_gpio.h ****   *         @arg @ref LL_GPIO_PIN_11
 455:Drivers/STM32F3xx_HAL_Driver/Inc/stm32f3xx_ll_gpio.h ****   *         @arg @ref LL_GPIO_PIN_12
 456:Drivers/STM32F3xx_HAL_Driver/Inc/stm32f3xx_ll_gpio.h ****   *         @arg @ref LL_GPIO_PIN_13
 457:Drivers/STM32F3xx_HAL_Driver/Inc/stm32f3xx_ll_gpio.h ****   *         @arg @ref LL_GPIO_PIN_14
 458:Drivers/STM32F3xx_HAL_Driver/Inc/stm32f3xx_ll_gpio.h ****   *         @arg @ref LL_GPIO_PIN_15
 459:Drivers/STM32F3xx_HAL_Driver/Inc/stm32f3xx_ll_gpio.h ****   * @retval Returned value can be one of the following values:
 460:Drivers/STM32F3xx_HAL_Driver/Inc/stm32f3xx_ll_gpio.h ****   *         @arg @ref LL_GPIO_SPEED_FREQ_LOW
 461:Drivers/STM32F3xx_HAL_Driver/Inc/stm32f3xx_ll_gpio.h ****   *         @arg @ref LL_GPIO_SPEED_FREQ_MEDIUM
 462:Drivers/STM32F3xx_HAL_Driver/Inc/stm32f3xx_ll_gpio.h ****   *         @arg @ref LL_GPIO_SPEED_FREQ_HIGH
ARM GAS  /tmp/cc1L2lRe.s 			page 23


 463:Drivers/STM32F3xx_HAL_Driver/Inc/stm32f3xx_ll_gpio.h ****   */
 464:Drivers/STM32F3xx_HAL_Driver/Inc/stm32f3xx_ll_gpio.h **** __STATIC_INLINE uint32_t LL_GPIO_GetPinSpeed(GPIO_TypeDef *GPIOx, uint32_t Pin)
 465:Drivers/STM32F3xx_HAL_Driver/Inc/stm32f3xx_ll_gpio.h **** {
 466:Drivers/STM32F3xx_HAL_Driver/Inc/stm32f3xx_ll_gpio.h ****   return (uint32_t)(READ_BIT(GPIOx->OSPEEDR,
 467:Drivers/STM32F3xx_HAL_Driver/Inc/stm32f3xx_ll_gpio.h ****                              (GPIO_OSPEEDER_OSPEEDR0 << (POSITION_VAL(Pin) * 2U))) >> (POSITION_VAL
 468:Drivers/STM32F3xx_HAL_Driver/Inc/stm32f3xx_ll_gpio.h **** }
 469:Drivers/STM32F3xx_HAL_Driver/Inc/stm32f3xx_ll_gpio.h **** 
 470:Drivers/STM32F3xx_HAL_Driver/Inc/stm32f3xx_ll_gpio.h **** /**
 471:Drivers/STM32F3xx_HAL_Driver/Inc/stm32f3xx_ll_gpio.h ****   * @brief  Configure gpio pull-up or pull-down for a dedicated pin on a dedicated port.
 472:Drivers/STM32F3xx_HAL_Driver/Inc/stm32f3xx_ll_gpio.h ****   * @note   Warning: only one pin can be passed as parameter.
 473:Drivers/STM32F3xx_HAL_Driver/Inc/stm32f3xx_ll_gpio.h ****   * @rmtoll PUPDR        PUPDy         LL_GPIO_SetPinPull
 474:Drivers/STM32F3xx_HAL_Driver/Inc/stm32f3xx_ll_gpio.h ****   * @param  GPIOx GPIO Port
 475:Drivers/STM32F3xx_HAL_Driver/Inc/stm32f3xx_ll_gpio.h ****   * @param  Pin This parameter can be one of the following values:
 476:Drivers/STM32F3xx_HAL_Driver/Inc/stm32f3xx_ll_gpio.h ****   *         @arg @ref LL_GPIO_PIN_0
 477:Drivers/STM32F3xx_HAL_Driver/Inc/stm32f3xx_ll_gpio.h ****   *         @arg @ref LL_GPIO_PIN_1
 478:Drivers/STM32F3xx_HAL_Driver/Inc/stm32f3xx_ll_gpio.h ****   *         @arg @ref LL_GPIO_PIN_2
 479:Drivers/STM32F3xx_HAL_Driver/Inc/stm32f3xx_ll_gpio.h ****   *         @arg @ref LL_GPIO_PIN_3
 480:Drivers/STM32F3xx_HAL_Driver/Inc/stm32f3xx_ll_gpio.h ****   *         @arg @ref LL_GPIO_PIN_4
 481:Drivers/STM32F3xx_HAL_Driver/Inc/stm32f3xx_ll_gpio.h ****   *         @arg @ref LL_GPIO_PIN_5
 482:Drivers/STM32F3xx_HAL_Driver/Inc/stm32f3xx_ll_gpio.h ****   *         @arg @ref LL_GPIO_PIN_6
 483:Drivers/STM32F3xx_HAL_Driver/Inc/stm32f3xx_ll_gpio.h ****   *         @arg @ref LL_GPIO_PIN_7
 484:Drivers/STM32F3xx_HAL_Driver/Inc/stm32f3xx_ll_gpio.h ****   *         @arg @ref LL_GPIO_PIN_8
 485:Drivers/STM32F3xx_HAL_Driver/Inc/stm32f3xx_ll_gpio.h ****   *         @arg @ref LL_GPIO_PIN_9
 486:Drivers/STM32F3xx_HAL_Driver/Inc/stm32f3xx_ll_gpio.h ****   *         @arg @ref LL_GPIO_PIN_10
 487:Drivers/STM32F3xx_HAL_Driver/Inc/stm32f3xx_ll_gpio.h ****   *         @arg @ref LL_GPIO_PIN_11
 488:Drivers/STM32F3xx_HAL_Driver/Inc/stm32f3xx_ll_gpio.h ****   *         @arg @ref LL_GPIO_PIN_12
 489:Drivers/STM32F3xx_HAL_Driver/Inc/stm32f3xx_ll_gpio.h ****   *         @arg @ref LL_GPIO_PIN_13
 490:Drivers/STM32F3xx_HAL_Driver/Inc/stm32f3xx_ll_gpio.h ****   *         @arg @ref LL_GPIO_PIN_14
 491:Drivers/STM32F3xx_HAL_Driver/Inc/stm32f3xx_ll_gpio.h ****   *         @arg @ref LL_GPIO_PIN_15
 492:Drivers/STM32F3xx_HAL_Driver/Inc/stm32f3xx_ll_gpio.h ****   * @param  Pull This parameter can be one of the following values:
 493:Drivers/STM32F3xx_HAL_Driver/Inc/stm32f3xx_ll_gpio.h ****   *         @arg @ref LL_GPIO_PULL_NO
 494:Drivers/STM32F3xx_HAL_Driver/Inc/stm32f3xx_ll_gpio.h ****   *         @arg @ref LL_GPIO_PULL_UP
 495:Drivers/STM32F3xx_HAL_Driver/Inc/stm32f3xx_ll_gpio.h ****   *         @arg @ref LL_GPIO_PULL_DOWN
 496:Drivers/STM32F3xx_HAL_Driver/Inc/stm32f3xx_ll_gpio.h ****   * @retval None
 497:Drivers/STM32F3xx_HAL_Driver/Inc/stm32f3xx_ll_gpio.h ****   */
 498:Drivers/STM32F3xx_HAL_Driver/Inc/stm32f3xx_ll_gpio.h **** __STATIC_INLINE void LL_GPIO_SetPinPull(GPIO_TypeDef *GPIOx, uint32_t Pin, uint32_t Pull)
 499:Drivers/STM32F3xx_HAL_Driver/Inc/stm32f3xx_ll_gpio.h **** {
 500:Drivers/STM32F3xx_HAL_Driver/Inc/stm32f3xx_ll_gpio.h ****   MODIFY_REG(GPIOx->PUPDR, (GPIO_PUPDR_PUPDR0 << (POSITION_VAL(Pin) * 2U)), (Pull << (POSITION_VAL(
 501:Drivers/STM32F3xx_HAL_Driver/Inc/stm32f3xx_ll_gpio.h **** }
 502:Drivers/STM32F3xx_HAL_Driver/Inc/stm32f3xx_ll_gpio.h **** 
 503:Drivers/STM32F3xx_HAL_Driver/Inc/stm32f3xx_ll_gpio.h **** /**
 504:Drivers/STM32F3xx_HAL_Driver/Inc/stm32f3xx_ll_gpio.h ****   * @brief  Return gpio pull-up or pull-down for a dedicated pin on a dedicated port
 505:Drivers/STM32F3xx_HAL_Driver/Inc/stm32f3xx_ll_gpio.h ****   * @note   Warning: only one pin can be passed as parameter.
 506:Drivers/STM32F3xx_HAL_Driver/Inc/stm32f3xx_ll_gpio.h ****   * @rmtoll PUPDR        PUPDy         LL_GPIO_GetPinPull
 507:Drivers/STM32F3xx_HAL_Driver/Inc/stm32f3xx_ll_gpio.h ****   * @param  GPIOx GPIO Port
 508:Drivers/STM32F3xx_HAL_Driver/Inc/stm32f3xx_ll_gpio.h ****   * @param  Pin This parameter can be one of the following values:
 509:Drivers/STM32F3xx_HAL_Driver/Inc/stm32f3xx_ll_gpio.h ****   *         @arg @ref LL_GPIO_PIN_0
 510:Drivers/STM32F3xx_HAL_Driver/Inc/stm32f3xx_ll_gpio.h ****   *         @arg @ref LL_GPIO_PIN_1
 511:Drivers/STM32F3xx_HAL_Driver/Inc/stm32f3xx_ll_gpio.h ****   *         @arg @ref LL_GPIO_PIN_2
 512:Drivers/STM32F3xx_HAL_Driver/Inc/stm32f3xx_ll_gpio.h ****   *         @arg @ref LL_GPIO_PIN_3
 513:Drivers/STM32F3xx_HAL_Driver/Inc/stm32f3xx_ll_gpio.h ****   *         @arg @ref LL_GPIO_PIN_4
 514:Drivers/STM32F3xx_HAL_Driver/Inc/stm32f3xx_ll_gpio.h ****   *         @arg @ref LL_GPIO_PIN_5
 515:Drivers/STM32F3xx_HAL_Driver/Inc/stm32f3xx_ll_gpio.h ****   *         @arg @ref LL_GPIO_PIN_6
 516:Drivers/STM32F3xx_HAL_Driver/Inc/stm32f3xx_ll_gpio.h ****   *         @arg @ref LL_GPIO_PIN_7
 517:Drivers/STM32F3xx_HAL_Driver/Inc/stm32f3xx_ll_gpio.h ****   *         @arg @ref LL_GPIO_PIN_8
 518:Drivers/STM32F3xx_HAL_Driver/Inc/stm32f3xx_ll_gpio.h ****   *         @arg @ref LL_GPIO_PIN_9
 519:Drivers/STM32F3xx_HAL_Driver/Inc/stm32f3xx_ll_gpio.h ****   *         @arg @ref LL_GPIO_PIN_10
ARM GAS  /tmp/cc1L2lRe.s 			page 24


 520:Drivers/STM32F3xx_HAL_Driver/Inc/stm32f3xx_ll_gpio.h ****   *         @arg @ref LL_GPIO_PIN_11
 521:Drivers/STM32F3xx_HAL_Driver/Inc/stm32f3xx_ll_gpio.h ****   *         @arg @ref LL_GPIO_PIN_12
 522:Drivers/STM32F3xx_HAL_Driver/Inc/stm32f3xx_ll_gpio.h ****   *         @arg @ref LL_GPIO_PIN_13
 523:Drivers/STM32F3xx_HAL_Driver/Inc/stm32f3xx_ll_gpio.h ****   *         @arg @ref LL_GPIO_PIN_14
 524:Drivers/STM32F3xx_HAL_Driver/Inc/stm32f3xx_ll_gpio.h ****   *         @arg @ref LL_GPIO_PIN_15
 525:Drivers/STM32F3xx_HAL_Driver/Inc/stm32f3xx_ll_gpio.h ****   * @retval Returned value can be one of the following values:
 526:Drivers/STM32F3xx_HAL_Driver/Inc/stm32f3xx_ll_gpio.h ****   *         @arg @ref LL_GPIO_PULL_NO
 527:Drivers/STM32F3xx_HAL_Driver/Inc/stm32f3xx_ll_gpio.h ****   *         @arg @ref LL_GPIO_PULL_UP
 528:Drivers/STM32F3xx_HAL_Driver/Inc/stm32f3xx_ll_gpio.h ****   *         @arg @ref LL_GPIO_PULL_DOWN
 529:Drivers/STM32F3xx_HAL_Driver/Inc/stm32f3xx_ll_gpio.h ****   */
 530:Drivers/STM32F3xx_HAL_Driver/Inc/stm32f3xx_ll_gpio.h **** __STATIC_INLINE uint32_t LL_GPIO_GetPinPull(GPIO_TypeDef *GPIOx, uint32_t Pin)
 531:Drivers/STM32F3xx_HAL_Driver/Inc/stm32f3xx_ll_gpio.h **** {
 532:Drivers/STM32F3xx_HAL_Driver/Inc/stm32f3xx_ll_gpio.h ****   return (uint32_t)(READ_BIT(GPIOx->PUPDR,
 533:Drivers/STM32F3xx_HAL_Driver/Inc/stm32f3xx_ll_gpio.h ****                              (GPIO_PUPDR_PUPDR0 << (POSITION_VAL(Pin) * 2U))) >> (POSITION_VAL(Pin)
 534:Drivers/STM32F3xx_HAL_Driver/Inc/stm32f3xx_ll_gpio.h **** }
 535:Drivers/STM32F3xx_HAL_Driver/Inc/stm32f3xx_ll_gpio.h **** 
 536:Drivers/STM32F3xx_HAL_Driver/Inc/stm32f3xx_ll_gpio.h **** /**
 537:Drivers/STM32F3xx_HAL_Driver/Inc/stm32f3xx_ll_gpio.h ****   * @brief  Configure gpio alternate function of a dedicated pin from 0 to 7 for a dedicated port.
 538:Drivers/STM32F3xx_HAL_Driver/Inc/stm32f3xx_ll_gpio.h ****   * @note   Possible values are from AF0 to AF15 depending on target.
 539:Drivers/STM32F3xx_HAL_Driver/Inc/stm32f3xx_ll_gpio.h ****   * @note   Warning: only one pin can be passed as parameter.
 540:Drivers/STM32F3xx_HAL_Driver/Inc/stm32f3xx_ll_gpio.h ****   * @rmtoll AFRL         AFSELy        LL_GPIO_SetAFPin_0_7
 541:Drivers/STM32F3xx_HAL_Driver/Inc/stm32f3xx_ll_gpio.h ****   * @param  GPIOx GPIO Port
 542:Drivers/STM32F3xx_HAL_Driver/Inc/stm32f3xx_ll_gpio.h ****   * @param  Pin This parameter can be one of the following values:
 543:Drivers/STM32F3xx_HAL_Driver/Inc/stm32f3xx_ll_gpio.h ****   *         @arg @ref LL_GPIO_PIN_0
 544:Drivers/STM32F3xx_HAL_Driver/Inc/stm32f3xx_ll_gpio.h ****   *         @arg @ref LL_GPIO_PIN_1
 545:Drivers/STM32F3xx_HAL_Driver/Inc/stm32f3xx_ll_gpio.h ****   *         @arg @ref LL_GPIO_PIN_2
 546:Drivers/STM32F3xx_HAL_Driver/Inc/stm32f3xx_ll_gpio.h ****   *         @arg @ref LL_GPIO_PIN_3
 547:Drivers/STM32F3xx_HAL_Driver/Inc/stm32f3xx_ll_gpio.h ****   *         @arg @ref LL_GPIO_PIN_4
 548:Drivers/STM32F3xx_HAL_Driver/Inc/stm32f3xx_ll_gpio.h ****   *         @arg @ref LL_GPIO_PIN_5
 549:Drivers/STM32F3xx_HAL_Driver/Inc/stm32f3xx_ll_gpio.h ****   *         @arg @ref LL_GPIO_PIN_6
 550:Drivers/STM32F3xx_HAL_Driver/Inc/stm32f3xx_ll_gpio.h ****   *         @arg @ref LL_GPIO_PIN_7
 551:Drivers/STM32F3xx_HAL_Driver/Inc/stm32f3xx_ll_gpio.h ****   * @param  Alternate This parameter can be one of the following values:
 552:Drivers/STM32F3xx_HAL_Driver/Inc/stm32f3xx_ll_gpio.h ****   *         @arg @ref LL_GPIO_AF_0
 553:Drivers/STM32F3xx_HAL_Driver/Inc/stm32f3xx_ll_gpio.h ****   *         @arg @ref LL_GPIO_AF_1
 554:Drivers/STM32F3xx_HAL_Driver/Inc/stm32f3xx_ll_gpio.h ****   *         @arg @ref LL_GPIO_AF_2
 555:Drivers/STM32F3xx_HAL_Driver/Inc/stm32f3xx_ll_gpio.h ****   *         @arg @ref LL_GPIO_AF_3
 556:Drivers/STM32F3xx_HAL_Driver/Inc/stm32f3xx_ll_gpio.h ****   *         @arg @ref LL_GPIO_AF_4
 557:Drivers/STM32F3xx_HAL_Driver/Inc/stm32f3xx_ll_gpio.h ****   *         @arg @ref LL_GPIO_AF_5
 558:Drivers/STM32F3xx_HAL_Driver/Inc/stm32f3xx_ll_gpio.h ****   *         @arg @ref LL_GPIO_AF_6
 559:Drivers/STM32F3xx_HAL_Driver/Inc/stm32f3xx_ll_gpio.h ****   *         @arg @ref LL_GPIO_AF_7
 560:Drivers/STM32F3xx_HAL_Driver/Inc/stm32f3xx_ll_gpio.h ****   *         @arg @ref LL_GPIO_AF_8
 561:Drivers/STM32F3xx_HAL_Driver/Inc/stm32f3xx_ll_gpio.h ****   *         @arg @ref LL_GPIO_AF_9
 562:Drivers/STM32F3xx_HAL_Driver/Inc/stm32f3xx_ll_gpio.h ****   *         @arg @ref LL_GPIO_AF_10
 563:Drivers/STM32F3xx_HAL_Driver/Inc/stm32f3xx_ll_gpio.h ****   *         @arg @ref LL_GPIO_AF_11
 564:Drivers/STM32F3xx_HAL_Driver/Inc/stm32f3xx_ll_gpio.h ****   *         @arg @ref LL_GPIO_AF_12
 565:Drivers/STM32F3xx_HAL_Driver/Inc/stm32f3xx_ll_gpio.h ****   *         @arg @ref LL_GPIO_AF_13
 566:Drivers/STM32F3xx_HAL_Driver/Inc/stm32f3xx_ll_gpio.h ****   *         @arg @ref LL_GPIO_AF_14
 567:Drivers/STM32F3xx_HAL_Driver/Inc/stm32f3xx_ll_gpio.h ****   *         @arg @ref LL_GPIO_AF_15
 568:Drivers/STM32F3xx_HAL_Driver/Inc/stm32f3xx_ll_gpio.h ****   * @retval None
 569:Drivers/STM32F3xx_HAL_Driver/Inc/stm32f3xx_ll_gpio.h ****   */
 570:Drivers/STM32F3xx_HAL_Driver/Inc/stm32f3xx_ll_gpio.h **** __STATIC_INLINE void LL_GPIO_SetAFPin_0_7(GPIO_TypeDef *GPIOx, uint32_t Pin, uint32_t Alternate)
 571:Drivers/STM32F3xx_HAL_Driver/Inc/stm32f3xx_ll_gpio.h **** {
 572:Drivers/STM32F3xx_HAL_Driver/Inc/stm32f3xx_ll_gpio.h ****   MODIFY_REG(GPIOx->AFR[0], (GPIO_AFRL_AFRL0 << (POSITION_VAL(Pin) * 4U)),
 573:Drivers/STM32F3xx_HAL_Driver/Inc/stm32f3xx_ll_gpio.h ****              (Alternate << (POSITION_VAL(Pin) * 4U)));
 574:Drivers/STM32F3xx_HAL_Driver/Inc/stm32f3xx_ll_gpio.h **** }
 575:Drivers/STM32F3xx_HAL_Driver/Inc/stm32f3xx_ll_gpio.h **** 
 576:Drivers/STM32F3xx_HAL_Driver/Inc/stm32f3xx_ll_gpio.h **** /**
ARM GAS  /tmp/cc1L2lRe.s 			page 25


 577:Drivers/STM32F3xx_HAL_Driver/Inc/stm32f3xx_ll_gpio.h ****   * @brief  Return gpio alternate function of a dedicated pin from 0 to 7 for a dedicated port.
 578:Drivers/STM32F3xx_HAL_Driver/Inc/stm32f3xx_ll_gpio.h ****   * @rmtoll AFRL         AFSELy        LL_GPIO_GetAFPin_0_7
 579:Drivers/STM32F3xx_HAL_Driver/Inc/stm32f3xx_ll_gpio.h ****   * @param  GPIOx GPIO Port
 580:Drivers/STM32F3xx_HAL_Driver/Inc/stm32f3xx_ll_gpio.h ****   * @param  Pin This parameter can be one of the following values:
 581:Drivers/STM32F3xx_HAL_Driver/Inc/stm32f3xx_ll_gpio.h ****   *         @arg @ref LL_GPIO_PIN_0
 582:Drivers/STM32F3xx_HAL_Driver/Inc/stm32f3xx_ll_gpio.h ****   *         @arg @ref LL_GPIO_PIN_1
 583:Drivers/STM32F3xx_HAL_Driver/Inc/stm32f3xx_ll_gpio.h ****   *         @arg @ref LL_GPIO_PIN_2
 584:Drivers/STM32F3xx_HAL_Driver/Inc/stm32f3xx_ll_gpio.h ****   *         @arg @ref LL_GPIO_PIN_3
 585:Drivers/STM32F3xx_HAL_Driver/Inc/stm32f3xx_ll_gpio.h ****   *         @arg @ref LL_GPIO_PIN_4
 586:Drivers/STM32F3xx_HAL_Driver/Inc/stm32f3xx_ll_gpio.h ****   *         @arg @ref LL_GPIO_PIN_5
 587:Drivers/STM32F3xx_HAL_Driver/Inc/stm32f3xx_ll_gpio.h ****   *         @arg @ref LL_GPIO_PIN_6
 588:Drivers/STM32F3xx_HAL_Driver/Inc/stm32f3xx_ll_gpio.h ****   *         @arg @ref LL_GPIO_PIN_7
 589:Drivers/STM32F3xx_HAL_Driver/Inc/stm32f3xx_ll_gpio.h ****   * @retval Returned value can be one of the following values:
 590:Drivers/STM32F3xx_HAL_Driver/Inc/stm32f3xx_ll_gpio.h ****   *         @arg @ref LL_GPIO_AF_0
 591:Drivers/STM32F3xx_HAL_Driver/Inc/stm32f3xx_ll_gpio.h ****   *         @arg @ref LL_GPIO_AF_1
 592:Drivers/STM32F3xx_HAL_Driver/Inc/stm32f3xx_ll_gpio.h ****   *         @arg @ref LL_GPIO_AF_2
 593:Drivers/STM32F3xx_HAL_Driver/Inc/stm32f3xx_ll_gpio.h ****   *         @arg @ref LL_GPIO_AF_3
 594:Drivers/STM32F3xx_HAL_Driver/Inc/stm32f3xx_ll_gpio.h ****   *         @arg @ref LL_GPIO_AF_4
 595:Drivers/STM32F3xx_HAL_Driver/Inc/stm32f3xx_ll_gpio.h ****   *         @arg @ref LL_GPIO_AF_5
 596:Drivers/STM32F3xx_HAL_Driver/Inc/stm32f3xx_ll_gpio.h ****   *         @arg @ref LL_GPIO_AF_6
 597:Drivers/STM32F3xx_HAL_Driver/Inc/stm32f3xx_ll_gpio.h ****   *         @arg @ref LL_GPIO_AF_7
 598:Drivers/STM32F3xx_HAL_Driver/Inc/stm32f3xx_ll_gpio.h ****   *         @arg @ref LL_GPIO_AF_8
 599:Drivers/STM32F3xx_HAL_Driver/Inc/stm32f3xx_ll_gpio.h ****   *         @arg @ref LL_GPIO_AF_9
 600:Drivers/STM32F3xx_HAL_Driver/Inc/stm32f3xx_ll_gpio.h ****   *         @arg @ref LL_GPIO_AF_10
 601:Drivers/STM32F3xx_HAL_Driver/Inc/stm32f3xx_ll_gpio.h ****   *         @arg @ref LL_GPIO_AF_11
 602:Drivers/STM32F3xx_HAL_Driver/Inc/stm32f3xx_ll_gpio.h ****   *         @arg @ref LL_GPIO_AF_12
 603:Drivers/STM32F3xx_HAL_Driver/Inc/stm32f3xx_ll_gpio.h ****   *         @arg @ref LL_GPIO_AF_13
 604:Drivers/STM32F3xx_HAL_Driver/Inc/stm32f3xx_ll_gpio.h ****   *         @arg @ref LL_GPIO_AF_14
 605:Drivers/STM32F3xx_HAL_Driver/Inc/stm32f3xx_ll_gpio.h ****   *         @arg @ref LL_GPIO_AF_15
 606:Drivers/STM32F3xx_HAL_Driver/Inc/stm32f3xx_ll_gpio.h ****   */
 607:Drivers/STM32F3xx_HAL_Driver/Inc/stm32f3xx_ll_gpio.h **** __STATIC_INLINE uint32_t LL_GPIO_GetAFPin_0_7(GPIO_TypeDef *GPIOx, uint32_t Pin)
 608:Drivers/STM32F3xx_HAL_Driver/Inc/stm32f3xx_ll_gpio.h **** {
 609:Drivers/STM32F3xx_HAL_Driver/Inc/stm32f3xx_ll_gpio.h ****   return (uint32_t)(READ_BIT(GPIOx->AFR[0],
 610:Drivers/STM32F3xx_HAL_Driver/Inc/stm32f3xx_ll_gpio.h ****                              (GPIO_AFRL_AFRL0 << (POSITION_VAL(Pin) * 4U))) >> (POSITION_VAL(Pin) *
 611:Drivers/STM32F3xx_HAL_Driver/Inc/stm32f3xx_ll_gpio.h **** }
 612:Drivers/STM32F3xx_HAL_Driver/Inc/stm32f3xx_ll_gpio.h **** 
 613:Drivers/STM32F3xx_HAL_Driver/Inc/stm32f3xx_ll_gpio.h **** /**
 614:Drivers/STM32F3xx_HAL_Driver/Inc/stm32f3xx_ll_gpio.h ****   * @brief  Configure gpio alternate function of a dedicated pin from 8 to 15 for a dedicated port.
 615:Drivers/STM32F3xx_HAL_Driver/Inc/stm32f3xx_ll_gpio.h ****   * @note   Possible values are from AF0 to AF15 depending on target.
 616:Drivers/STM32F3xx_HAL_Driver/Inc/stm32f3xx_ll_gpio.h ****   * @note   Warning: only one pin can be passed as parameter.
 617:Drivers/STM32F3xx_HAL_Driver/Inc/stm32f3xx_ll_gpio.h ****   * @rmtoll AFRH         AFSELy        LL_GPIO_SetAFPin_8_15
 618:Drivers/STM32F3xx_HAL_Driver/Inc/stm32f3xx_ll_gpio.h ****   * @param  GPIOx GPIO Port
 619:Drivers/STM32F3xx_HAL_Driver/Inc/stm32f3xx_ll_gpio.h ****   * @param  Pin This parameter can be one of the following values:
 620:Drivers/STM32F3xx_HAL_Driver/Inc/stm32f3xx_ll_gpio.h ****   *         @arg @ref LL_GPIO_PIN_8
 621:Drivers/STM32F3xx_HAL_Driver/Inc/stm32f3xx_ll_gpio.h ****   *         @arg @ref LL_GPIO_PIN_9
 622:Drivers/STM32F3xx_HAL_Driver/Inc/stm32f3xx_ll_gpio.h ****   *         @arg @ref LL_GPIO_PIN_10
 623:Drivers/STM32F3xx_HAL_Driver/Inc/stm32f3xx_ll_gpio.h ****   *         @arg @ref LL_GPIO_PIN_11
 624:Drivers/STM32F3xx_HAL_Driver/Inc/stm32f3xx_ll_gpio.h ****   *         @arg @ref LL_GPIO_PIN_12
 625:Drivers/STM32F3xx_HAL_Driver/Inc/stm32f3xx_ll_gpio.h ****   *         @arg @ref LL_GPIO_PIN_13
 626:Drivers/STM32F3xx_HAL_Driver/Inc/stm32f3xx_ll_gpio.h ****   *         @arg @ref LL_GPIO_PIN_14
 627:Drivers/STM32F3xx_HAL_Driver/Inc/stm32f3xx_ll_gpio.h ****   *         @arg @ref LL_GPIO_PIN_15
 628:Drivers/STM32F3xx_HAL_Driver/Inc/stm32f3xx_ll_gpio.h ****   * @param  Alternate This parameter can be one of the following values:
 629:Drivers/STM32F3xx_HAL_Driver/Inc/stm32f3xx_ll_gpio.h ****   *         @arg @ref LL_GPIO_AF_0
 630:Drivers/STM32F3xx_HAL_Driver/Inc/stm32f3xx_ll_gpio.h ****   *         @arg @ref LL_GPIO_AF_1
 631:Drivers/STM32F3xx_HAL_Driver/Inc/stm32f3xx_ll_gpio.h ****   *         @arg @ref LL_GPIO_AF_2
 632:Drivers/STM32F3xx_HAL_Driver/Inc/stm32f3xx_ll_gpio.h ****   *         @arg @ref LL_GPIO_AF_3
 633:Drivers/STM32F3xx_HAL_Driver/Inc/stm32f3xx_ll_gpio.h ****   *         @arg @ref LL_GPIO_AF_4
ARM GAS  /tmp/cc1L2lRe.s 			page 26


 634:Drivers/STM32F3xx_HAL_Driver/Inc/stm32f3xx_ll_gpio.h ****   *         @arg @ref LL_GPIO_AF_5
 635:Drivers/STM32F3xx_HAL_Driver/Inc/stm32f3xx_ll_gpio.h ****   *         @arg @ref LL_GPIO_AF_6
 636:Drivers/STM32F3xx_HAL_Driver/Inc/stm32f3xx_ll_gpio.h ****   *         @arg @ref LL_GPIO_AF_7
 637:Drivers/STM32F3xx_HAL_Driver/Inc/stm32f3xx_ll_gpio.h ****   *         @arg @ref LL_GPIO_AF_8
 638:Drivers/STM32F3xx_HAL_Driver/Inc/stm32f3xx_ll_gpio.h ****   *         @arg @ref LL_GPIO_AF_9
 639:Drivers/STM32F3xx_HAL_Driver/Inc/stm32f3xx_ll_gpio.h ****   *         @arg @ref LL_GPIO_AF_10
 640:Drivers/STM32F3xx_HAL_Driver/Inc/stm32f3xx_ll_gpio.h ****   *         @arg @ref LL_GPIO_AF_11
 641:Drivers/STM32F3xx_HAL_Driver/Inc/stm32f3xx_ll_gpio.h ****   *         @arg @ref LL_GPIO_AF_12
 642:Drivers/STM32F3xx_HAL_Driver/Inc/stm32f3xx_ll_gpio.h ****   *         @arg @ref LL_GPIO_AF_13
 643:Drivers/STM32F3xx_HAL_Driver/Inc/stm32f3xx_ll_gpio.h ****   *         @arg @ref LL_GPIO_AF_14
 644:Drivers/STM32F3xx_HAL_Driver/Inc/stm32f3xx_ll_gpio.h ****   *         @arg @ref LL_GPIO_AF_15
 645:Drivers/STM32F3xx_HAL_Driver/Inc/stm32f3xx_ll_gpio.h ****   * @retval None
 646:Drivers/STM32F3xx_HAL_Driver/Inc/stm32f3xx_ll_gpio.h ****   */
 647:Drivers/STM32F3xx_HAL_Driver/Inc/stm32f3xx_ll_gpio.h **** __STATIC_INLINE void LL_GPIO_SetAFPin_8_15(GPIO_TypeDef *GPIOx, uint32_t Pin, uint32_t Alternate)
 648:Drivers/STM32F3xx_HAL_Driver/Inc/stm32f3xx_ll_gpio.h **** {
 649:Drivers/STM32F3xx_HAL_Driver/Inc/stm32f3xx_ll_gpio.h ****   MODIFY_REG(GPIOx->AFR[1], (GPIO_AFRH_AFRH0 << (POSITION_VAL(Pin >> 8U) * 4U)),
 650:Drivers/STM32F3xx_HAL_Driver/Inc/stm32f3xx_ll_gpio.h ****              (Alternate << (POSITION_VAL(Pin >> 8U) * 4U)));
 651:Drivers/STM32F3xx_HAL_Driver/Inc/stm32f3xx_ll_gpio.h **** }
 652:Drivers/STM32F3xx_HAL_Driver/Inc/stm32f3xx_ll_gpio.h **** 
 653:Drivers/STM32F3xx_HAL_Driver/Inc/stm32f3xx_ll_gpio.h **** /**
 654:Drivers/STM32F3xx_HAL_Driver/Inc/stm32f3xx_ll_gpio.h ****   * @brief  Return gpio alternate function of a dedicated pin from 8 to 15 for a dedicated port.
 655:Drivers/STM32F3xx_HAL_Driver/Inc/stm32f3xx_ll_gpio.h ****   * @note   Possible values are from AF0 to AF15 depending on target.
 656:Drivers/STM32F3xx_HAL_Driver/Inc/stm32f3xx_ll_gpio.h ****   * @rmtoll AFRH         AFSELy        LL_GPIO_GetAFPin_8_15
 657:Drivers/STM32F3xx_HAL_Driver/Inc/stm32f3xx_ll_gpio.h ****   * @param  GPIOx GPIO Port
 658:Drivers/STM32F3xx_HAL_Driver/Inc/stm32f3xx_ll_gpio.h ****   * @param  Pin This parameter can be one of the following values:
 659:Drivers/STM32F3xx_HAL_Driver/Inc/stm32f3xx_ll_gpio.h ****   *         @arg @ref LL_GPIO_PIN_8
 660:Drivers/STM32F3xx_HAL_Driver/Inc/stm32f3xx_ll_gpio.h ****   *         @arg @ref LL_GPIO_PIN_9
 661:Drivers/STM32F3xx_HAL_Driver/Inc/stm32f3xx_ll_gpio.h ****   *         @arg @ref LL_GPIO_PIN_10
 662:Drivers/STM32F3xx_HAL_Driver/Inc/stm32f3xx_ll_gpio.h ****   *         @arg @ref LL_GPIO_PIN_11
 663:Drivers/STM32F3xx_HAL_Driver/Inc/stm32f3xx_ll_gpio.h ****   *         @arg @ref LL_GPIO_PIN_12
 664:Drivers/STM32F3xx_HAL_Driver/Inc/stm32f3xx_ll_gpio.h ****   *         @arg @ref LL_GPIO_PIN_13
 665:Drivers/STM32F3xx_HAL_Driver/Inc/stm32f3xx_ll_gpio.h ****   *         @arg @ref LL_GPIO_PIN_14
 666:Drivers/STM32F3xx_HAL_Driver/Inc/stm32f3xx_ll_gpio.h ****   *         @arg @ref LL_GPIO_PIN_15
 667:Drivers/STM32F3xx_HAL_Driver/Inc/stm32f3xx_ll_gpio.h ****   * @retval Returned value can be one of the following values:
 668:Drivers/STM32F3xx_HAL_Driver/Inc/stm32f3xx_ll_gpio.h ****   *         @arg @ref LL_GPIO_AF_0
 669:Drivers/STM32F3xx_HAL_Driver/Inc/stm32f3xx_ll_gpio.h ****   *         @arg @ref LL_GPIO_AF_1
 670:Drivers/STM32F3xx_HAL_Driver/Inc/stm32f3xx_ll_gpio.h ****   *         @arg @ref LL_GPIO_AF_2
 671:Drivers/STM32F3xx_HAL_Driver/Inc/stm32f3xx_ll_gpio.h ****   *         @arg @ref LL_GPIO_AF_3
 672:Drivers/STM32F3xx_HAL_Driver/Inc/stm32f3xx_ll_gpio.h ****   *         @arg @ref LL_GPIO_AF_4
 673:Drivers/STM32F3xx_HAL_Driver/Inc/stm32f3xx_ll_gpio.h ****   *         @arg @ref LL_GPIO_AF_5
 674:Drivers/STM32F3xx_HAL_Driver/Inc/stm32f3xx_ll_gpio.h ****   *         @arg @ref LL_GPIO_AF_6
 675:Drivers/STM32F3xx_HAL_Driver/Inc/stm32f3xx_ll_gpio.h ****   *         @arg @ref LL_GPIO_AF_7
 676:Drivers/STM32F3xx_HAL_Driver/Inc/stm32f3xx_ll_gpio.h ****   *         @arg @ref LL_GPIO_AF_8
 677:Drivers/STM32F3xx_HAL_Driver/Inc/stm32f3xx_ll_gpio.h ****   *         @arg @ref LL_GPIO_AF_9
 678:Drivers/STM32F3xx_HAL_Driver/Inc/stm32f3xx_ll_gpio.h ****   *         @arg @ref LL_GPIO_AF_10
 679:Drivers/STM32F3xx_HAL_Driver/Inc/stm32f3xx_ll_gpio.h ****   *         @arg @ref LL_GPIO_AF_11
 680:Drivers/STM32F3xx_HAL_Driver/Inc/stm32f3xx_ll_gpio.h ****   *         @arg @ref LL_GPIO_AF_12
 681:Drivers/STM32F3xx_HAL_Driver/Inc/stm32f3xx_ll_gpio.h ****   *         @arg @ref LL_GPIO_AF_13
 682:Drivers/STM32F3xx_HAL_Driver/Inc/stm32f3xx_ll_gpio.h ****   *         @arg @ref LL_GPIO_AF_14
 683:Drivers/STM32F3xx_HAL_Driver/Inc/stm32f3xx_ll_gpio.h ****   *         @arg @ref LL_GPIO_AF_15
 684:Drivers/STM32F3xx_HAL_Driver/Inc/stm32f3xx_ll_gpio.h ****   */
 685:Drivers/STM32F3xx_HAL_Driver/Inc/stm32f3xx_ll_gpio.h **** __STATIC_INLINE uint32_t LL_GPIO_GetAFPin_8_15(GPIO_TypeDef *GPIOx, uint32_t Pin)
 686:Drivers/STM32F3xx_HAL_Driver/Inc/stm32f3xx_ll_gpio.h **** {
 687:Drivers/STM32F3xx_HAL_Driver/Inc/stm32f3xx_ll_gpio.h ****   return (uint32_t)(READ_BIT(GPIOx->AFR[1],
 688:Drivers/STM32F3xx_HAL_Driver/Inc/stm32f3xx_ll_gpio.h ****                              (GPIO_AFRH_AFRH0 << (POSITION_VAL(Pin >> 8U) * 4U))) >> (POSITION_VAL(
 689:Drivers/STM32F3xx_HAL_Driver/Inc/stm32f3xx_ll_gpio.h **** }
 690:Drivers/STM32F3xx_HAL_Driver/Inc/stm32f3xx_ll_gpio.h **** 
ARM GAS  /tmp/cc1L2lRe.s 			page 27


 691:Drivers/STM32F3xx_HAL_Driver/Inc/stm32f3xx_ll_gpio.h **** 
 692:Drivers/STM32F3xx_HAL_Driver/Inc/stm32f3xx_ll_gpio.h **** /**
 693:Drivers/STM32F3xx_HAL_Driver/Inc/stm32f3xx_ll_gpio.h ****   * @brief  Lock configuration of several pins for a dedicated port.
 694:Drivers/STM32F3xx_HAL_Driver/Inc/stm32f3xx_ll_gpio.h ****   * @note   When the lock sequence has been applied on a port bit, the
 695:Drivers/STM32F3xx_HAL_Driver/Inc/stm32f3xx_ll_gpio.h ****   *         value of this port bit can no longer be modified until the
 696:Drivers/STM32F3xx_HAL_Driver/Inc/stm32f3xx_ll_gpio.h ****   *         next reset.
 697:Drivers/STM32F3xx_HAL_Driver/Inc/stm32f3xx_ll_gpio.h ****   * @note   Each lock bit freezes a specific configuration register
 698:Drivers/STM32F3xx_HAL_Driver/Inc/stm32f3xx_ll_gpio.h ****   *         (control and alternate function registers).
 699:Drivers/STM32F3xx_HAL_Driver/Inc/stm32f3xx_ll_gpio.h ****   * @rmtoll LCKR         LCKK          LL_GPIO_LockPin
 700:Drivers/STM32F3xx_HAL_Driver/Inc/stm32f3xx_ll_gpio.h ****   * @param  GPIOx GPIO Port
 701:Drivers/STM32F3xx_HAL_Driver/Inc/stm32f3xx_ll_gpio.h ****   * @param  PinMask This parameter can be a combination of the following values:
 702:Drivers/STM32F3xx_HAL_Driver/Inc/stm32f3xx_ll_gpio.h ****   *         @arg @ref LL_GPIO_PIN_0
 703:Drivers/STM32F3xx_HAL_Driver/Inc/stm32f3xx_ll_gpio.h ****   *         @arg @ref LL_GPIO_PIN_1
 704:Drivers/STM32F3xx_HAL_Driver/Inc/stm32f3xx_ll_gpio.h ****   *         @arg @ref LL_GPIO_PIN_2
 705:Drivers/STM32F3xx_HAL_Driver/Inc/stm32f3xx_ll_gpio.h ****   *         @arg @ref LL_GPIO_PIN_3
 706:Drivers/STM32F3xx_HAL_Driver/Inc/stm32f3xx_ll_gpio.h ****   *         @arg @ref LL_GPIO_PIN_4
 707:Drivers/STM32F3xx_HAL_Driver/Inc/stm32f3xx_ll_gpio.h ****   *         @arg @ref LL_GPIO_PIN_5
 708:Drivers/STM32F3xx_HAL_Driver/Inc/stm32f3xx_ll_gpio.h ****   *         @arg @ref LL_GPIO_PIN_6
 709:Drivers/STM32F3xx_HAL_Driver/Inc/stm32f3xx_ll_gpio.h ****   *         @arg @ref LL_GPIO_PIN_7
 710:Drivers/STM32F3xx_HAL_Driver/Inc/stm32f3xx_ll_gpio.h ****   *         @arg @ref LL_GPIO_PIN_8
 711:Drivers/STM32F3xx_HAL_Driver/Inc/stm32f3xx_ll_gpio.h ****   *         @arg @ref LL_GPIO_PIN_9
 712:Drivers/STM32F3xx_HAL_Driver/Inc/stm32f3xx_ll_gpio.h ****   *         @arg @ref LL_GPIO_PIN_10
 713:Drivers/STM32F3xx_HAL_Driver/Inc/stm32f3xx_ll_gpio.h ****   *         @arg @ref LL_GPIO_PIN_11
 714:Drivers/STM32F3xx_HAL_Driver/Inc/stm32f3xx_ll_gpio.h ****   *         @arg @ref LL_GPIO_PIN_12
 715:Drivers/STM32F3xx_HAL_Driver/Inc/stm32f3xx_ll_gpio.h ****   *         @arg @ref LL_GPIO_PIN_13
 716:Drivers/STM32F3xx_HAL_Driver/Inc/stm32f3xx_ll_gpio.h ****   *         @arg @ref LL_GPIO_PIN_14
 717:Drivers/STM32F3xx_HAL_Driver/Inc/stm32f3xx_ll_gpio.h ****   *         @arg @ref LL_GPIO_PIN_15
 718:Drivers/STM32F3xx_HAL_Driver/Inc/stm32f3xx_ll_gpio.h ****   *         @arg @ref LL_GPIO_PIN_ALL
 719:Drivers/STM32F3xx_HAL_Driver/Inc/stm32f3xx_ll_gpio.h ****   * @retval None
 720:Drivers/STM32F3xx_HAL_Driver/Inc/stm32f3xx_ll_gpio.h ****   */
 721:Drivers/STM32F3xx_HAL_Driver/Inc/stm32f3xx_ll_gpio.h **** __STATIC_INLINE void LL_GPIO_LockPin(GPIO_TypeDef *GPIOx, uint32_t PinMask)
 722:Drivers/STM32F3xx_HAL_Driver/Inc/stm32f3xx_ll_gpio.h **** {
 723:Drivers/STM32F3xx_HAL_Driver/Inc/stm32f3xx_ll_gpio.h ****   __IO uint32_t temp;
 724:Drivers/STM32F3xx_HAL_Driver/Inc/stm32f3xx_ll_gpio.h ****   WRITE_REG(GPIOx->LCKR, GPIO_LCKR_LCKK | PinMask);
 725:Drivers/STM32F3xx_HAL_Driver/Inc/stm32f3xx_ll_gpio.h ****   WRITE_REG(GPIOx->LCKR, PinMask);
 726:Drivers/STM32F3xx_HAL_Driver/Inc/stm32f3xx_ll_gpio.h ****   WRITE_REG(GPIOx->LCKR, GPIO_LCKR_LCKK | PinMask);
 727:Drivers/STM32F3xx_HAL_Driver/Inc/stm32f3xx_ll_gpio.h ****   temp = READ_REG(GPIOx->LCKR);
 728:Drivers/STM32F3xx_HAL_Driver/Inc/stm32f3xx_ll_gpio.h ****   (void) temp;
 729:Drivers/STM32F3xx_HAL_Driver/Inc/stm32f3xx_ll_gpio.h **** }
 730:Drivers/STM32F3xx_HAL_Driver/Inc/stm32f3xx_ll_gpio.h **** 
 731:Drivers/STM32F3xx_HAL_Driver/Inc/stm32f3xx_ll_gpio.h **** /**
 732:Drivers/STM32F3xx_HAL_Driver/Inc/stm32f3xx_ll_gpio.h ****   * @brief  Return 1 if all pins passed as parameter, of a dedicated port, are locked. else Return 
 733:Drivers/STM32F3xx_HAL_Driver/Inc/stm32f3xx_ll_gpio.h ****   * @rmtoll LCKR         LCKy          LL_GPIO_IsPinLocked
 734:Drivers/STM32F3xx_HAL_Driver/Inc/stm32f3xx_ll_gpio.h ****   * @param  GPIOx GPIO Port
 735:Drivers/STM32F3xx_HAL_Driver/Inc/stm32f3xx_ll_gpio.h ****   * @param  PinMask This parameter can be a combination of the following values:
 736:Drivers/STM32F3xx_HAL_Driver/Inc/stm32f3xx_ll_gpio.h ****   *         @arg @ref LL_GPIO_PIN_0
 737:Drivers/STM32F3xx_HAL_Driver/Inc/stm32f3xx_ll_gpio.h ****   *         @arg @ref LL_GPIO_PIN_1
 738:Drivers/STM32F3xx_HAL_Driver/Inc/stm32f3xx_ll_gpio.h ****   *         @arg @ref LL_GPIO_PIN_2
 739:Drivers/STM32F3xx_HAL_Driver/Inc/stm32f3xx_ll_gpio.h ****   *         @arg @ref LL_GPIO_PIN_3
 740:Drivers/STM32F3xx_HAL_Driver/Inc/stm32f3xx_ll_gpio.h ****   *         @arg @ref LL_GPIO_PIN_4
 741:Drivers/STM32F3xx_HAL_Driver/Inc/stm32f3xx_ll_gpio.h ****   *         @arg @ref LL_GPIO_PIN_5
 742:Drivers/STM32F3xx_HAL_Driver/Inc/stm32f3xx_ll_gpio.h ****   *         @arg @ref LL_GPIO_PIN_6
 743:Drivers/STM32F3xx_HAL_Driver/Inc/stm32f3xx_ll_gpio.h ****   *         @arg @ref LL_GPIO_PIN_7
 744:Drivers/STM32F3xx_HAL_Driver/Inc/stm32f3xx_ll_gpio.h ****   *         @arg @ref LL_GPIO_PIN_8
 745:Drivers/STM32F3xx_HAL_Driver/Inc/stm32f3xx_ll_gpio.h ****   *         @arg @ref LL_GPIO_PIN_9
 746:Drivers/STM32F3xx_HAL_Driver/Inc/stm32f3xx_ll_gpio.h ****   *         @arg @ref LL_GPIO_PIN_10
 747:Drivers/STM32F3xx_HAL_Driver/Inc/stm32f3xx_ll_gpio.h ****   *         @arg @ref LL_GPIO_PIN_11
ARM GAS  /tmp/cc1L2lRe.s 			page 28


 748:Drivers/STM32F3xx_HAL_Driver/Inc/stm32f3xx_ll_gpio.h ****   *         @arg @ref LL_GPIO_PIN_12
 749:Drivers/STM32F3xx_HAL_Driver/Inc/stm32f3xx_ll_gpio.h ****   *         @arg @ref LL_GPIO_PIN_13
 750:Drivers/STM32F3xx_HAL_Driver/Inc/stm32f3xx_ll_gpio.h ****   *         @arg @ref LL_GPIO_PIN_14
 751:Drivers/STM32F3xx_HAL_Driver/Inc/stm32f3xx_ll_gpio.h ****   *         @arg @ref LL_GPIO_PIN_15
 752:Drivers/STM32F3xx_HAL_Driver/Inc/stm32f3xx_ll_gpio.h ****   *         @arg @ref LL_GPIO_PIN_ALL
 753:Drivers/STM32F3xx_HAL_Driver/Inc/stm32f3xx_ll_gpio.h ****   * @retval State of bit (1 or 0).
 754:Drivers/STM32F3xx_HAL_Driver/Inc/stm32f3xx_ll_gpio.h ****   */
 755:Drivers/STM32F3xx_HAL_Driver/Inc/stm32f3xx_ll_gpio.h **** __STATIC_INLINE uint32_t LL_GPIO_IsPinLocked(GPIO_TypeDef *GPIOx, uint32_t PinMask)
 756:Drivers/STM32F3xx_HAL_Driver/Inc/stm32f3xx_ll_gpio.h **** {
 757:Drivers/STM32F3xx_HAL_Driver/Inc/stm32f3xx_ll_gpio.h ****   return (READ_BIT(GPIOx->LCKR, PinMask) == (PinMask));
 758:Drivers/STM32F3xx_HAL_Driver/Inc/stm32f3xx_ll_gpio.h **** }
 759:Drivers/STM32F3xx_HAL_Driver/Inc/stm32f3xx_ll_gpio.h **** 
 760:Drivers/STM32F3xx_HAL_Driver/Inc/stm32f3xx_ll_gpio.h **** /**
 761:Drivers/STM32F3xx_HAL_Driver/Inc/stm32f3xx_ll_gpio.h ****   * @brief  Return 1 if one of the pin of a dedicated port is locked. else return 0.
 762:Drivers/STM32F3xx_HAL_Driver/Inc/stm32f3xx_ll_gpio.h ****   * @rmtoll LCKR         LCKK          LL_GPIO_IsAnyPinLocked
 763:Drivers/STM32F3xx_HAL_Driver/Inc/stm32f3xx_ll_gpio.h ****   * @param  GPIOx GPIO Port
 764:Drivers/STM32F3xx_HAL_Driver/Inc/stm32f3xx_ll_gpio.h ****   * @retval State of bit (1 or 0).
 765:Drivers/STM32F3xx_HAL_Driver/Inc/stm32f3xx_ll_gpio.h ****   */
 766:Drivers/STM32F3xx_HAL_Driver/Inc/stm32f3xx_ll_gpio.h **** __STATIC_INLINE uint32_t LL_GPIO_IsAnyPinLocked(GPIO_TypeDef *GPIOx)
 767:Drivers/STM32F3xx_HAL_Driver/Inc/stm32f3xx_ll_gpio.h **** {
 768:Drivers/STM32F3xx_HAL_Driver/Inc/stm32f3xx_ll_gpio.h ****   return (READ_BIT(GPIOx->LCKR, GPIO_LCKR_LCKK) == (GPIO_LCKR_LCKK));
 769:Drivers/STM32F3xx_HAL_Driver/Inc/stm32f3xx_ll_gpio.h **** }
 770:Drivers/STM32F3xx_HAL_Driver/Inc/stm32f3xx_ll_gpio.h **** 
 771:Drivers/STM32F3xx_HAL_Driver/Inc/stm32f3xx_ll_gpio.h **** /**
 772:Drivers/STM32F3xx_HAL_Driver/Inc/stm32f3xx_ll_gpio.h ****   * @}
 773:Drivers/STM32F3xx_HAL_Driver/Inc/stm32f3xx_ll_gpio.h ****   */
 774:Drivers/STM32F3xx_HAL_Driver/Inc/stm32f3xx_ll_gpio.h **** 
 775:Drivers/STM32F3xx_HAL_Driver/Inc/stm32f3xx_ll_gpio.h **** /** @defgroup GPIO_LL_EF_Data_Access Data Access
 776:Drivers/STM32F3xx_HAL_Driver/Inc/stm32f3xx_ll_gpio.h ****   * @{
 777:Drivers/STM32F3xx_HAL_Driver/Inc/stm32f3xx_ll_gpio.h ****   */
 778:Drivers/STM32F3xx_HAL_Driver/Inc/stm32f3xx_ll_gpio.h **** 
 779:Drivers/STM32F3xx_HAL_Driver/Inc/stm32f3xx_ll_gpio.h **** /**
 780:Drivers/STM32F3xx_HAL_Driver/Inc/stm32f3xx_ll_gpio.h ****   * @brief  Return full input data register value for a dedicated port.
 781:Drivers/STM32F3xx_HAL_Driver/Inc/stm32f3xx_ll_gpio.h ****   * @rmtoll IDR          IDy           LL_GPIO_ReadInputPort
 782:Drivers/STM32F3xx_HAL_Driver/Inc/stm32f3xx_ll_gpio.h ****   * @param  GPIOx GPIO Port
 783:Drivers/STM32F3xx_HAL_Driver/Inc/stm32f3xx_ll_gpio.h ****   * @retval Input data register value of port
 784:Drivers/STM32F3xx_HAL_Driver/Inc/stm32f3xx_ll_gpio.h ****   */
 785:Drivers/STM32F3xx_HAL_Driver/Inc/stm32f3xx_ll_gpio.h **** __STATIC_INLINE uint32_t LL_GPIO_ReadInputPort(GPIO_TypeDef *GPIOx)
 786:Drivers/STM32F3xx_HAL_Driver/Inc/stm32f3xx_ll_gpio.h **** {
 787:Drivers/STM32F3xx_HAL_Driver/Inc/stm32f3xx_ll_gpio.h ****   return (uint32_t)(READ_REG(GPIOx->IDR));
 788:Drivers/STM32F3xx_HAL_Driver/Inc/stm32f3xx_ll_gpio.h **** }
 789:Drivers/STM32F3xx_HAL_Driver/Inc/stm32f3xx_ll_gpio.h **** 
 790:Drivers/STM32F3xx_HAL_Driver/Inc/stm32f3xx_ll_gpio.h **** /**
 791:Drivers/STM32F3xx_HAL_Driver/Inc/stm32f3xx_ll_gpio.h ****   * @brief  Return if input data level for several pins of dedicated port is high or low.
 792:Drivers/STM32F3xx_HAL_Driver/Inc/stm32f3xx_ll_gpio.h ****   * @rmtoll IDR          IDy           LL_GPIO_IsInputPinSet
 793:Drivers/STM32F3xx_HAL_Driver/Inc/stm32f3xx_ll_gpio.h ****   * @param  GPIOx GPIO Port
 794:Drivers/STM32F3xx_HAL_Driver/Inc/stm32f3xx_ll_gpio.h ****   * @param  PinMask This parameter can be a combination of the following values:
 795:Drivers/STM32F3xx_HAL_Driver/Inc/stm32f3xx_ll_gpio.h ****   *         @arg @ref LL_GPIO_PIN_0
 796:Drivers/STM32F3xx_HAL_Driver/Inc/stm32f3xx_ll_gpio.h ****   *         @arg @ref LL_GPIO_PIN_1
 797:Drivers/STM32F3xx_HAL_Driver/Inc/stm32f3xx_ll_gpio.h ****   *         @arg @ref LL_GPIO_PIN_2
 798:Drivers/STM32F3xx_HAL_Driver/Inc/stm32f3xx_ll_gpio.h ****   *         @arg @ref LL_GPIO_PIN_3
 799:Drivers/STM32F3xx_HAL_Driver/Inc/stm32f3xx_ll_gpio.h ****   *         @arg @ref LL_GPIO_PIN_4
 800:Drivers/STM32F3xx_HAL_Driver/Inc/stm32f3xx_ll_gpio.h ****   *         @arg @ref LL_GPIO_PIN_5
 801:Drivers/STM32F3xx_HAL_Driver/Inc/stm32f3xx_ll_gpio.h ****   *         @arg @ref LL_GPIO_PIN_6
 802:Drivers/STM32F3xx_HAL_Driver/Inc/stm32f3xx_ll_gpio.h ****   *         @arg @ref LL_GPIO_PIN_7
 803:Drivers/STM32F3xx_HAL_Driver/Inc/stm32f3xx_ll_gpio.h ****   *         @arg @ref LL_GPIO_PIN_8
 804:Drivers/STM32F3xx_HAL_Driver/Inc/stm32f3xx_ll_gpio.h ****   *         @arg @ref LL_GPIO_PIN_9
ARM GAS  /tmp/cc1L2lRe.s 			page 29


 805:Drivers/STM32F3xx_HAL_Driver/Inc/stm32f3xx_ll_gpio.h ****   *         @arg @ref LL_GPIO_PIN_10
 806:Drivers/STM32F3xx_HAL_Driver/Inc/stm32f3xx_ll_gpio.h ****   *         @arg @ref LL_GPIO_PIN_11
 807:Drivers/STM32F3xx_HAL_Driver/Inc/stm32f3xx_ll_gpio.h ****   *         @arg @ref LL_GPIO_PIN_12
 808:Drivers/STM32F3xx_HAL_Driver/Inc/stm32f3xx_ll_gpio.h ****   *         @arg @ref LL_GPIO_PIN_13
 809:Drivers/STM32F3xx_HAL_Driver/Inc/stm32f3xx_ll_gpio.h ****   *         @arg @ref LL_GPIO_PIN_14
 810:Drivers/STM32F3xx_HAL_Driver/Inc/stm32f3xx_ll_gpio.h ****   *         @arg @ref LL_GPIO_PIN_15
 811:Drivers/STM32F3xx_HAL_Driver/Inc/stm32f3xx_ll_gpio.h ****   *         @arg @ref LL_GPIO_PIN_ALL
 812:Drivers/STM32F3xx_HAL_Driver/Inc/stm32f3xx_ll_gpio.h ****   * @retval State of bit (1 or 0).
 813:Drivers/STM32F3xx_HAL_Driver/Inc/stm32f3xx_ll_gpio.h ****   */
 814:Drivers/STM32F3xx_HAL_Driver/Inc/stm32f3xx_ll_gpio.h **** __STATIC_INLINE uint32_t LL_GPIO_IsInputPinSet(GPIO_TypeDef *GPIOx, uint32_t PinMask)
 815:Drivers/STM32F3xx_HAL_Driver/Inc/stm32f3xx_ll_gpio.h **** {
 816:Drivers/STM32F3xx_HAL_Driver/Inc/stm32f3xx_ll_gpio.h ****   return (READ_BIT(GPIOx->IDR, PinMask) == (PinMask));
 817:Drivers/STM32F3xx_HAL_Driver/Inc/stm32f3xx_ll_gpio.h **** }
 818:Drivers/STM32F3xx_HAL_Driver/Inc/stm32f3xx_ll_gpio.h **** 
 819:Drivers/STM32F3xx_HAL_Driver/Inc/stm32f3xx_ll_gpio.h **** /**
 820:Drivers/STM32F3xx_HAL_Driver/Inc/stm32f3xx_ll_gpio.h ****   * @brief  Write output data register for the port.
 821:Drivers/STM32F3xx_HAL_Driver/Inc/stm32f3xx_ll_gpio.h ****   * @rmtoll ODR          ODy           LL_GPIO_WriteOutputPort
 822:Drivers/STM32F3xx_HAL_Driver/Inc/stm32f3xx_ll_gpio.h ****   * @param  GPIOx GPIO Port
 823:Drivers/STM32F3xx_HAL_Driver/Inc/stm32f3xx_ll_gpio.h ****   * @param  PortValue Level value for each pin of the port
 824:Drivers/STM32F3xx_HAL_Driver/Inc/stm32f3xx_ll_gpio.h ****   * @retval None
 825:Drivers/STM32F3xx_HAL_Driver/Inc/stm32f3xx_ll_gpio.h ****   */
 826:Drivers/STM32F3xx_HAL_Driver/Inc/stm32f3xx_ll_gpio.h **** __STATIC_INLINE void LL_GPIO_WriteOutputPort(GPIO_TypeDef *GPIOx, uint32_t PortValue)
 827:Drivers/STM32F3xx_HAL_Driver/Inc/stm32f3xx_ll_gpio.h **** {
 828:Drivers/STM32F3xx_HAL_Driver/Inc/stm32f3xx_ll_gpio.h ****   WRITE_REG(GPIOx->ODR, PortValue);
 829:Drivers/STM32F3xx_HAL_Driver/Inc/stm32f3xx_ll_gpio.h **** }
 830:Drivers/STM32F3xx_HAL_Driver/Inc/stm32f3xx_ll_gpio.h **** 
 831:Drivers/STM32F3xx_HAL_Driver/Inc/stm32f3xx_ll_gpio.h **** /**
 832:Drivers/STM32F3xx_HAL_Driver/Inc/stm32f3xx_ll_gpio.h ****   * @brief  Return full output data register value for a dedicated port.
 833:Drivers/STM32F3xx_HAL_Driver/Inc/stm32f3xx_ll_gpio.h ****   * @rmtoll ODR          ODy           LL_GPIO_ReadOutputPort
 834:Drivers/STM32F3xx_HAL_Driver/Inc/stm32f3xx_ll_gpio.h ****   * @param  GPIOx GPIO Port
 835:Drivers/STM32F3xx_HAL_Driver/Inc/stm32f3xx_ll_gpio.h ****   * @retval Output data register value of port
 836:Drivers/STM32F3xx_HAL_Driver/Inc/stm32f3xx_ll_gpio.h ****   */
 837:Drivers/STM32F3xx_HAL_Driver/Inc/stm32f3xx_ll_gpio.h **** __STATIC_INLINE uint32_t LL_GPIO_ReadOutputPort(GPIO_TypeDef *GPIOx)
 838:Drivers/STM32F3xx_HAL_Driver/Inc/stm32f3xx_ll_gpio.h **** {
 839:Drivers/STM32F3xx_HAL_Driver/Inc/stm32f3xx_ll_gpio.h ****   return (uint32_t)(READ_REG(GPIOx->ODR));
 840:Drivers/STM32F3xx_HAL_Driver/Inc/stm32f3xx_ll_gpio.h **** }
 841:Drivers/STM32F3xx_HAL_Driver/Inc/stm32f3xx_ll_gpio.h **** 
 842:Drivers/STM32F3xx_HAL_Driver/Inc/stm32f3xx_ll_gpio.h **** /**
 843:Drivers/STM32F3xx_HAL_Driver/Inc/stm32f3xx_ll_gpio.h ****   * @brief  Return if input data level for several pins of dedicated port is high or low.
 844:Drivers/STM32F3xx_HAL_Driver/Inc/stm32f3xx_ll_gpio.h ****   * @rmtoll ODR          ODy           LL_GPIO_IsOutputPinSet
 845:Drivers/STM32F3xx_HAL_Driver/Inc/stm32f3xx_ll_gpio.h ****   * @param  GPIOx GPIO Port
 846:Drivers/STM32F3xx_HAL_Driver/Inc/stm32f3xx_ll_gpio.h ****   * @param  PinMask This parameter can be a combination of the following values:
 847:Drivers/STM32F3xx_HAL_Driver/Inc/stm32f3xx_ll_gpio.h ****   *         @arg @ref LL_GPIO_PIN_0
 848:Drivers/STM32F3xx_HAL_Driver/Inc/stm32f3xx_ll_gpio.h ****   *         @arg @ref LL_GPIO_PIN_1
 849:Drivers/STM32F3xx_HAL_Driver/Inc/stm32f3xx_ll_gpio.h ****   *         @arg @ref LL_GPIO_PIN_2
 850:Drivers/STM32F3xx_HAL_Driver/Inc/stm32f3xx_ll_gpio.h ****   *         @arg @ref LL_GPIO_PIN_3
 851:Drivers/STM32F3xx_HAL_Driver/Inc/stm32f3xx_ll_gpio.h ****   *         @arg @ref LL_GPIO_PIN_4
 852:Drivers/STM32F3xx_HAL_Driver/Inc/stm32f3xx_ll_gpio.h ****   *         @arg @ref LL_GPIO_PIN_5
 853:Drivers/STM32F3xx_HAL_Driver/Inc/stm32f3xx_ll_gpio.h ****   *         @arg @ref LL_GPIO_PIN_6
 854:Drivers/STM32F3xx_HAL_Driver/Inc/stm32f3xx_ll_gpio.h ****   *         @arg @ref LL_GPIO_PIN_7
 855:Drivers/STM32F3xx_HAL_Driver/Inc/stm32f3xx_ll_gpio.h ****   *         @arg @ref LL_GPIO_PIN_8
 856:Drivers/STM32F3xx_HAL_Driver/Inc/stm32f3xx_ll_gpio.h ****   *         @arg @ref LL_GPIO_PIN_9
 857:Drivers/STM32F3xx_HAL_Driver/Inc/stm32f3xx_ll_gpio.h ****   *         @arg @ref LL_GPIO_PIN_10
 858:Drivers/STM32F3xx_HAL_Driver/Inc/stm32f3xx_ll_gpio.h ****   *         @arg @ref LL_GPIO_PIN_11
 859:Drivers/STM32F3xx_HAL_Driver/Inc/stm32f3xx_ll_gpio.h ****   *         @arg @ref LL_GPIO_PIN_12
 860:Drivers/STM32F3xx_HAL_Driver/Inc/stm32f3xx_ll_gpio.h ****   *         @arg @ref LL_GPIO_PIN_13
 861:Drivers/STM32F3xx_HAL_Driver/Inc/stm32f3xx_ll_gpio.h ****   *         @arg @ref LL_GPIO_PIN_14
ARM GAS  /tmp/cc1L2lRe.s 			page 30


 862:Drivers/STM32F3xx_HAL_Driver/Inc/stm32f3xx_ll_gpio.h ****   *         @arg @ref LL_GPIO_PIN_15
 863:Drivers/STM32F3xx_HAL_Driver/Inc/stm32f3xx_ll_gpio.h ****   *         @arg @ref LL_GPIO_PIN_ALL
 864:Drivers/STM32F3xx_HAL_Driver/Inc/stm32f3xx_ll_gpio.h ****   * @retval State of bit (1 or 0).
 865:Drivers/STM32F3xx_HAL_Driver/Inc/stm32f3xx_ll_gpio.h ****   */
 866:Drivers/STM32F3xx_HAL_Driver/Inc/stm32f3xx_ll_gpio.h **** __STATIC_INLINE uint32_t LL_GPIO_IsOutputPinSet(GPIO_TypeDef *GPIOx, uint32_t PinMask)
 867:Drivers/STM32F3xx_HAL_Driver/Inc/stm32f3xx_ll_gpio.h **** {
 868:Drivers/STM32F3xx_HAL_Driver/Inc/stm32f3xx_ll_gpio.h ****   return (READ_BIT(GPIOx->ODR, PinMask) == (PinMask));
 869:Drivers/STM32F3xx_HAL_Driver/Inc/stm32f3xx_ll_gpio.h **** }
 870:Drivers/STM32F3xx_HAL_Driver/Inc/stm32f3xx_ll_gpio.h **** 
 871:Drivers/STM32F3xx_HAL_Driver/Inc/stm32f3xx_ll_gpio.h **** /**
 872:Drivers/STM32F3xx_HAL_Driver/Inc/stm32f3xx_ll_gpio.h ****   * @brief  Set several pins to high level on dedicated gpio port.
 873:Drivers/STM32F3xx_HAL_Driver/Inc/stm32f3xx_ll_gpio.h ****   * @rmtoll BSRR         BSy           LL_GPIO_SetOutputPin
 874:Drivers/STM32F3xx_HAL_Driver/Inc/stm32f3xx_ll_gpio.h ****   * @param  GPIOx GPIO Port
 875:Drivers/STM32F3xx_HAL_Driver/Inc/stm32f3xx_ll_gpio.h ****   * @param  PinMask This parameter can be a combination of the following values:
 876:Drivers/STM32F3xx_HAL_Driver/Inc/stm32f3xx_ll_gpio.h ****   *         @arg @ref LL_GPIO_PIN_0
 877:Drivers/STM32F3xx_HAL_Driver/Inc/stm32f3xx_ll_gpio.h ****   *         @arg @ref LL_GPIO_PIN_1
 878:Drivers/STM32F3xx_HAL_Driver/Inc/stm32f3xx_ll_gpio.h ****   *         @arg @ref LL_GPIO_PIN_2
 879:Drivers/STM32F3xx_HAL_Driver/Inc/stm32f3xx_ll_gpio.h ****   *         @arg @ref LL_GPIO_PIN_3
 880:Drivers/STM32F3xx_HAL_Driver/Inc/stm32f3xx_ll_gpio.h ****   *         @arg @ref LL_GPIO_PIN_4
 881:Drivers/STM32F3xx_HAL_Driver/Inc/stm32f3xx_ll_gpio.h ****   *         @arg @ref LL_GPIO_PIN_5
 882:Drivers/STM32F3xx_HAL_Driver/Inc/stm32f3xx_ll_gpio.h ****   *         @arg @ref LL_GPIO_PIN_6
 883:Drivers/STM32F3xx_HAL_Driver/Inc/stm32f3xx_ll_gpio.h ****   *         @arg @ref LL_GPIO_PIN_7
 884:Drivers/STM32F3xx_HAL_Driver/Inc/stm32f3xx_ll_gpio.h ****   *         @arg @ref LL_GPIO_PIN_8
 885:Drivers/STM32F3xx_HAL_Driver/Inc/stm32f3xx_ll_gpio.h ****   *         @arg @ref LL_GPIO_PIN_9
 886:Drivers/STM32F3xx_HAL_Driver/Inc/stm32f3xx_ll_gpio.h ****   *         @arg @ref LL_GPIO_PIN_10
 887:Drivers/STM32F3xx_HAL_Driver/Inc/stm32f3xx_ll_gpio.h ****   *         @arg @ref LL_GPIO_PIN_11
 888:Drivers/STM32F3xx_HAL_Driver/Inc/stm32f3xx_ll_gpio.h ****   *         @arg @ref LL_GPIO_PIN_12
 889:Drivers/STM32F3xx_HAL_Driver/Inc/stm32f3xx_ll_gpio.h ****   *         @arg @ref LL_GPIO_PIN_13
 890:Drivers/STM32F3xx_HAL_Driver/Inc/stm32f3xx_ll_gpio.h ****   *         @arg @ref LL_GPIO_PIN_14
 891:Drivers/STM32F3xx_HAL_Driver/Inc/stm32f3xx_ll_gpio.h ****   *         @arg @ref LL_GPIO_PIN_15
 892:Drivers/STM32F3xx_HAL_Driver/Inc/stm32f3xx_ll_gpio.h ****   *         @arg @ref LL_GPIO_PIN_ALL
 893:Drivers/STM32F3xx_HAL_Driver/Inc/stm32f3xx_ll_gpio.h ****   * @retval None
 894:Drivers/STM32F3xx_HAL_Driver/Inc/stm32f3xx_ll_gpio.h ****   */
 895:Drivers/STM32F3xx_HAL_Driver/Inc/stm32f3xx_ll_gpio.h **** __STATIC_INLINE void LL_GPIO_SetOutputPin(GPIO_TypeDef *GPIOx, uint32_t PinMask)
 896:Drivers/STM32F3xx_HAL_Driver/Inc/stm32f3xx_ll_gpio.h **** {
 897:Drivers/STM32F3xx_HAL_Driver/Inc/stm32f3xx_ll_gpio.h ****   WRITE_REG(GPIOx->BSRR, PinMask);
 898:Drivers/STM32F3xx_HAL_Driver/Inc/stm32f3xx_ll_gpio.h **** }
 899:Drivers/STM32F3xx_HAL_Driver/Inc/stm32f3xx_ll_gpio.h **** 
 900:Drivers/STM32F3xx_HAL_Driver/Inc/stm32f3xx_ll_gpio.h **** /**
 901:Drivers/STM32F3xx_HAL_Driver/Inc/stm32f3xx_ll_gpio.h ****   * @brief  Set several pins to low level on dedicated gpio port.
 902:Drivers/STM32F3xx_HAL_Driver/Inc/stm32f3xx_ll_gpio.h ****   * @rmtoll BRR          BRy           LL_GPIO_ResetOutputPin
 903:Drivers/STM32F3xx_HAL_Driver/Inc/stm32f3xx_ll_gpio.h ****   * @param  GPIOx GPIO Port
 904:Drivers/STM32F3xx_HAL_Driver/Inc/stm32f3xx_ll_gpio.h ****   * @param  PinMask This parameter can be a combination of the following values:
 905:Drivers/STM32F3xx_HAL_Driver/Inc/stm32f3xx_ll_gpio.h ****   *         @arg @ref LL_GPIO_PIN_0
 906:Drivers/STM32F3xx_HAL_Driver/Inc/stm32f3xx_ll_gpio.h ****   *         @arg @ref LL_GPIO_PIN_1
 907:Drivers/STM32F3xx_HAL_Driver/Inc/stm32f3xx_ll_gpio.h ****   *         @arg @ref LL_GPIO_PIN_2
 908:Drivers/STM32F3xx_HAL_Driver/Inc/stm32f3xx_ll_gpio.h ****   *         @arg @ref LL_GPIO_PIN_3
 909:Drivers/STM32F3xx_HAL_Driver/Inc/stm32f3xx_ll_gpio.h ****   *         @arg @ref LL_GPIO_PIN_4
 910:Drivers/STM32F3xx_HAL_Driver/Inc/stm32f3xx_ll_gpio.h ****   *         @arg @ref LL_GPIO_PIN_5
 911:Drivers/STM32F3xx_HAL_Driver/Inc/stm32f3xx_ll_gpio.h ****   *         @arg @ref LL_GPIO_PIN_6
 912:Drivers/STM32F3xx_HAL_Driver/Inc/stm32f3xx_ll_gpio.h ****   *         @arg @ref LL_GPIO_PIN_7
 913:Drivers/STM32F3xx_HAL_Driver/Inc/stm32f3xx_ll_gpio.h ****   *         @arg @ref LL_GPIO_PIN_8
 914:Drivers/STM32F3xx_HAL_Driver/Inc/stm32f3xx_ll_gpio.h ****   *         @arg @ref LL_GPIO_PIN_9
 915:Drivers/STM32F3xx_HAL_Driver/Inc/stm32f3xx_ll_gpio.h ****   *         @arg @ref LL_GPIO_PIN_10
 916:Drivers/STM32F3xx_HAL_Driver/Inc/stm32f3xx_ll_gpio.h ****   *         @arg @ref LL_GPIO_PIN_11
 917:Drivers/STM32F3xx_HAL_Driver/Inc/stm32f3xx_ll_gpio.h ****   *         @arg @ref LL_GPIO_PIN_12
 918:Drivers/STM32F3xx_HAL_Driver/Inc/stm32f3xx_ll_gpio.h ****   *         @arg @ref LL_GPIO_PIN_13
ARM GAS  /tmp/cc1L2lRe.s 			page 31


 919:Drivers/STM32F3xx_HAL_Driver/Inc/stm32f3xx_ll_gpio.h ****   *         @arg @ref LL_GPIO_PIN_14
 920:Drivers/STM32F3xx_HAL_Driver/Inc/stm32f3xx_ll_gpio.h ****   *         @arg @ref LL_GPIO_PIN_15
 921:Drivers/STM32F3xx_HAL_Driver/Inc/stm32f3xx_ll_gpio.h ****   *         @arg @ref LL_GPIO_PIN_ALL
 922:Drivers/STM32F3xx_HAL_Driver/Inc/stm32f3xx_ll_gpio.h ****   * @retval None
 923:Drivers/STM32F3xx_HAL_Driver/Inc/stm32f3xx_ll_gpio.h ****   */
 924:Drivers/STM32F3xx_HAL_Driver/Inc/stm32f3xx_ll_gpio.h **** __STATIC_INLINE void LL_GPIO_ResetOutputPin(GPIO_TypeDef *GPIOx, uint32_t PinMask)
 925:Drivers/STM32F3xx_HAL_Driver/Inc/stm32f3xx_ll_gpio.h **** {
 926:Drivers/STM32F3xx_HAL_Driver/Inc/stm32f3xx_ll_gpio.h ****   WRITE_REG(GPIOx->BRR, PinMask);
 138              		.loc 3 926 0
 139 0076 8E4D     		ldr	r5, .L3+4
 140 0078 4FF6087A 		movw	r10, #65288
 141 007c C5F828A0 		str	r10, [r5, #40]
 142              	.LVL6:
 143              	.LBE178:
 144              	.LBE177:
 145              	.LBB179:
 146              	.LBB180:
 147              		.file 4 "Drivers/STM32F3xx_HAL_Driver/Inc/stm32f3xx_ll_system.h"
   1:Drivers/STM32F3xx_HAL_Driver/Inc/stm32f3xx_ll_system.h **** /**
   2:Drivers/STM32F3xx_HAL_Driver/Inc/stm32f3xx_ll_system.h ****   ******************************************************************************
   3:Drivers/STM32F3xx_HAL_Driver/Inc/stm32f3xx_ll_system.h ****   * @file    stm32f3xx_ll_system.h
   4:Drivers/STM32F3xx_HAL_Driver/Inc/stm32f3xx_ll_system.h ****   * @author  MCD Application Team
   5:Drivers/STM32F3xx_HAL_Driver/Inc/stm32f3xx_ll_system.h ****   * @brief   Header file of SYSTEM LL module.
   6:Drivers/STM32F3xx_HAL_Driver/Inc/stm32f3xx_ll_system.h ****   @verbatim
   7:Drivers/STM32F3xx_HAL_Driver/Inc/stm32f3xx_ll_system.h ****   ==============================================================================
   8:Drivers/STM32F3xx_HAL_Driver/Inc/stm32f3xx_ll_system.h ****                      ##### How to use this driver #####
   9:Drivers/STM32F3xx_HAL_Driver/Inc/stm32f3xx_ll_system.h ****   ==============================================================================
  10:Drivers/STM32F3xx_HAL_Driver/Inc/stm32f3xx_ll_system.h ****     [..]
  11:Drivers/STM32F3xx_HAL_Driver/Inc/stm32f3xx_ll_system.h ****     The LL SYSTEM driver contains a set of generic APIs that can be
  12:Drivers/STM32F3xx_HAL_Driver/Inc/stm32f3xx_ll_system.h ****     used by user:
  13:Drivers/STM32F3xx_HAL_Driver/Inc/stm32f3xx_ll_system.h ****       (+) Some of the FLASH features need to be handled in the SYSTEM file.
  14:Drivers/STM32F3xx_HAL_Driver/Inc/stm32f3xx_ll_system.h ****       (+) Access to DBGCMU registers
  15:Drivers/STM32F3xx_HAL_Driver/Inc/stm32f3xx_ll_system.h ****       (+) Access to SYSCFG registers
  16:Drivers/STM32F3xx_HAL_Driver/Inc/stm32f3xx_ll_system.h **** 
  17:Drivers/STM32F3xx_HAL_Driver/Inc/stm32f3xx_ll_system.h ****   @endverbatim
  18:Drivers/STM32F3xx_HAL_Driver/Inc/stm32f3xx_ll_system.h ****   ******************************************************************************
  19:Drivers/STM32F3xx_HAL_Driver/Inc/stm32f3xx_ll_system.h ****   * @attention
  20:Drivers/STM32F3xx_HAL_Driver/Inc/stm32f3xx_ll_system.h ****   *
  21:Drivers/STM32F3xx_HAL_Driver/Inc/stm32f3xx_ll_system.h ****   * <h2><center>&copy; COPYRIGHT(c) 2016 STMicroelectronics</center></h2>
  22:Drivers/STM32F3xx_HAL_Driver/Inc/stm32f3xx_ll_system.h ****   *
  23:Drivers/STM32F3xx_HAL_Driver/Inc/stm32f3xx_ll_system.h ****   * Redistribution and use in source and binary forms, with or without modification,
  24:Drivers/STM32F3xx_HAL_Driver/Inc/stm32f3xx_ll_system.h ****   * are permitted provided that the following conditions are met:
  25:Drivers/STM32F3xx_HAL_Driver/Inc/stm32f3xx_ll_system.h ****   *   1. Redistributions of source code must retain the above copyright notice,
  26:Drivers/STM32F3xx_HAL_Driver/Inc/stm32f3xx_ll_system.h ****   *      this list of conditions and the following disclaimer.
  27:Drivers/STM32F3xx_HAL_Driver/Inc/stm32f3xx_ll_system.h ****   *   2. Redistributions in binary form must reproduce the above copyright notice,
  28:Drivers/STM32F3xx_HAL_Driver/Inc/stm32f3xx_ll_system.h ****   *      this list of conditions and the following disclaimer in the documentation
  29:Drivers/STM32F3xx_HAL_Driver/Inc/stm32f3xx_ll_system.h ****   *      and/or other materials provided with the distribution.
  30:Drivers/STM32F3xx_HAL_Driver/Inc/stm32f3xx_ll_system.h ****   *   3. Neither the name of STMicroelectronics nor the names of its contributors
  31:Drivers/STM32F3xx_HAL_Driver/Inc/stm32f3xx_ll_system.h ****   *      may be used to endorse or promote products derived from this software
  32:Drivers/STM32F3xx_HAL_Driver/Inc/stm32f3xx_ll_system.h ****   *      without specific prior written permission.
  33:Drivers/STM32F3xx_HAL_Driver/Inc/stm32f3xx_ll_system.h ****   *
  34:Drivers/STM32F3xx_HAL_Driver/Inc/stm32f3xx_ll_system.h ****   * THIS SOFTWARE IS PROVIDED BY THE COPYRIGHT HOLDERS AND CONTRIBUTORS "AS IS"
  35:Drivers/STM32F3xx_HAL_Driver/Inc/stm32f3xx_ll_system.h ****   * AND ANY EXPRESS OR IMPLIED WARRANTIES, INCLUDING, BUT NOT LIMITED TO, THE
  36:Drivers/STM32F3xx_HAL_Driver/Inc/stm32f3xx_ll_system.h ****   * IMPLIED WARRANTIES OF MERCHANTABILITY AND FITNESS FOR A PARTICULAR PURPOSE ARE
  37:Drivers/STM32F3xx_HAL_Driver/Inc/stm32f3xx_ll_system.h ****   * DISCLAIMED. IN NO EVENT SHALL THE COPYRIGHT HOLDER OR CONTRIBUTORS BE LIABLE
  38:Drivers/STM32F3xx_HAL_Driver/Inc/stm32f3xx_ll_system.h ****   * FOR ANY DIRECT, INDIRECT, INCIDENTAL, SPECIAL, EXEMPLARY, OR CONSEQUENTIAL
  39:Drivers/STM32F3xx_HAL_Driver/Inc/stm32f3xx_ll_system.h ****   * DAMAGES (INCLUDING, BUT NOT LIMITED TO, PROCUREMENT OF SUBSTITUTE GOODS OR
ARM GAS  /tmp/cc1L2lRe.s 			page 32


  40:Drivers/STM32F3xx_HAL_Driver/Inc/stm32f3xx_ll_system.h ****   * SERVICES; LOSS OF USE, DATA, OR PROFITS; OR BUSINESS INTERRUPTION) HOWEVER
  41:Drivers/STM32F3xx_HAL_Driver/Inc/stm32f3xx_ll_system.h ****   * CAUSED AND ON ANY THEORY OF LIABILITY, WHETHER IN CONTRACT, STRICT LIABILITY,
  42:Drivers/STM32F3xx_HAL_Driver/Inc/stm32f3xx_ll_system.h ****   * OR TORT (INCLUDING NEGLIGENCE OR OTHERWISE) ARISING IN ANY WAY OUT OF THE USE
  43:Drivers/STM32F3xx_HAL_Driver/Inc/stm32f3xx_ll_system.h ****   * OF THIS SOFTWARE, EVEN IF ADVISED OF THE POSSIBILITY OF SUCH DAMAGE.
  44:Drivers/STM32F3xx_HAL_Driver/Inc/stm32f3xx_ll_system.h ****   *
  45:Drivers/STM32F3xx_HAL_Driver/Inc/stm32f3xx_ll_system.h ****   ******************************************************************************
  46:Drivers/STM32F3xx_HAL_Driver/Inc/stm32f3xx_ll_system.h ****   */
  47:Drivers/STM32F3xx_HAL_Driver/Inc/stm32f3xx_ll_system.h **** 
  48:Drivers/STM32F3xx_HAL_Driver/Inc/stm32f3xx_ll_system.h **** /* Define to prevent recursive inclusion -------------------------------------*/
  49:Drivers/STM32F3xx_HAL_Driver/Inc/stm32f3xx_ll_system.h **** #ifndef __STM32F3xx_LL_SYSTEM_H
  50:Drivers/STM32F3xx_HAL_Driver/Inc/stm32f3xx_ll_system.h **** #define __STM32F3xx_LL_SYSTEM_H
  51:Drivers/STM32F3xx_HAL_Driver/Inc/stm32f3xx_ll_system.h **** 
  52:Drivers/STM32F3xx_HAL_Driver/Inc/stm32f3xx_ll_system.h **** #ifdef __cplusplus
  53:Drivers/STM32F3xx_HAL_Driver/Inc/stm32f3xx_ll_system.h **** extern "C" {
  54:Drivers/STM32F3xx_HAL_Driver/Inc/stm32f3xx_ll_system.h **** #endif
  55:Drivers/STM32F3xx_HAL_Driver/Inc/stm32f3xx_ll_system.h **** 
  56:Drivers/STM32F3xx_HAL_Driver/Inc/stm32f3xx_ll_system.h **** /* Includes ------------------------------------------------------------------*/
  57:Drivers/STM32F3xx_HAL_Driver/Inc/stm32f3xx_ll_system.h **** #include "stm32f3xx.h"
  58:Drivers/STM32F3xx_HAL_Driver/Inc/stm32f3xx_ll_system.h **** 
  59:Drivers/STM32F3xx_HAL_Driver/Inc/stm32f3xx_ll_system.h **** /** @addtogroup STM32F3xx_LL_Driver
  60:Drivers/STM32F3xx_HAL_Driver/Inc/stm32f3xx_ll_system.h ****   * @{
  61:Drivers/STM32F3xx_HAL_Driver/Inc/stm32f3xx_ll_system.h ****   */
  62:Drivers/STM32F3xx_HAL_Driver/Inc/stm32f3xx_ll_system.h **** 
  63:Drivers/STM32F3xx_HAL_Driver/Inc/stm32f3xx_ll_system.h **** #if defined (FLASH) || defined (SYSCFG) || defined (DBGMCU)
  64:Drivers/STM32F3xx_HAL_Driver/Inc/stm32f3xx_ll_system.h **** 
  65:Drivers/STM32F3xx_HAL_Driver/Inc/stm32f3xx_ll_system.h **** /** @defgroup SYSTEM_LL SYSTEM
  66:Drivers/STM32F3xx_HAL_Driver/Inc/stm32f3xx_ll_system.h ****   * @{
  67:Drivers/STM32F3xx_HAL_Driver/Inc/stm32f3xx_ll_system.h ****   */
  68:Drivers/STM32F3xx_HAL_Driver/Inc/stm32f3xx_ll_system.h **** 
  69:Drivers/STM32F3xx_HAL_Driver/Inc/stm32f3xx_ll_system.h **** /* Private types -------------------------------------------------------------*/
  70:Drivers/STM32F3xx_HAL_Driver/Inc/stm32f3xx_ll_system.h **** /* Private variables ---------------------------------------------------------*/
  71:Drivers/STM32F3xx_HAL_Driver/Inc/stm32f3xx_ll_system.h **** 
  72:Drivers/STM32F3xx_HAL_Driver/Inc/stm32f3xx_ll_system.h **** /* Private constants ---------------------------------------------------------*/
  73:Drivers/STM32F3xx_HAL_Driver/Inc/stm32f3xx_ll_system.h **** /** @defgroup SYSTEM_LL_Private_Constants SYSTEM Private Constants
  74:Drivers/STM32F3xx_HAL_Driver/Inc/stm32f3xx_ll_system.h ****   * @{
  75:Drivers/STM32F3xx_HAL_Driver/Inc/stm32f3xx_ll_system.h ****   */
  76:Drivers/STM32F3xx_HAL_Driver/Inc/stm32f3xx_ll_system.h **** 
  77:Drivers/STM32F3xx_HAL_Driver/Inc/stm32f3xx_ll_system.h **** /* Offset used to access to SYSCFG_CFGR1 and SYSCFG_CFGR3 registers */
  78:Drivers/STM32F3xx_HAL_Driver/Inc/stm32f3xx_ll_system.h **** #define SYSCFG_OFFSET_CFGR1    0x00000000U
  79:Drivers/STM32F3xx_HAL_Driver/Inc/stm32f3xx_ll_system.h **** #define SYSCFG_OFFSET_CFGR3    0x00000050U
  80:Drivers/STM32F3xx_HAL_Driver/Inc/stm32f3xx_ll_system.h **** 
  81:Drivers/STM32F3xx_HAL_Driver/Inc/stm32f3xx_ll_system.h **** /* Mask used for TIM breaks functions */
  82:Drivers/STM32F3xx_HAL_Driver/Inc/stm32f3xx_ll_system.h **** #if defined(SYSCFG_CFGR2_PVD_LOCK) && defined(SYSCFG_CFGR2_SRAM_PARITY_LOCK)
  83:Drivers/STM32F3xx_HAL_Driver/Inc/stm32f3xx_ll_system.h **** #define SYSCFG_MASK_TIM_BREAK (SYSCFG_CFGR2_LOCKUP_LOCK | SYSCFG_CFGR2_SRAM_PARITY_LOCK | SYSCFG_CF
  84:Drivers/STM32F3xx_HAL_Driver/Inc/stm32f3xx_ll_system.h **** #elif defined(SYSCFG_CFGR2_PVD_LOCK) && !defined(SYSCFG_CFGR2_SRAM_PARITY_LOCK)
  85:Drivers/STM32F3xx_HAL_Driver/Inc/stm32f3xx_ll_system.h **** #define SYSCFG_MASK_TIM_BREAK (SYSCFG_CFGR2_LOCKUP_LOCK | SYSCFG_CFGR2_PVD_LOCK)
  86:Drivers/STM32F3xx_HAL_Driver/Inc/stm32f3xx_ll_system.h **** #elif !defined(SYSCFG_CFGR2_PVD_LOCK) && defined(SYSCFG_CFGR2_SRAM_PARITY_LOCK)
  87:Drivers/STM32F3xx_HAL_Driver/Inc/stm32f3xx_ll_system.h **** #define SYSCFG_MASK_TIM_BREAK (SYSCFG_CFGR2_LOCKUP_LOCK | SYSCFG_CFGR2_SRAM_PARITY_LOCK)
  88:Drivers/STM32F3xx_HAL_Driver/Inc/stm32f3xx_ll_system.h **** #else
  89:Drivers/STM32F3xx_HAL_Driver/Inc/stm32f3xx_ll_system.h **** #define SYSCFG_MASK_TIM_BREAK (SYSCFG_CFGR2_LOCKUP_LOCK)
  90:Drivers/STM32F3xx_HAL_Driver/Inc/stm32f3xx_ll_system.h **** #endif /* SYSCFG_CFGR2_PVD_LOCK && SYSCFG_CFGR2_SRAM_PARITY_LOCK */
  91:Drivers/STM32F3xx_HAL_Driver/Inc/stm32f3xx_ll_system.h **** 
  92:Drivers/STM32F3xx_HAL_Driver/Inc/stm32f3xx_ll_system.h **** /**
  93:Drivers/STM32F3xx_HAL_Driver/Inc/stm32f3xx_ll_system.h ****   * @}
  94:Drivers/STM32F3xx_HAL_Driver/Inc/stm32f3xx_ll_system.h ****   */
  95:Drivers/STM32F3xx_HAL_Driver/Inc/stm32f3xx_ll_system.h **** 
  96:Drivers/STM32F3xx_HAL_Driver/Inc/stm32f3xx_ll_system.h **** /* Private macros ------------------------------------------------------------*/
ARM GAS  /tmp/cc1L2lRe.s 			page 33


  97:Drivers/STM32F3xx_HAL_Driver/Inc/stm32f3xx_ll_system.h **** 
  98:Drivers/STM32F3xx_HAL_Driver/Inc/stm32f3xx_ll_system.h **** /* Exported types ------------------------------------------------------------*/
  99:Drivers/STM32F3xx_HAL_Driver/Inc/stm32f3xx_ll_system.h **** /* Exported constants --------------------------------------------------------*/
 100:Drivers/STM32F3xx_HAL_Driver/Inc/stm32f3xx_ll_system.h **** /** @defgroup SYSTEM_LL_Exported_Constants SYSTEM Exported Constants
 101:Drivers/STM32F3xx_HAL_Driver/Inc/stm32f3xx_ll_system.h ****   * @{
 102:Drivers/STM32F3xx_HAL_Driver/Inc/stm32f3xx_ll_system.h ****   */
 103:Drivers/STM32F3xx_HAL_Driver/Inc/stm32f3xx_ll_system.h **** 
 104:Drivers/STM32F3xx_HAL_Driver/Inc/stm32f3xx_ll_system.h **** /** @defgroup SYSTEM_LL_EC_REMAP SYSCFG REMAP
 105:Drivers/STM32F3xx_HAL_Driver/Inc/stm32f3xx_ll_system.h ****   * @{
 106:Drivers/STM32F3xx_HAL_Driver/Inc/stm32f3xx_ll_system.h ****   */
 107:Drivers/STM32F3xx_HAL_Driver/Inc/stm32f3xx_ll_system.h **** #define LL_SYSCFG_REMAP_FLASH              (uint32_t)0x00000000                                /* M
 108:Drivers/STM32F3xx_HAL_Driver/Inc/stm32f3xx_ll_system.h **** #define LL_SYSCFG_REMAP_SYSTEMFLASH        SYSCFG_CFGR1_MEM_MODE_0                             /* S
 109:Drivers/STM32F3xx_HAL_Driver/Inc/stm32f3xx_ll_system.h **** #define LL_SYSCFG_REMAP_SRAM               (SYSCFG_CFGR1_MEM_MODE_1 | SYSCFG_CFGR1_MEM_MODE_0) /* E
 110:Drivers/STM32F3xx_HAL_Driver/Inc/stm32f3xx_ll_system.h **** #if defined(FMC_BANK1)
 111:Drivers/STM32F3xx_HAL_Driver/Inc/stm32f3xx_ll_system.h **** #define LL_SYSCFG_REMAP_FMC                SYSCFG_CFGR1_MEM_MODE_2                             /*<!
 112:Drivers/STM32F3xx_HAL_Driver/Inc/stm32f3xx_ll_system.h **** #endif /* FMC_BANK1 */
 113:Drivers/STM32F3xx_HAL_Driver/Inc/stm32f3xx_ll_system.h **** /**
 114:Drivers/STM32F3xx_HAL_Driver/Inc/stm32f3xx_ll_system.h ****   * @}
 115:Drivers/STM32F3xx_HAL_Driver/Inc/stm32f3xx_ll_system.h ****   */
 116:Drivers/STM32F3xx_HAL_Driver/Inc/stm32f3xx_ll_system.h **** 
 117:Drivers/STM32F3xx_HAL_Driver/Inc/stm32f3xx_ll_system.h **** #if defined(SYSCFG_CFGR3_SPI1_RX_DMA_RMP)
 118:Drivers/STM32F3xx_HAL_Driver/Inc/stm32f3xx_ll_system.h **** /** @defgroup SYSTEM_LL_EC_SPI1_DMA_RMP_RX SYSCFG SPI1 RX/TX DMA1 request REMAP
 119:Drivers/STM32F3xx_HAL_Driver/Inc/stm32f3xx_ll_system.h ****   * @{
 120:Drivers/STM32F3xx_HAL_Driver/Inc/stm32f3xx_ll_system.h ****   */
 121:Drivers/STM32F3xx_HAL_Driver/Inc/stm32f3xx_ll_system.h **** #define LL_SYSCFG_SPI1RX_RMP_DMA1_CH2    (SYSCFG_CFGR3_SPI1_RX_DMA_RMP << 16U | (uint32_t)0x0000000
 122:Drivers/STM32F3xx_HAL_Driver/Inc/stm32f3xx_ll_system.h **** #define LL_SYSCFG_SPI1RX_RMP_DMA1_CH4    (SYSCFG_CFGR3_SPI1_RX_DMA_RMP << 16U | SYSCFG_CFGR3_SPI1_R
 123:Drivers/STM32F3xx_HAL_Driver/Inc/stm32f3xx_ll_system.h **** #define LL_SYSCFG_SPI1RX_RMP_DMA1_CH6    (SYSCFG_CFGR3_SPI1_RX_DMA_RMP << 16U | SYSCFG_CFGR3_SPI1_R
 124:Drivers/STM32F3xx_HAL_Driver/Inc/stm32f3xx_ll_system.h **** #define LL_SYSCFG_SPI1TX_RMP_DMA1_CH3    (SYSCFG_CFGR3_SPI1_TX_DMA_RMP << 16U | (uint32_t)0x0000000
 125:Drivers/STM32F3xx_HAL_Driver/Inc/stm32f3xx_ll_system.h **** #define LL_SYSCFG_SPI1TX_RMP_DMA1_CH5    (SYSCFG_CFGR3_SPI1_TX_DMA_RMP << 16U | SYSCFG_CFGR3_SPI1_T
 126:Drivers/STM32F3xx_HAL_Driver/Inc/stm32f3xx_ll_system.h **** #define LL_SYSCFG_SPI1TX_RMP_DMA1_CH7    (SYSCFG_CFGR3_SPI1_TX_DMA_RMP << 16U | SYSCFG_CFGR3_SPI1_T
 127:Drivers/STM32F3xx_HAL_Driver/Inc/stm32f3xx_ll_system.h **** /**
 128:Drivers/STM32F3xx_HAL_Driver/Inc/stm32f3xx_ll_system.h ****   * @}
 129:Drivers/STM32F3xx_HAL_Driver/Inc/stm32f3xx_ll_system.h ****   */
 130:Drivers/STM32F3xx_HAL_Driver/Inc/stm32f3xx_ll_system.h **** #endif /* SYSCFG_CFGR3_SPI1_RX_DMA_RMP */
 131:Drivers/STM32F3xx_HAL_Driver/Inc/stm32f3xx_ll_system.h **** 
 132:Drivers/STM32F3xx_HAL_Driver/Inc/stm32f3xx_ll_system.h **** #if defined(SYSCFG_CFGR3_I2C1_RX_DMA_RMP)
 133:Drivers/STM32F3xx_HAL_Driver/Inc/stm32f3xx_ll_system.h **** /** @defgroup SYSTEM_LL_EC_I2C1_DMA_RMP_RX SYSCFG I2C1 RX/TX DMA1 request REMAP
 134:Drivers/STM32F3xx_HAL_Driver/Inc/stm32f3xx_ll_system.h ****   * @{
 135:Drivers/STM32F3xx_HAL_Driver/Inc/stm32f3xx_ll_system.h ****   */
 136:Drivers/STM32F3xx_HAL_Driver/Inc/stm32f3xx_ll_system.h **** #define LL_SYSCFG_I2C1RX_RMP_DMA1_CH7    (SYSCFG_CFGR3_I2C1_RX_DMA_RMP << 16U | (uint32_t)0x0000000
 137:Drivers/STM32F3xx_HAL_Driver/Inc/stm32f3xx_ll_system.h **** #define LL_SYSCFG_I2C1RX_RMP_DMA1_CH3    (SYSCFG_CFGR3_I2C1_RX_DMA_RMP << 16U | SYSCFG_CFGR3_I2C1_R
 138:Drivers/STM32F3xx_HAL_Driver/Inc/stm32f3xx_ll_system.h **** #define LL_SYSCFG_I2C1RX_RMP_DMA1_CH5    (SYSCFG_CFGR3_I2C1_RX_DMA_RMP << 16U | SYSCFG_CFGR3_I2C1_R
 139:Drivers/STM32F3xx_HAL_Driver/Inc/stm32f3xx_ll_system.h **** #define LL_SYSCFG_I2C1TX_RMP_DMA1_CH6    (SYSCFG_CFGR3_I2C1_TX_DMA_RMP << 16U | (uint32_t)0x0000000
 140:Drivers/STM32F3xx_HAL_Driver/Inc/stm32f3xx_ll_system.h **** #define LL_SYSCFG_I2C1TX_RMP_DMA1_CH2    (SYSCFG_CFGR3_I2C1_TX_DMA_RMP << 16U | SYSCFG_CFGR3_I2C1_T
 141:Drivers/STM32F3xx_HAL_Driver/Inc/stm32f3xx_ll_system.h **** #define LL_SYSCFG_I2C1TX_RMP_DMA1_CH4    (SYSCFG_CFGR3_I2C1_TX_DMA_RMP << 16U | SYSCFG_CFGR3_I2C1_T
 142:Drivers/STM32F3xx_HAL_Driver/Inc/stm32f3xx_ll_system.h **** /**
 143:Drivers/STM32F3xx_HAL_Driver/Inc/stm32f3xx_ll_system.h ****   * @}
 144:Drivers/STM32F3xx_HAL_Driver/Inc/stm32f3xx_ll_system.h ****   */
 145:Drivers/STM32F3xx_HAL_Driver/Inc/stm32f3xx_ll_system.h **** 
 146:Drivers/STM32F3xx_HAL_Driver/Inc/stm32f3xx_ll_system.h **** #endif /* SYSCFG_CFGR3_I2C1_RX_DMA_RMP */
 147:Drivers/STM32F3xx_HAL_Driver/Inc/stm32f3xx_ll_system.h **** 
 148:Drivers/STM32F3xx_HAL_Driver/Inc/stm32f3xx_ll_system.h **** #if defined(SYSCFG_CFGR1_ADC24_DMA_RMP) || defined(SYSCFG_CFGR3_ADC2_DMA_RMP)
 149:Drivers/STM32F3xx_HAL_Driver/Inc/stm32f3xx_ll_system.h **** /** @defgroup SYSTEM_LL_EC_ADC24_DMA_REMAP SYSCFG ADC DMA request REMAP
 150:Drivers/STM32F3xx_HAL_Driver/Inc/stm32f3xx_ll_system.h ****   * @{
 151:Drivers/STM32F3xx_HAL_Driver/Inc/stm32f3xx_ll_system.h ****   */
 152:Drivers/STM32F3xx_HAL_Driver/Inc/stm32f3xx_ll_system.h **** #if defined (SYSCFG_CFGR1_ADC24_DMA_RMP) 
 153:Drivers/STM32F3xx_HAL_Driver/Inc/stm32f3xx_ll_system.h **** #define LL_SYSCFG_ADC24_RMP_DMA2_CH12    (SYSCFG_OFFSET_CFGR1 << 24U | SYSCFG_CFGR1_ADC24_DMA_RMP <
ARM GAS  /tmp/cc1L2lRe.s 			page 34


 154:Drivers/STM32F3xx_HAL_Driver/Inc/stm32f3xx_ll_system.h **** #define LL_SYSCFG_ADC24_RMP_DMA2_CH34    (SYSCFG_OFFSET_CFGR1 << 24U | SYSCFG_CFGR1_ADC24_DMA_RMP <
 155:Drivers/STM32F3xx_HAL_Driver/Inc/stm32f3xx_ll_system.h **** #endif /*SYSCFG_CFGR1_ADC24_DMA_RMP*/
 156:Drivers/STM32F3xx_HAL_Driver/Inc/stm32f3xx_ll_system.h **** #if defined (SYSCFG_CFGR3_ADC2_DMA_RMP) 
 157:Drivers/STM32F3xx_HAL_Driver/Inc/stm32f3xx_ll_system.h **** #define LL_SYSCFG_ADC2_RMP_DMA1_CH2      (SYSCFG_OFFSET_CFGR3 << 24U | SYSCFG_CFGR3_ADC2_DMA_RMP_0 
 158:Drivers/STM32F3xx_HAL_Driver/Inc/stm32f3xx_ll_system.h **** #define LL_SYSCFG_ADC2_RMP_DMA1_CH4      (SYSCFG_OFFSET_CFGR3 << 24U | SYSCFG_CFGR3_ADC2_DMA_RMP_0 
 159:Drivers/STM32F3xx_HAL_Driver/Inc/stm32f3xx_ll_system.h **** #define LL_SYSCFG_ADC2_RMP_DMA2          (SYSCFG_OFFSET_CFGR3 << 24U | SYSCFG_CFGR3_ADC2_DMA_RMP_1 
 160:Drivers/STM32F3xx_HAL_Driver/Inc/stm32f3xx_ll_system.h **** #define LL_SYSCFG_ADC2_RMP_DMA1          (SYSCFG_OFFSET_CFGR3 << 24U | SYSCFG_CFGR3_ADC2_DMA_RMP_1 
 161:Drivers/STM32F3xx_HAL_Driver/Inc/stm32f3xx_ll_system.h **** #endif /*SYSCFG_CFGR3_ADC2_DMA_RMP*/
 162:Drivers/STM32F3xx_HAL_Driver/Inc/stm32f3xx_ll_system.h **** /**
 163:Drivers/STM32F3xx_HAL_Driver/Inc/stm32f3xx_ll_system.h ****   * @}
 164:Drivers/STM32F3xx_HAL_Driver/Inc/stm32f3xx_ll_system.h ****   */
 165:Drivers/STM32F3xx_HAL_Driver/Inc/stm32f3xx_ll_system.h **** 
 166:Drivers/STM32F3xx_HAL_Driver/Inc/stm32f3xx_ll_system.h **** #endif /* SYSCFG_CFGR1_ADC24_DMA_RMP || SYSCFG_CFGR3_ADC2_DMA_RMP */
 167:Drivers/STM32F3xx_HAL_Driver/Inc/stm32f3xx_ll_system.h **** 
 168:Drivers/STM32F3xx_HAL_Driver/Inc/stm32f3xx_ll_system.h **** /** @defgroup SYSTEM_LL_EC_DAC1_DMA2_REMAP SYSCFG DAC1/2 DMA1/2 request REMAP
 169:Drivers/STM32F3xx_HAL_Driver/Inc/stm32f3xx_ll_system.h ****   * @{
 170:Drivers/STM32F3xx_HAL_Driver/Inc/stm32f3xx_ll_system.h ****   */
 171:Drivers/STM32F3xx_HAL_Driver/Inc/stm32f3xx_ll_system.h **** #define LL_SYSCFG_DAC1_CH1_RMP_DMA2_CH3     ((SYSCFG_CFGR1_TIM6DAC1Ch1_DMA_RMP << 8U) | (uint32_t)0
 172:Drivers/STM32F3xx_HAL_Driver/Inc/stm32f3xx_ll_system.h **** #define LL_SYSCFG_DAC1_CH1_RMP_DMA1_CH3     ((SYSCFG_CFGR1_TIM6DAC1Ch1_DMA_RMP << 8U) | SYSCFG_CFGR
 173:Drivers/STM32F3xx_HAL_Driver/Inc/stm32f3xx_ll_system.h **** #if defined(SYSCFG_CFGR1_TIM7DAC1Ch2_DMA_RMP)
 174:Drivers/STM32F3xx_HAL_Driver/Inc/stm32f3xx_ll_system.h **** #define LL_SYSCFG_DAC1_OUT2_RMP_DMA2_CH4    ((SYSCFG_CFGR1_TIM7DAC1Ch2_DMA_RMP << 8U) | (uint32_t)0
 175:Drivers/STM32F3xx_HAL_Driver/Inc/stm32f3xx_ll_system.h **** #define LL_SYSCFG_DAC1_OUT2_RMP_DMA1_CH4    ((SYSCFG_CFGR1_TIM7DAC1Ch2_DMA_RMP << 8U) | SYSCFG_CFGR
 176:Drivers/STM32F3xx_HAL_Driver/Inc/stm32f3xx_ll_system.h **** #endif /*SYSCFG_CFGR1_TIM7DAC1Ch2_DMA_RMP*/
 177:Drivers/STM32F3xx_HAL_Driver/Inc/stm32f3xx_ll_system.h **** #if defined(SYSCFG_CFGR1_TIM18DAC2Ch1_DMA_RMP)
 178:Drivers/STM32F3xx_HAL_Driver/Inc/stm32f3xx_ll_system.h **** #define LL_SYSCFG_DAC2_OUT1_RMP_DMA2_CH5    ((SYSCFG_CFGR1_TIM18DAC2Ch1_DMA_RMP << 8U) | (uint32_t)
 179:Drivers/STM32F3xx_HAL_Driver/Inc/stm32f3xx_ll_system.h **** #define LL_SYSCFG_DAC2_OUT1_RMP_DMA1_CH5    ((SYSCFG_CFGR1_TIM18DAC2Ch1_DMA_RMP << 8U) | SYSCFG_CFG
 180:Drivers/STM32F3xx_HAL_Driver/Inc/stm32f3xx_ll_system.h **** #endif /*SYSCFG_CFGR1_TIM18DAC2Ch1_DMA_RMP*/
 181:Drivers/STM32F3xx_HAL_Driver/Inc/stm32f3xx_ll_system.h **** #if defined(SYSCFG_CFGR1_DAC2Ch1_DMA_RMP)
 182:Drivers/STM32F3xx_HAL_Driver/Inc/stm32f3xx_ll_system.h **** #define LL_SYSCFG_DAC2_CH1_RMP_NO           ((SYSCFG_CFGR1_DAC2Ch1_DMA_RMP << 8U) | (uint32_t)0x000
 183:Drivers/STM32F3xx_HAL_Driver/Inc/stm32f3xx_ll_system.h **** #define LL_SYSCFG_DAC2_CH1_RMP_DMA1_CH5     ((SYSCFG_CFGR1_DAC2Ch1_DMA_RMP << 8U) | SYSCFG_CFGR1_DA
 184:Drivers/STM32F3xx_HAL_Driver/Inc/stm32f3xx_ll_system.h **** #endif /*SYSCFG_CFGR1_DAC2Ch1_DMA_RMP*/
 185:Drivers/STM32F3xx_HAL_Driver/Inc/stm32f3xx_ll_system.h **** /**
 186:Drivers/STM32F3xx_HAL_Driver/Inc/stm32f3xx_ll_system.h ****   * @}
 187:Drivers/STM32F3xx_HAL_Driver/Inc/stm32f3xx_ll_system.h ****   */
 188:Drivers/STM32F3xx_HAL_Driver/Inc/stm32f3xx_ll_system.h **** 
 189:Drivers/STM32F3xx_HAL_Driver/Inc/stm32f3xx_ll_system.h **** /** @defgroup SYSTEM_LL_EC_TIM16_DMA1_REMAP SYSCFG TIM DMA request REMAP
 190:Drivers/STM32F3xx_HAL_Driver/Inc/stm32f3xx_ll_system.h ****   * @{
 191:Drivers/STM32F3xx_HAL_Driver/Inc/stm32f3xx_ll_system.h ****   */
 192:Drivers/STM32F3xx_HAL_Driver/Inc/stm32f3xx_ll_system.h **** #define LL_SYSCFG_TIM16_RMP_DMA1_CH3        ((SYSCFG_CFGR1_TIM16_DMA_RMP << 8U) | (uint32_t)0x00000
 193:Drivers/STM32F3xx_HAL_Driver/Inc/stm32f3xx_ll_system.h **** #define LL_SYSCFG_TIM16_RMP_DMA1_CH6        ((SYSCFG_CFGR1_TIM16_DMA_RMP << 8U) | SYSCFG_CFGR1_TIM1
 194:Drivers/STM32F3xx_HAL_Driver/Inc/stm32f3xx_ll_system.h **** #define LL_SYSCFG_TIM17_RMP_DMA1_CH1        ((SYSCFG_CFGR1_TIM17_DMA_RMP << 8U) | (uint32_t)0x00000
 195:Drivers/STM32F3xx_HAL_Driver/Inc/stm32f3xx_ll_system.h **** #define LL_SYSCFG_TIM17_RMP_DMA1_CH7        ((SYSCFG_CFGR1_TIM17_DMA_RMP << 8U) | SYSCFG_CFGR1_TIM1
 196:Drivers/STM32F3xx_HAL_Driver/Inc/stm32f3xx_ll_system.h **** #define LL_SYSCFG_TIM6_RMP_DMA2_CH3         ((SYSCFG_CFGR1_TIM6DAC1Ch1_DMA_RMP << 8U) | (uint32_t)0
 197:Drivers/STM32F3xx_HAL_Driver/Inc/stm32f3xx_ll_system.h **** #define LL_SYSCFG_TIM6_RMP_DMA1_CH3         ((SYSCFG_CFGR1_TIM6DAC1Ch1_DMA_RMP << 8U) | SYSCFG_CFGR
 198:Drivers/STM32F3xx_HAL_Driver/Inc/stm32f3xx_ll_system.h **** #if defined(SYSCFG_CFGR1_TIM7DAC1Ch2_DMA_RMP)
 199:Drivers/STM32F3xx_HAL_Driver/Inc/stm32f3xx_ll_system.h **** #define LL_SYSCFG_TIM7_RMP_DMA2_CH4         ((SYSCFG_CFGR1_TIM7DAC1Ch2_DMA_RMP << 8U) | (uint32_t)0
 200:Drivers/STM32F3xx_HAL_Driver/Inc/stm32f3xx_ll_system.h **** #define LL_SYSCFG_TIM7_RMP_DMA1_CH4         ((SYSCFG_CFGR1_TIM7DAC1Ch2_DMA_RMP << 8U) | SYSCFG_CFGR
 201:Drivers/STM32F3xx_HAL_Driver/Inc/stm32f3xx_ll_system.h **** #endif /*SYSCFG_CFGR1_TIM7DAC1Ch2_DMA_RMP*/
 202:Drivers/STM32F3xx_HAL_Driver/Inc/stm32f3xx_ll_system.h **** #if defined(SYSCFG_CFGR1_TIM18DAC2Ch1_DMA_RMP)
 203:Drivers/STM32F3xx_HAL_Driver/Inc/stm32f3xx_ll_system.h **** #define LL_SYSCFG_TIM18_RMP_DMA2_CH5        ((SYSCFG_CFGR1_TIM18DAC2Ch1_DMA_RMP << 8U) | (uint32_t)
 204:Drivers/STM32F3xx_HAL_Driver/Inc/stm32f3xx_ll_system.h **** #define LL_SYSCFG_TIM18_RMP_DMA1_CH5        ((SYSCFG_CFGR1_TIM18DAC2Ch1_DMA_RMP << 8U) | SYSCFG_CFG
 205:Drivers/STM32F3xx_HAL_Driver/Inc/stm32f3xx_ll_system.h **** #endif /*SYSCFG_CFGR1_TIM18DAC2Ch1_DMA_RMP*/
 206:Drivers/STM32F3xx_HAL_Driver/Inc/stm32f3xx_ll_system.h **** /**
 207:Drivers/STM32F3xx_HAL_Driver/Inc/stm32f3xx_ll_system.h ****   * @}
 208:Drivers/STM32F3xx_HAL_Driver/Inc/stm32f3xx_ll_system.h ****   */
 209:Drivers/STM32F3xx_HAL_Driver/Inc/stm32f3xx_ll_system.h **** 
 210:Drivers/STM32F3xx_HAL_Driver/Inc/stm32f3xx_ll_system.h **** #if defined(SYSCFG_CFGR1_TIM1_ITR3_RMP) || defined(SYSCFG_CFGR1_ENCODER_MODE)
ARM GAS  /tmp/cc1L2lRe.s 			page 35


 211:Drivers/STM32F3xx_HAL_Driver/Inc/stm32f3xx_ll_system.h **** /** @defgroup SYSTEM_LL_EC_TIM1_ITR3_RMP_TIM4 SYSCFG TIM REMAP
 212:Drivers/STM32F3xx_HAL_Driver/Inc/stm32f3xx_ll_system.h ****   * @{
 213:Drivers/STM32F3xx_HAL_Driver/Inc/stm32f3xx_ll_system.h ****   */
 214:Drivers/STM32F3xx_HAL_Driver/Inc/stm32f3xx_ll_system.h **** #if defined(SYSCFG_CFGR1_TIM1_ITR3_RMP)
 215:Drivers/STM32F3xx_HAL_Driver/Inc/stm32f3xx_ll_system.h **** #define LL_SYSCFG_TIM1_ITR3_RMP_TIM4_TRGO      ((SYSCFG_CFGR1_TIM1_ITR3_RMP << 8U) | (uint32_t)0x00
 216:Drivers/STM32F3xx_HAL_Driver/Inc/stm32f3xx_ll_system.h **** #define LL_SYSCFG_TIM1_ITR3_RMP_TIM17_OC       ((SYSCFG_CFGR1_TIM1_ITR3_RMP << 8U) | SYSCFG_CFGR1_T
 217:Drivers/STM32F3xx_HAL_Driver/Inc/stm32f3xx_ll_system.h **** #endif /* SYSCFG_CFGR1_TIM1_ITR3_RMP */
 218:Drivers/STM32F3xx_HAL_Driver/Inc/stm32f3xx_ll_system.h **** #if defined(SYSCFG_CFGR1_ENCODER_MODE)
 219:Drivers/STM32F3xx_HAL_Driver/Inc/stm32f3xx_ll_system.h **** #define LL_SYSCFG_TIM15_ENCODEMODE_NOREDIRECTION ((SYSCFG_CFGR1_ENCODER_MODE << 8U) | (uint32_t)0x0
 220:Drivers/STM32F3xx_HAL_Driver/Inc/stm32f3xx_ll_system.h **** #define LL_SYSCFG_TIM15_ENCODEMODE_TIM2          ((SYSCFG_CFGR1_ENCODER_MODE_0 << 8U) | SYSCFG_CFGR
 221:Drivers/STM32F3xx_HAL_Driver/Inc/stm32f3xx_ll_system.h **** #if defined(SYSCFG_CFGR1_ENCODER_MODE_TIM3)
 222:Drivers/STM32F3xx_HAL_Driver/Inc/stm32f3xx_ll_system.h **** #define LL_SYSCFG_TIM15_ENCODEMODE_TIM3          ((SYSCFG_CFGR1_ENCODER_MODE_TIM3 << 8U) | SYSCFG_C
 223:Drivers/STM32F3xx_HAL_Driver/Inc/stm32f3xx_ll_system.h **** #endif /* SYSCFG_CFGR1_ENCODER_MODE_TIM3 */
 224:Drivers/STM32F3xx_HAL_Driver/Inc/stm32f3xx_ll_system.h **** #if defined(SYSCFG_CFGR1_ENCODER_MODE_TIM4)
 225:Drivers/STM32F3xx_HAL_Driver/Inc/stm32f3xx_ll_system.h **** #define LL_SYSCFG_TIM15_ENCODEMODE_TIM4          ((SYSCFG_CFGR1_ENCODER_MODE_TIM4 << 8U) | SYSCFG_C
 226:Drivers/STM32F3xx_HAL_Driver/Inc/stm32f3xx_ll_system.h **** #endif /* SYSCFG_CFGR1_ENCODER_MODE_TIM4 */
 227:Drivers/STM32F3xx_HAL_Driver/Inc/stm32f3xx_ll_system.h **** #endif /* SYSCFG_CFGR1_ENCODER_MODE */
 228:Drivers/STM32F3xx_HAL_Driver/Inc/stm32f3xx_ll_system.h **** /**
 229:Drivers/STM32F3xx_HAL_Driver/Inc/stm32f3xx_ll_system.h ****   * @}
 230:Drivers/STM32F3xx_HAL_Driver/Inc/stm32f3xx_ll_system.h ****   */
 231:Drivers/STM32F3xx_HAL_Driver/Inc/stm32f3xx_ll_system.h **** 
 232:Drivers/STM32F3xx_HAL_Driver/Inc/stm32f3xx_ll_system.h **** #endif /* SYSCFG_CFGR1_TIM1_ITR3_RMP || SYSCFG_CFGR1_ENCODER_MODE */
 233:Drivers/STM32F3xx_HAL_Driver/Inc/stm32f3xx_ll_system.h **** 
 234:Drivers/STM32F3xx_HAL_Driver/Inc/stm32f3xx_ll_system.h **** #if defined(SYSCFG_CFGR4_ADC12_EXT2_RMP)
 235:Drivers/STM32F3xx_HAL_Driver/Inc/stm32f3xx_ll_system.h **** /** @defgroup SYSTEM_LL_EC_ADC12_EXT2_RMP_TIM1 SYSCFG ADC Trigger REMAP
 236:Drivers/STM32F3xx_HAL_Driver/Inc/stm32f3xx_ll_system.h ****   * @{
 237:Drivers/STM32F3xx_HAL_Driver/Inc/stm32f3xx_ll_system.h ****   */
 238:Drivers/STM32F3xx_HAL_Driver/Inc/stm32f3xx_ll_system.h **** #define LL_SYSCFG_ADC12_EXT2_RMP_TIM1_CC3      ((SYSCFG_CFGR4_ADC12_EXT2_RMP << 16U) | (uint32_t)0x
 239:Drivers/STM32F3xx_HAL_Driver/Inc/stm32f3xx_ll_system.h **** #define LL_SYSCFG_ADC12_EXT2_RMP_TIM20_TRGO    ((SYSCFG_CFGR4_ADC12_EXT2_RMP << 16U) | SYSCFG_CFGR4
 240:Drivers/STM32F3xx_HAL_Driver/Inc/stm32f3xx_ll_system.h **** #define LL_SYSCFG_ADC12_EXT3_RMP_TIM2_CC2      ((SYSCFG_CFGR4_ADC12_EXT3_RMP << 16U) | (uint32_t)0x
 241:Drivers/STM32F3xx_HAL_Driver/Inc/stm32f3xx_ll_system.h **** #define LL_SYSCFG_ADC12_EXT3_RMP_TIM20_TRGO2   ((SYSCFG_CFGR4_ADC12_EXT3_RMP << 16U) | SYSCFG_CFGR4
 242:Drivers/STM32F3xx_HAL_Driver/Inc/stm32f3xx_ll_system.h **** #define LL_SYSCFG_ADC12_EXT5_RMP_TIM4_CC4      ((SYSCFG_CFGR4_ADC12_EXT5_RMP << 16U) | (uint32_t)0x
 243:Drivers/STM32F3xx_HAL_Driver/Inc/stm32f3xx_ll_system.h **** #define LL_SYSCFG_ADC12_EXT5_RMP_TIM20_CC1     ((SYSCFG_CFGR4_ADC12_EXT5_RMP << 16U) | SYSCFG_CFGR4
 244:Drivers/STM32F3xx_HAL_Driver/Inc/stm32f3xx_ll_system.h **** #define LL_SYSCFG_ADC12_EXT13_RMP_TIM6_TRGO    ((SYSCFG_CFGR4_ADC12_EXT13_RMP << 16U) | (uint32_t)0
 245:Drivers/STM32F3xx_HAL_Driver/Inc/stm32f3xx_ll_system.h **** #define LL_SYSCFG_ADC12_EXT13_RMP_TIM20_CC2    ((SYSCFG_CFGR4_ADC12_EXT13_RMP << 16U) | SYSCFG_CFGR
 246:Drivers/STM32F3xx_HAL_Driver/Inc/stm32f3xx_ll_system.h **** #define LL_SYSCFG_ADC12_EXT15_RMP_TIM3_CC4     ((SYSCFG_CFGR4_ADC12_EXT15_RMP << 16U) | (uint32_t)0
 247:Drivers/STM32F3xx_HAL_Driver/Inc/stm32f3xx_ll_system.h **** #define LL_SYSCFG_ADC12_EXT15_RMP_TIM20_CC3    ((SYSCFG_CFGR4_ADC12_EXT15_RMP << 16U) | SYSCFG_CFGR
 248:Drivers/STM32F3xx_HAL_Driver/Inc/stm32f3xx_ll_system.h **** #define LL_SYSCFG_ADC12_JEXT3_RMP_TIM2_CC1     ((SYSCFG_CFGR4_ADC12_JEXT3_RMP << 16U) | (uint32_t)0
 249:Drivers/STM32F3xx_HAL_Driver/Inc/stm32f3xx_ll_system.h **** #define LL_SYSCFG_ADC12_JEXT3_RMP_TIM20_TRGO   ((SYSCFG_CFGR4_ADC12_JEXT3_RMP << 16U) | SYSCFG_CFGR
 250:Drivers/STM32F3xx_HAL_Driver/Inc/stm32f3xx_ll_system.h **** #define LL_SYSCFG_ADC12_JEXT6_RMP_EXTI_LINE_15 ((SYSCFG_CFGR4_ADC12_JEXT6_RMP << 16U) | (uint32_t)0
 251:Drivers/STM32F3xx_HAL_Driver/Inc/stm32f3xx_ll_system.h **** #define LL_SYSCFG_ADC12_JEXT6_RMP_TIM20_TRGO2  ((SYSCFG_CFGR4_ADC12_JEXT6_RMP << 16U) | SYSCFG_CFGR
 252:Drivers/STM32F3xx_HAL_Driver/Inc/stm32f3xx_ll_system.h **** #define LL_SYSCFG_ADC12_JEXT13_RMP_TIM3_CC1    ((SYSCFG_CFGR4_ADC12_JEXT13_RMP << 16U) | (uint32_t)
 253:Drivers/STM32F3xx_HAL_Driver/Inc/stm32f3xx_ll_system.h **** #define LL_SYSCFG_ADC12_JEXT13_RMP_TIM20_CC4   ((SYSCFG_CFGR4_ADC12_JEXT13_RMP << 16U) | SYSCFG_CFG
 254:Drivers/STM32F3xx_HAL_Driver/Inc/stm32f3xx_ll_system.h **** #define LL_SYSCFG_ADC34_EXT5_RMP_EXTI_LINE_2   ((SYSCFG_CFGR4_ADC34_EXT5_RMP << 16U) | (uint32_t)0x
 255:Drivers/STM32F3xx_HAL_Driver/Inc/stm32f3xx_ll_system.h **** #define LL_SYSCFG_ADC34_EXT5_RMP_TIM20_TRGO    ((SYSCFG_CFGR4_ADC34_EXT5_RMP << 16U) | SYSCFG_CFGR4
 256:Drivers/STM32F3xx_HAL_Driver/Inc/stm32f3xx_ll_system.h **** #define LL_SYSCFG_ADC34_EXT6_RMP_TIM4_CC1      ((SYSCFG_CFGR4_ADC34_EXT6_RMP << 16U) | (uint32_t)0x
 257:Drivers/STM32F3xx_HAL_Driver/Inc/stm32f3xx_ll_system.h **** #define LL_SYSCFG_ADC34_EXT6_RMP_TIM20_TRGO2   ((SYSCFG_CFGR4_ADC34_EXT6_RMP << 16U) | SYSCFG_CFGR4
 258:Drivers/STM32F3xx_HAL_Driver/Inc/stm32f3xx_ll_system.h **** #define LL_SYSCFG_ADC34_EXT15_RMP_TIM2_CC1     ((SYSCFG_CFGR4_ADC34_EXT15_RMP << 16U) | (uint32_t)0
 259:Drivers/STM32F3xx_HAL_Driver/Inc/stm32f3xx_ll_system.h **** #define LL_SYSCFG_ADC34_EXT15_RMP_TIM20_CC1    ((SYSCFG_CFGR4_ADC34_EXT15_RMP << 16U) | SYSCFG_CFGR
 260:Drivers/STM32F3xx_HAL_Driver/Inc/stm32f3xx_ll_system.h **** #define LL_SYSCFG_ADC34_JEXT5_RMP_TIM4_CC3     ((SYSCFG_CFGR4_ADC34_JEXT5_RMP << 16U) | (uint32_t)0
 261:Drivers/STM32F3xx_HAL_Driver/Inc/stm32f3xx_ll_system.h **** #define LL_SYSCFG_ADC34_JEXT5_RMP_TIM20_TRGO   ((SYSCFG_CFGR4_ADC34_JEXT5_RMP << 16U) | SYSCFG_CFGR
 262:Drivers/STM32F3xx_HAL_Driver/Inc/stm32f3xx_ll_system.h **** #define LL_SYSCFG_ADC34_JEXT11_RMP_TIM1_CC3    ((SYSCFG_CFGR4_ADC34_JEXT11_RMP << 16U) | (uint32_t)
 263:Drivers/STM32F3xx_HAL_Driver/Inc/stm32f3xx_ll_system.h **** #define LL_SYSCFG_ADC34_JEXT11_RMP_TIM20_TRGO2 ((SYSCFG_CFGR4_ADC34_JEXT11_RMP << 16U) | SYSCFG_CFG
 264:Drivers/STM32F3xx_HAL_Driver/Inc/stm32f3xx_ll_system.h **** #define LL_SYSCFG_ADC34_JEXT14_RMP_TIM7_TRGO   ((SYSCFG_CFGR4_ADC34_JEXT14_RMP << 16U) | (uint32_t)
 265:Drivers/STM32F3xx_HAL_Driver/Inc/stm32f3xx_ll_system.h **** #define LL_SYSCFG_ADC34_JEXT14_RMP_TIM20_CC2   ((SYSCFG_CFGR4_ADC34_JEXT14_RMP << 16U) | SYSCFG_CFG
 266:Drivers/STM32F3xx_HAL_Driver/Inc/stm32f3xx_ll_system.h **** /**
 267:Drivers/STM32F3xx_HAL_Driver/Inc/stm32f3xx_ll_system.h ****   * @}
ARM GAS  /tmp/cc1L2lRe.s 			page 36


 268:Drivers/STM32F3xx_HAL_Driver/Inc/stm32f3xx_ll_system.h ****   */
 269:Drivers/STM32F3xx_HAL_Driver/Inc/stm32f3xx_ll_system.h **** 
 270:Drivers/STM32F3xx_HAL_Driver/Inc/stm32f3xx_ll_system.h **** #endif /* SYSCFG_CFGR4_ADC12_EXT2_RMP */
 271:Drivers/STM32F3xx_HAL_Driver/Inc/stm32f3xx_ll_system.h **** 
 272:Drivers/STM32F3xx_HAL_Driver/Inc/stm32f3xx_ll_system.h **** #if defined(SYSCFG_CFGR1_DAC1_TRIG1_RMP) || defined(SYSCFG_CFGR3_TRIGGER_RMP)
 273:Drivers/STM32F3xx_HAL_Driver/Inc/stm32f3xx_ll_system.h **** /** @defgroup SYSTEM_LL_EC_DAC1_TRIG1_REMAP SYSCFG DAC1 Trigger REMAP
 274:Drivers/STM32F3xx_HAL_Driver/Inc/stm32f3xx_ll_system.h ****   * @{
 275:Drivers/STM32F3xx_HAL_Driver/Inc/stm32f3xx_ll_system.h ****   */
 276:Drivers/STM32F3xx_HAL_Driver/Inc/stm32f3xx_ll_system.h **** #if defined(SYSCFG_CFGR1_DAC1_TRIG1_RMP)
 277:Drivers/STM32F3xx_HAL_Driver/Inc/stm32f3xx_ll_system.h **** #define LL_SYSCFG_DAC1_TRIG1_RMP_TIM8_TRGO         (SYSCFG_OFFSET_CFGR1 << 24U | SYSCFG_CFGR1_DAC1_
 278:Drivers/STM32F3xx_HAL_Driver/Inc/stm32f3xx_ll_system.h **** #define LL_SYSCFG_DAC1_TRIG1_RMP_TIM3_TRGO         (SYSCFG_OFFSET_CFGR1 << 24U | SYSCFG_CFGR1_DAC1_
 279:Drivers/STM32F3xx_HAL_Driver/Inc/stm32f3xx_ll_system.h **** #endif /* SYSCFG_CFGR1_DAC1_TRIG1_RMP */
 280:Drivers/STM32F3xx_HAL_Driver/Inc/stm32f3xx_ll_system.h **** #if defined(SYSCFG_CFGR3_DAC1_TRG3_RMP)
 281:Drivers/STM32F3xx_HAL_Driver/Inc/stm32f3xx_ll_system.h **** #define LL_SYSCFG_DAC1_TRIG3_RMP_TIM15_TRGO        (SYSCFG_OFFSET_CFGR3 << 24U | SYSCFG_CFGR3_DAC1_
 282:Drivers/STM32F3xx_HAL_Driver/Inc/stm32f3xx_ll_system.h **** #define LL_SYSCFG_DAC1_TRIG3_RMP_HRTIM1_DAC1_TRIG1 (SYSCFG_OFFSET_CFGR3 << 24U | SYSCFG_CFGR3_DAC1_
 283:Drivers/STM32F3xx_HAL_Driver/Inc/stm32f3xx_ll_system.h **** #endif /* SYSCFG_CFGR3_DAC1_TRG3_RMP */
 284:Drivers/STM32F3xx_HAL_Driver/Inc/stm32f3xx_ll_system.h **** #if defined(SYSCFG_CFGR3_DAC1_TRG5_RMP)
 285:Drivers/STM32F3xx_HAL_Driver/Inc/stm32f3xx_ll_system.h **** #define LL_SYSCFG_DAC1_TRIG5_RMP_NO                (SYSCFG_OFFSET_CFGR3 << 24U | SYSCFG_CFGR3_DAC1_
 286:Drivers/STM32F3xx_HAL_Driver/Inc/stm32f3xx_ll_system.h **** #define LL_SYSCFG_DAC1_TRIG5_RMP_HRTIM1_DAC1_TRIG2 (SYSCFG_OFFSET_CFGR3 << 24U | SYSCFG_CFGR3_DAC1_
 287:Drivers/STM32F3xx_HAL_Driver/Inc/stm32f3xx_ll_system.h **** #endif /* SYSCFG_CFGR3_DAC1_TRG5_RMP */
 288:Drivers/STM32F3xx_HAL_Driver/Inc/stm32f3xx_ll_system.h **** /**
 289:Drivers/STM32F3xx_HAL_Driver/Inc/stm32f3xx_ll_system.h ****   * @}
 290:Drivers/STM32F3xx_HAL_Driver/Inc/stm32f3xx_ll_system.h ****   */
 291:Drivers/STM32F3xx_HAL_Driver/Inc/stm32f3xx_ll_system.h **** 
 292:Drivers/STM32F3xx_HAL_Driver/Inc/stm32f3xx_ll_system.h **** #endif /* SYSCFG_CFGR1_DAC1_TRIG1_RMP || SYSCFG_CFGR3_TRIGGER_RMP */
 293:Drivers/STM32F3xx_HAL_Driver/Inc/stm32f3xx_ll_system.h **** 
 294:Drivers/STM32F3xx_HAL_Driver/Inc/stm32f3xx_ll_system.h **** /** @defgroup SYSTEM_LL_EC_I2C_FASTMODEPLUS SYSCFG I2C FASTMODEPLUS
 295:Drivers/STM32F3xx_HAL_Driver/Inc/stm32f3xx_ll_system.h ****   * @{
 296:Drivers/STM32F3xx_HAL_Driver/Inc/stm32f3xx_ll_system.h ****   */
 297:Drivers/STM32F3xx_HAL_Driver/Inc/stm32f3xx_ll_system.h **** #define LL_SYSCFG_I2C_FASTMODEPLUS_PB6     SYSCFG_CFGR1_I2C_PB6_FMP  /*!< I2C PB6 Fast mode plus */
 298:Drivers/STM32F3xx_HAL_Driver/Inc/stm32f3xx_ll_system.h **** #define LL_SYSCFG_I2C_FASTMODEPLUS_PB7     SYSCFG_CFGR1_I2C_PB7_FMP  /*!< I2C PB7 Fast mode plus */
 299:Drivers/STM32F3xx_HAL_Driver/Inc/stm32f3xx_ll_system.h **** #define LL_SYSCFG_I2C_FASTMODEPLUS_PB8     SYSCFG_CFGR1_I2C_PB8_FMP  /*!< I2C PB8 Fast mode plus */
 300:Drivers/STM32F3xx_HAL_Driver/Inc/stm32f3xx_ll_system.h **** #define LL_SYSCFG_I2C_FASTMODEPLUS_PB9     SYSCFG_CFGR1_I2C_PB9_FMP  /*!< I2C PB9 Fast mode plus */
 301:Drivers/STM32F3xx_HAL_Driver/Inc/stm32f3xx_ll_system.h **** #define LL_SYSCFG_I2C_FASTMODEPLUS_I2C1    SYSCFG_CFGR1_I2C1_FMP     /*!< I2C1 Fast mode plus    */
 302:Drivers/STM32F3xx_HAL_Driver/Inc/stm32f3xx_ll_system.h **** #if defined(SYSCFG_CFGR1_I2C2_FMP)
 303:Drivers/STM32F3xx_HAL_Driver/Inc/stm32f3xx_ll_system.h **** #define LL_SYSCFG_I2C_FASTMODEPLUS_I2C2    SYSCFG_CFGR1_I2C2_FMP     /*!< I2C2 Fast mode plus    */
 304:Drivers/STM32F3xx_HAL_Driver/Inc/stm32f3xx_ll_system.h **** #endif /*SYSCFG_CFGR1_I2C2_FMP*/
 305:Drivers/STM32F3xx_HAL_Driver/Inc/stm32f3xx_ll_system.h **** #if defined(SYSCFG_CFGR1_I2C3_FMP)
 306:Drivers/STM32F3xx_HAL_Driver/Inc/stm32f3xx_ll_system.h **** #define LL_SYSCFG_I2C_FASTMODEPLUS_I2C3    SYSCFG_CFGR1_I2C3_FMP     /*!< I2C3 Fast mode plus    */
 307:Drivers/STM32F3xx_HAL_Driver/Inc/stm32f3xx_ll_system.h **** #endif /*SYSCFG_CFGR1_I2C3_FMP*/
 308:Drivers/STM32F3xx_HAL_Driver/Inc/stm32f3xx_ll_system.h **** /**
 309:Drivers/STM32F3xx_HAL_Driver/Inc/stm32f3xx_ll_system.h ****   * @}
 310:Drivers/STM32F3xx_HAL_Driver/Inc/stm32f3xx_ll_system.h ****   */
 311:Drivers/STM32F3xx_HAL_Driver/Inc/stm32f3xx_ll_system.h **** 
 312:Drivers/STM32F3xx_HAL_Driver/Inc/stm32f3xx_ll_system.h **** /** @defgroup SYSTEM_LL_EC_EXTI_PORT SYSCFG EXTI PORT
 313:Drivers/STM32F3xx_HAL_Driver/Inc/stm32f3xx_ll_system.h ****   * @{
 314:Drivers/STM32F3xx_HAL_Driver/Inc/stm32f3xx_ll_system.h ****   */
 315:Drivers/STM32F3xx_HAL_Driver/Inc/stm32f3xx_ll_system.h **** #define LL_SYSCFG_EXTI_PORTA               (uint32_t)0U /*!< EXTI PORT A  */
 316:Drivers/STM32F3xx_HAL_Driver/Inc/stm32f3xx_ll_system.h **** #define LL_SYSCFG_EXTI_PORTB               (uint32_t)1U /*!< EXTI PORT B  */
 317:Drivers/STM32F3xx_HAL_Driver/Inc/stm32f3xx_ll_system.h **** #define LL_SYSCFG_EXTI_PORTC               (uint32_t)2U /*!< EXTI PORT C  */
 318:Drivers/STM32F3xx_HAL_Driver/Inc/stm32f3xx_ll_system.h **** #define LL_SYSCFG_EXTI_PORTD               (uint32_t)3U /*!< EXTI PORT D  */
 319:Drivers/STM32F3xx_HAL_Driver/Inc/stm32f3xx_ll_system.h **** #if defined(GPIOE)
 320:Drivers/STM32F3xx_HAL_Driver/Inc/stm32f3xx_ll_system.h **** #define LL_SYSCFG_EXTI_PORTE               (uint32_t)4U /*!< EXTI PORT E  */
 321:Drivers/STM32F3xx_HAL_Driver/Inc/stm32f3xx_ll_system.h **** #endif /* GPIOE */
 322:Drivers/STM32F3xx_HAL_Driver/Inc/stm32f3xx_ll_system.h **** #define LL_SYSCFG_EXTI_PORTF               (uint32_t)5U /*!< EXTI PORT F  */
 323:Drivers/STM32F3xx_HAL_Driver/Inc/stm32f3xx_ll_system.h **** #if defined(GPIOG)
 324:Drivers/STM32F3xx_HAL_Driver/Inc/stm32f3xx_ll_system.h **** #define LL_SYSCFG_EXTI_PORTG               (uint32_t)6U /*!< EXTI PORT G  */
ARM GAS  /tmp/cc1L2lRe.s 			page 37


 325:Drivers/STM32F3xx_HAL_Driver/Inc/stm32f3xx_ll_system.h **** #endif /* GPIOG */
 326:Drivers/STM32F3xx_HAL_Driver/Inc/stm32f3xx_ll_system.h **** #if defined(GPIOH)
 327:Drivers/STM32F3xx_HAL_Driver/Inc/stm32f3xx_ll_system.h **** #define LL_SYSCFG_EXTI_PORTH               (uint32_t)7U /*!< EXTI PORT H  */
 328:Drivers/STM32F3xx_HAL_Driver/Inc/stm32f3xx_ll_system.h **** #endif /* GPIOH */
 329:Drivers/STM32F3xx_HAL_Driver/Inc/stm32f3xx_ll_system.h **** /**
 330:Drivers/STM32F3xx_HAL_Driver/Inc/stm32f3xx_ll_system.h ****   * @}
 331:Drivers/STM32F3xx_HAL_Driver/Inc/stm32f3xx_ll_system.h ****   */
 332:Drivers/STM32F3xx_HAL_Driver/Inc/stm32f3xx_ll_system.h **** 
 333:Drivers/STM32F3xx_HAL_Driver/Inc/stm32f3xx_ll_system.h **** /** @defgroup SYSTEM_LL_EC_EXTI_LINE SYSCFG EXTI LINE
 334:Drivers/STM32F3xx_HAL_Driver/Inc/stm32f3xx_ll_system.h ****   * @{
 335:Drivers/STM32F3xx_HAL_Driver/Inc/stm32f3xx_ll_system.h ****   */
 336:Drivers/STM32F3xx_HAL_Driver/Inc/stm32f3xx_ll_system.h **** #define LL_SYSCFG_EXTI_LINE0               (uint32_t)(0x000FU << 16U | 0U)  /* EXTI_POSITION_0  | E
 337:Drivers/STM32F3xx_HAL_Driver/Inc/stm32f3xx_ll_system.h **** #define LL_SYSCFG_EXTI_LINE1               (uint32_t)(0x00F0U << 16U | 0U)  /* EXTI_POSITION_4  | E
 338:Drivers/STM32F3xx_HAL_Driver/Inc/stm32f3xx_ll_system.h **** #define LL_SYSCFG_EXTI_LINE2               (uint32_t)(0x0F00U << 16U | 0U)  /* EXTI_POSITION_8  | E
 339:Drivers/STM32F3xx_HAL_Driver/Inc/stm32f3xx_ll_system.h **** #define LL_SYSCFG_EXTI_LINE3               (uint32_t)(0xF000U << 16U | 0U)  /* EXTI_POSITION_12 | E
 340:Drivers/STM32F3xx_HAL_Driver/Inc/stm32f3xx_ll_system.h **** #define LL_SYSCFG_EXTI_LINE4               (uint32_t)(0x000FU << 16U | 1U)  /* EXTI_POSITION_0  | E
 341:Drivers/STM32F3xx_HAL_Driver/Inc/stm32f3xx_ll_system.h **** #define LL_SYSCFG_EXTI_LINE5               (uint32_t)(0x00F0U << 16U | 1U)  /* EXTI_POSITION_4  | E
 342:Drivers/STM32F3xx_HAL_Driver/Inc/stm32f3xx_ll_system.h **** #define LL_SYSCFG_EXTI_LINE6               (uint32_t)(0x0F00U << 16U | 1U)  /* EXTI_POSITION_8  | E
 343:Drivers/STM32F3xx_HAL_Driver/Inc/stm32f3xx_ll_system.h **** #define LL_SYSCFG_EXTI_LINE7               (uint32_t)(0xF000U << 16U | 1U)  /* EXTI_POSITION_12 | E
 344:Drivers/STM32F3xx_HAL_Driver/Inc/stm32f3xx_ll_system.h **** #define LL_SYSCFG_EXTI_LINE8               (uint32_t)(0x000FU << 16U | 2U)  /* EXTI_POSITION_0  | E
 345:Drivers/STM32F3xx_HAL_Driver/Inc/stm32f3xx_ll_system.h **** #define LL_SYSCFG_EXTI_LINE9               (uint32_t)(0x00F0U << 16U | 2U)  /* EXTI_POSITION_4  | E
 346:Drivers/STM32F3xx_HAL_Driver/Inc/stm32f3xx_ll_system.h **** #define LL_SYSCFG_EXTI_LINE10              (uint32_t)(0x0F00U << 16U | 2U)  /* EXTI_POSITION_8  | E
 347:Drivers/STM32F3xx_HAL_Driver/Inc/stm32f3xx_ll_system.h **** #define LL_SYSCFG_EXTI_LINE11              (uint32_t)(0xF000U << 16U | 2U)  /* EXTI_POSITION_12 | E
 348:Drivers/STM32F3xx_HAL_Driver/Inc/stm32f3xx_ll_system.h **** #define LL_SYSCFG_EXTI_LINE12              (uint32_t)(0x000FU << 16U | 3U)  /* EXTI_POSITION_0  | E
 349:Drivers/STM32F3xx_HAL_Driver/Inc/stm32f3xx_ll_system.h **** #define LL_SYSCFG_EXTI_LINE13              (uint32_t)(0x00F0U << 16U | 3U)  /* EXTI_POSITION_4  | E
 350:Drivers/STM32F3xx_HAL_Driver/Inc/stm32f3xx_ll_system.h **** #define LL_SYSCFG_EXTI_LINE14              (uint32_t)(0x0F00U << 16U | 3U)  /* EXTI_POSITION_8  | E
 351:Drivers/STM32F3xx_HAL_Driver/Inc/stm32f3xx_ll_system.h **** #define LL_SYSCFG_EXTI_LINE15              (uint32_t)(0xF000U << 16U | 3U)  /* EXTI_POSITION_12 | E
 352:Drivers/STM32F3xx_HAL_Driver/Inc/stm32f3xx_ll_system.h **** /**
 353:Drivers/STM32F3xx_HAL_Driver/Inc/stm32f3xx_ll_system.h ****   * @}
 354:Drivers/STM32F3xx_HAL_Driver/Inc/stm32f3xx_ll_system.h ****   */
 355:Drivers/STM32F3xx_HAL_Driver/Inc/stm32f3xx_ll_system.h **** 
 356:Drivers/STM32F3xx_HAL_Driver/Inc/stm32f3xx_ll_system.h **** /** @defgroup SYSTEM_LL_EC_TIMBREAK SYSCFG TIMER BREAK
 357:Drivers/STM32F3xx_HAL_Driver/Inc/stm32f3xx_ll_system.h ****   * @{
 358:Drivers/STM32F3xx_HAL_Driver/Inc/stm32f3xx_ll_system.h ****   */
 359:Drivers/STM32F3xx_HAL_Driver/Inc/stm32f3xx_ll_system.h **** #if defined(SYSCFG_CFGR2_PVD_LOCK)
 360:Drivers/STM32F3xx_HAL_Driver/Inc/stm32f3xx_ll_system.h **** #define LL_SYSCFG_TIMBREAK_PVD             SYSCFG_CFGR2_PVD_LOCK           /*!< Enables and locks t
 361:Drivers/STM32F3xx_HAL_Driver/Inc/stm32f3xx_ll_system.h **** #endif /*SYSCFG_CFGR2_PVD_LOCK*/
 362:Drivers/STM32F3xx_HAL_Driver/Inc/stm32f3xx_ll_system.h **** #if defined(SYSCFG_CFGR2_SRAM_PARITY_LOCK)
 363:Drivers/STM32F3xx_HAL_Driver/Inc/stm32f3xx_ll_system.h **** #define LL_SYSCFG_TIMBREAK_SRAM_PARITY     SYSCFG_CFGR2_SRAM_PARITY_LOCK   /*!< Enables and locks t
 364:Drivers/STM32F3xx_HAL_Driver/Inc/stm32f3xx_ll_system.h **** #endif /* SYSCFG_CFGR2_SRAM_PARITY_LOCK */
 365:Drivers/STM32F3xx_HAL_Driver/Inc/stm32f3xx_ll_system.h **** #define LL_SYSCFG_TIMBREAK_LOCKUP          SYSCFG_CFGR2_LOCKUP_LOCK        /*!< Enables and locks t
 366:Drivers/STM32F3xx_HAL_Driver/Inc/stm32f3xx_ll_system.h **** /**
 367:Drivers/STM32F3xx_HAL_Driver/Inc/stm32f3xx_ll_system.h ****   * @}
 368:Drivers/STM32F3xx_HAL_Driver/Inc/stm32f3xx_ll_system.h ****   */
 369:Drivers/STM32F3xx_HAL_Driver/Inc/stm32f3xx_ll_system.h **** 
 370:Drivers/STM32F3xx_HAL_Driver/Inc/stm32f3xx_ll_system.h **** #if defined(SYSCFG_RCR_PAGE0)
 371:Drivers/STM32F3xx_HAL_Driver/Inc/stm32f3xx_ll_system.h **** /** @defgroup SYSTEM_LL_EC_CCMSRAMWRP SYSCFG CCM SRAM WRP
 372:Drivers/STM32F3xx_HAL_Driver/Inc/stm32f3xx_ll_system.h ****   * @{
 373:Drivers/STM32F3xx_HAL_Driver/Inc/stm32f3xx_ll_system.h ****   */
 374:Drivers/STM32F3xx_HAL_Driver/Inc/stm32f3xx_ll_system.h **** #define LL_SYSCFG_CCMSRAMWRP_PAGE0         SYSCFG_RCR_PAGE0  /*!< ICODE SRAM Write protection page 
 375:Drivers/STM32F3xx_HAL_Driver/Inc/stm32f3xx_ll_system.h **** #define LL_SYSCFG_CCMSRAMWRP_PAGE1         SYSCFG_RCR_PAGE1  /*!< ICODE SRAM Write protection page 
 376:Drivers/STM32F3xx_HAL_Driver/Inc/stm32f3xx_ll_system.h **** #define LL_SYSCFG_CCMSRAMWRP_PAGE2         SYSCFG_RCR_PAGE2  /*!< ICODE SRAM Write protection page 
 377:Drivers/STM32F3xx_HAL_Driver/Inc/stm32f3xx_ll_system.h **** #define LL_SYSCFG_CCMSRAMWRP_PAGE3         SYSCFG_RCR_PAGE3  /*!< ICODE SRAM Write protection page 
 378:Drivers/STM32F3xx_HAL_Driver/Inc/stm32f3xx_ll_system.h **** #if defined(SYSCFG_RCR_PAGE4)
 379:Drivers/STM32F3xx_HAL_Driver/Inc/stm32f3xx_ll_system.h **** #define LL_SYSCFG_CCMSRAMWRP_PAGE4         SYSCFG_RCR_PAGE4  /*!< ICODE SRAM Write protection page 
 380:Drivers/STM32F3xx_HAL_Driver/Inc/stm32f3xx_ll_system.h **** #define LL_SYSCFG_CCMSRAMWRP_PAGE5         SYSCFG_RCR_PAGE5  /*!< ICODE SRAM Write protection page 
 381:Drivers/STM32F3xx_HAL_Driver/Inc/stm32f3xx_ll_system.h **** #define LL_SYSCFG_CCMSRAMWRP_PAGE6         SYSCFG_RCR_PAGE6  /*!< ICODE SRAM Write protection page 
ARM GAS  /tmp/cc1L2lRe.s 			page 38


 382:Drivers/STM32F3xx_HAL_Driver/Inc/stm32f3xx_ll_system.h **** #define LL_SYSCFG_CCMSRAMWRP_PAGE7         SYSCFG_RCR_PAGE7  /*!< ICODE SRAM Write protection page 
 383:Drivers/STM32F3xx_HAL_Driver/Inc/stm32f3xx_ll_system.h **** #endif
 384:Drivers/STM32F3xx_HAL_Driver/Inc/stm32f3xx_ll_system.h **** #if defined(SYSCFG_RCR_PAGE8)
 385:Drivers/STM32F3xx_HAL_Driver/Inc/stm32f3xx_ll_system.h **** #define LL_SYSCFG_CCMSRAMWRP_PAGE8         SYSCFG_RCR_PAGE8  /*!< ICODE SRAM Write protection page 
 386:Drivers/STM32F3xx_HAL_Driver/Inc/stm32f3xx_ll_system.h **** #define LL_SYSCFG_CCMSRAMWRP_PAGE9         SYSCFG_RCR_PAGE9  /*!< ICODE SRAM Write protection page 
 387:Drivers/STM32F3xx_HAL_Driver/Inc/stm32f3xx_ll_system.h **** #define LL_SYSCFG_CCMSRAMWRP_PAGE10        SYSCFG_RCR_PAGE10 /*!< ICODE SRAM Write protection page 
 388:Drivers/STM32F3xx_HAL_Driver/Inc/stm32f3xx_ll_system.h **** #define LL_SYSCFG_CCMSRAMWRP_PAGE11        SYSCFG_RCR_PAGE11 /*!< ICODE SRAM Write protection page 
 389:Drivers/STM32F3xx_HAL_Driver/Inc/stm32f3xx_ll_system.h **** #define LL_SYSCFG_CCMSRAMWRP_PAGE12        SYSCFG_RCR_PAGE12 /*!< ICODE SRAM Write protection page 
 390:Drivers/STM32F3xx_HAL_Driver/Inc/stm32f3xx_ll_system.h **** #define LL_SYSCFG_CCMSRAMWRP_PAGE13        SYSCFG_RCR_PAGE13 /*!< ICODE SRAM Write protection page 
 391:Drivers/STM32F3xx_HAL_Driver/Inc/stm32f3xx_ll_system.h **** #define LL_SYSCFG_CCMSRAMWRP_PAGE14        SYSCFG_RCR_PAGE14 /*!< ICODE SRAM Write protection page 
 392:Drivers/STM32F3xx_HAL_Driver/Inc/stm32f3xx_ll_system.h **** #define LL_SYSCFG_CCMSRAMWRP_PAGE15        SYSCFG_RCR_PAGE15 /*!< ICODE SRAM Write protection page 
 393:Drivers/STM32F3xx_HAL_Driver/Inc/stm32f3xx_ll_system.h **** #endif
 394:Drivers/STM32F3xx_HAL_Driver/Inc/stm32f3xx_ll_system.h **** /**
 395:Drivers/STM32F3xx_HAL_Driver/Inc/stm32f3xx_ll_system.h ****   * @}
 396:Drivers/STM32F3xx_HAL_Driver/Inc/stm32f3xx_ll_system.h ****   */
 397:Drivers/STM32F3xx_HAL_Driver/Inc/stm32f3xx_ll_system.h **** 
 398:Drivers/STM32F3xx_HAL_Driver/Inc/stm32f3xx_ll_system.h **** #endif /* SYSCFG_RCR_PAGE0 */
 399:Drivers/STM32F3xx_HAL_Driver/Inc/stm32f3xx_ll_system.h **** 
 400:Drivers/STM32F3xx_HAL_Driver/Inc/stm32f3xx_ll_system.h **** /** @defgroup SYSTEM_LL_EC_TRACE DBGMCU TRACE Pin Assignment
 401:Drivers/STM32F3xx_HAL_Driver/Inc/stm32f3xx_ll_system.h ****   * @{
 402:Drivers/STM32F3xx_HAL_Driver/Inc/stm32f3xx_ll_system.h ****   */
 403:Drivers/STM32F3xx_HAL_Driver/Inc/stm32f3xx_ll_system.h **** #define LL_DBGMCU_TRACE_NONE               0x00000000U                                     /*!< TRA
 404:Drivers/STM32F3xx_HAL_Driver/Inc/stm32f3xx_ll_system.h **** #define LL_DBGMCU_TRACE_ASYNCH             DBGMCU_CR_TRACE_IOEN                            /*!< TRA
 405:Drivers/STM32F3xx_HAL_Driver/Inc/stm32f3xx_ll_system.h **** #define LL_DBGMCU_TRACE_SYNCH_SIZE1        (DBGMCU_CR_TRACE_IOEN | DBGMCU_CR_TRACE_MODE_0) /*!< TRA
 406:Drivers/STM32F3xx_HAL_Driver/Inc/stm32f3xx_ll_system.h **** #define LL_DBGMCU_TRACE_SYNCH_SIZE2        (DBGMCU_CR_TRACE_IOEN | DBGMCU_CR_TRACE_MODE_1) /*!< TRA
 407:Drivers/STM32F3xx_HAL_Driver/Inc/stm32f3xx_ll_system.h **** #define LL_DBGMCU_TRACE_SYNCH_SIZE4        (DBGMCU_CR_TRACE_IOEN | DBGMCU_CR_TRACE_MODE)   /*!< TRA
 408:Drivers/STM32F3xx_HAL_Driver/Inc/stm32f3xx_ll_system.h **** /**
 409:Drivers/STM32F3xx_HAL_Driver/Inc/stm32f3xx_ll_system.h ****   * @}
 410:Drivers/STM32F3xx_HAL_Driver/Inc/stm32f3xx_ll_system.h ****   */
 411:Drivers/STM32F3xx_HAL_Driver/Inc/stm32f3xx_ll_system.h **** 
 412:Drivers/STM32F3xx_HAL_Driver/Inc/stm32f3xx_ll_system.h **** /** @defgroup SYSTEM_LL_EC_APB1_GRP1_STOP_IP DBGMCU APB1 GRP1 STOP IP
 413:Drivers/STM32F3xx_HAL_Driver/Inc/stm32f3xx_ll_system.h ****   * @{
 414:Drivers/STM32F3xx_HAL_Driver/Inc/stm32f3xx_ll_system.h ****   */
 415:Drivers/STM32F3xx_HAL_Driver/Inc/stm32f3xx_ll_system.h **** #define LL_DBGMCU_APB1_GRP1_TIM2_STOP      DBGMCU_APB1_FZ_DBG_TIM2_STOP          /*!< TIM2 counter 
 416:Drivers/STM32F3xx_HAL_Driver/Inc/stm32f3xx_ll_system.h **** #if defined(DBGMCU_APB1_FZ_DBG_TIM3_STOP)
 417:Drivers/STM32F3xx_HAL_Driver/Inc/stm32f3xx_ll_system.h **** #define LL_DBGMCU_APB1_GRP1_TIM3_STOP      DBGMCU_APB1_FZ_DBG_TIM3_STOP          /*!< TIM3 counter 
 418:Drivers/STM32F3xx_HAL_Driver/Inc/stm32f3xx_ll_system.h **** #endif /*DBGMCU_APB1_FZ_DBG_TIM3_STOP*/
 419:Drivers/STM32F3xx_HAL_Driver/Inc/stm32f3xx_ll_system.h **** #if defined(DBGMCU_APB1_FZ_DBG_TIM4_STOP)
 420:Drivers/STM32F3xx_HAL_Driver/Inc/stm32f3xx_ll_system.h **** #define LL_DBGMCU_APB1_GRP1_TIM4_STOP      DBGMCU_APB1_FZ_DBG_TIM4_STOP          /*!< TIM4 counter 
 421:Drivers/STM32F3xx_HAL_Driver/Inc/stm32f3xx_ll_system.h **** #endif /*DBGMCU_APB1_FZ_DBG_TIM4_STOP*/
 422:Drivers/STM32F3xx_HAL_Driver/Inc/stm32f3xx_ll_system.h **** #if defined(DBGMCU_APB1_FZ_DBG_TIM5_STOP)
 423:Drivers/STM32F3xx_HAL_Driver/Inc/stm32f3xx_ll_system.h **** #define LL_DBGMCU_APB1_GRP1_TIM5_STOP      DBGMCU_APB1_FZ_DBG_TIM5_STOP          /*!< TIM5 counter 
 424:Drivers/STM32F3xx_HAL_Driver/Inc/stm32f3xx_ll_system.h **** #endif /*DBGMCU_APB1_FZ_DBG_TIM5_STOP*/
 425:Drivers/STM32F3xx_HAL_Driver/Inc/stm32f3xx_ll_system.h **** #define LL_DBGMCU_APB1_GRP1_TIM6_STOP      DBGMCU_APB1_FZ_DBG_TIM6_STOP          /*!< TIM6 counter 
 426:Drivers/STM32F3xx_HAL_Driver/Inc/stm32f3xx_ll_system.h **** #if defined(DBGMCU_APB1_FZ_DBG_TIM7_STOP)
 427:Drivers/STM32F3xx_HAL_Driver/Inc/stm32f3xx_ll_system.h **** #define LL_DBGMCU_APB1_GRP1_TIM7_STOP      DBGMCU_APB1_FZ_DBG_TIM7_STOP          /*!< TIM7 counter 
 428:Drivers/STM32F3xx_HAL_Driver/Inc/stm32f3xx_ll_system.h **** #endif /*DBGMCU_APB1_FZ_DBG_TIM7_STOP*/
 429:Drivers/STM32F3xx_HAL_Driver/Inc/stm32f3xx_ll_system.h **** #if defined(DBGMCU_APB1_FZ_DBG_TIM12_STOP)
 430:Drivers/STM32F3xx_HAL_Driver/Inc/stm32f3xx_ll_system.h **** #define LL_DBGMCU_APB1_GRP1_TIM12_STOP     DBGMCU_APB1_FZ_DBG_TIM12_STOP         /*!< TIM12 counter
 431:Drivers/STM32F3xx_HAL_Driver/Inc/stm32f3xx_ll_system.h **** #endif /*DBGMCU_APB1_FZ_DBG_TIM12_STOP*/
 432:Drivers/STM32F3xx_HAL_Driver/Inc/stm32f3xx_ll_system.h **** #if defined(DBGMCU_APB1_FZ_DBG_TIM13_STOP)
 433:Drivers/STM32F3xx_HAL_Driver/Inc/stm32f3xx_ll_system.h **** #define LL_DBGMCU_APB1_GRP1_TIM13_STOP     DBGMCU_APB1_FZ_DBG_TIM13_STOP         /*!< TIM13 counter
 434:Drivers/STM32F3xx_HAL_Driver/Inc/stm32f3xx_ll_system.h **** #endif /*DBGMCU_APB1_FZ_DBG_TIM13_STOP*/
 435:Drivers/STM32F3xx_HAL_Driver/Inc/stm32f3xx_ll_system.h **** #if defined(DBGMCU_APB1_FZ_DBG_TIM14_STOP)
 436:Drivers/STM32F3xx_HAL_Driver/Inc/stm32f3xx_ll_system.h **** #define LL_DBGMCU_APB1_GRP1_TIM14_STOP     DBGMCU_APB1_FZ_DBG_TIM14_STOP         /*!< TIM14 counter
 437:Drivers/STM32F3xx_HAL_Driver/Inc/stm32f3xx_ll_system.h **** #endif /*DBGMCU_APB1_FZ_DBG_TIM14_STOP*/
 438:Drivers/STM32F3xx_HAL_Driver/Inc/stm32f3xx_ll_system.h **** #if defined(DBGMCU_APB1_FZ_DBG_TIM18_STOP)
ARM GAS  /tmp/cc1L2lRe.s 			page 39


 439:Drivers/STM32F3xx_HAL_Driver/Inc/stm32f3xx_ll_system.h **** #define LL_DBGMCU_APB1_GRP1_TIM18_STOP     DBGMCU_APB1_FZ_DBG_TIM18_STOP         /*!< TIM18 counter
 440:Drivers/STM32F3xx_HAL_Driver/Inc/stm32f3xx_ll_system.h **** #endif /*DBGMCU_APB1_FZ_DBG_TIM18_STOP*/
 441:Drivers/STM32F3xx_HAL_Driver/Inc/stm32f3xx_ll_system.h **** #define LL_DBGMCU_APB1_GRP1_RTC_STOP       DBGMCU_APB1_FZ_DBG_RTC_STOP           /*!< RTC counter s
 442:Drivers/STM32F3xx_HAL_Driver/Inc/stm32f3xx_ll_system.h **** #define LL_DBGMCU_APB1_GRP1_WWDG_STOP      DBGMCU_APB1_FZ_DBG_WWDG_STOP          /*!< Debug Window 
 443:Drivers/STM32F3xx_HAL_Driver/Inc/stm32f3xx_ll_system.h **** #define LL_DBGMCU_APB1_GRP1_IWDG_STOP      DBGMCU_APB1_FZ_DBG_IWDG_STOP          /*!< Debug Indepen
 444:Drivers/STM32F3xx_HAL_Driver/Inc/stm32f3xx_ll_system.h **** #define LL_DBGMCU_APB1_GRP1_I2C1_STOP      DBGMCU_APB1_FZ_DBG_I2C1_SMBUS_TIMEOUT /*!< I2C1 SMBUS ti
 445:Drivers/STM32F3xx_HAL_Driver/Inc/stm32f3xx_ll_system.h **** #if defined(DBGMCU_APB1_FZ_DBG_I2C2_SMBUS_TIMEOUT)
 446:Drivers/STM32F3xx_HAL_Driver/Inc/stm32f3xx_ll_system.h **** #define LL_DBGMCU_APB1_GRP1_I2C2_STOP      DBGMCU_APB1_FZ_DBG_I2C2_SMBUS_TIMEOUT /*!< I2C2 SMBUS ti
 447:Drivers/STM32F3xx_HAL_Driver/Inc/stm32f3xx_ll_system.h **** #endif /*DBGMCU_APB1_FZ_DBG_I2C2_SMBUS_TIMEOUT*/
 448:Drivers/STM32F3xx_HAL_Driver/Inc/stm32f3xx_ll_system.h **** #if defined(DBGMCU_APB1_FZ_DBG_I2C3_SMBUS_TIMEOUT)
 449:Drivers/STM32F3xx_HAL_Driver/Inc/stm32f3xx_ll_system.h **** #define LL_DBGMCU_APB1_GRP1_I2C3_STOP      DBGMCU_APB1_FZ_DBG_I2C3_SMBUS_TIMEOUT /*!< I2C3 SMBUS ti
 450:Drivers/STM32F3xx_HAL_Driver/Inc/stm32f3xx_ll_system.h **** #endif /*DBGMCU_APB1_FZ_DBG_I2C3_SMBUS_TIMEOUT*/
 451:Drivers/STM32F3xx_HAL_Driver/Inc/stm32f3xx_ll_system.h **** #if defined(DBGMCU_APB1_FZ_DBG_CAN_STOP)
 452:Drivers/STM32F3xx_HAL_Driver/Inc/stm32f3xx_ll_system.h **** #define LL_DBGMCU_APB1_GRP1_CAN_STOP       DBGMCU_APB1_FZ_DBG_CAN_STOP            /*!< CAN debug st
 453:Drivers/STM32F3xx_HAL_Driver/Inc/stm32f3xx_ll_system.h **** #endif /*DBGMCU_APB1_FZ_DBG_CAN_STOP*/
 454:Drivers/STM32F3xx_HAL_Driver/Inc/stm32f3xx_ll_system.h **** /**
 455:Drivers/STM32F3xx_HAL_Driver/Inc/stm32f3xx_ll_system.h ****   * @}
 456:Drivers/STM32F3xx_HAL_Driver/Inc/stm32f3xx_ll_system.h ****   */
 457:Drivers/STM32F3xx_HAL_Driver/Inc/stm32f3xx_ll_system.h **** 
 458:Drivers/STM32F3xx_HAL_Driver/Inc/stm32f3xx_ll_system.h **** /** @defgroup SYSTEM_LL_EC_APB2_GRP1_STOP_IP DBGMCU APB2 GRP1 STOP IP
 459:Drivers/STM32F3xx_HAL_Driver/Inc/stm32f3xx_ll_system.h ****   * @{
 460:Drivers/STM32F3xx_HAL_Driver/Inc/stm32f3xx_ll_system.h ****   */
 461:Drivers/STM32F3xx_HAL_Driver/Inc/stm32f3xx_ll_system.h **** #if defined(DBGMCU_APB2_FZ_DBG_TIM1_STOP)
 462:Drivers/STM32F3xx_HAL_Driver/Inc/stm32f3xx_ll_system.h **** #define LL_DBGMCU_APB2_GRP1_TIM1_STOP      DBGMCU_APB2_FZ_DBG_TIM1_STOP   /*!< TIM1 counter stopped
 463:Drivers/STM32F3xx_HAL_Driver/Inc/stm32f3xx_ll_system.h **** #endif /*DBGMCU_APB2_FZ_DBG_TIM1_STOP*/
 464:Drivers/STM32F3xx_HAL_Driver/Inc/stm32f3xx_ll_system.h **** #if defined(DBGMCU_APB2_FZ_DBG_TIM8_STOP)
 465:Drivers/STM32F3xx_HAL_Driver/Inc/stm32f3xx_ll_system.h **** #define LL_DBGMCU_APB2_GRP1_TIM8_STOP      DBGMCU_APB2_FZ_DBG_TIM8_STOP   /*!< TIM8 counter stopped
 466:Drivers/STM32F3xx_HAL_Driver/Inc/stm32f3xx_ll_system.h **** #endif /*DBGMCU_APB2_FZ_DBG_TIM8_STOP*/
 467:Drivers/STM32F3xx_HAL_Driver/Inc/stm32f3xx_ll_system.h **** #define LL_DBGMCU_APB2_GRP1_TIM15_STOP     DBGMCU_APB2_FZ_DBG_TIM15_STOP  /*!< TIM15 counter stoppe
 468:Drivers/STM32F3xx_HAL_Driver/Inc/stm32f3xx_ll_system.h **** #define LL_DBGMCU_APB2_GRP1_TIM16_STOP     DBGMCU_APB2_FZ_DBG_TIM16_STOP  /*!< TIM16 counter stoppe
 469:Drivers/STM32F3xx_HAL_Driver/Inc/stm32f3xx_ll_system.h **** #define LL_DBGMCU_APB2_GRP1_TIM17_STOP     DBGMCU_APB2_FZ_DBG_TIM17_STOP  /*!< TIM17 counter stoppe
 470:Drivers/STM32F3xx_HAL_Driver/Inc/stm32f3xx_ll_system.h **** #if defined(DBGMCU_APB2_FZ_DBG_TIM19_STOP)
 471:Drivers/STM32F3xx_HAL_Driver/Inc/stm32f3xx_ll_system.h **** #define LL_DBGMCU_APB2_GRP1_TIM19_STOP     DBGMCU_APB2_FZ_DBG_TIM19_STOP  /*!< TIM19 counter stoppe
 472:Drivers/STM32F3xx_HAL_Driver/Inc/stm32f3xx_ll_system.h **** #endif /*DBGMCU_APB2_FZ_DBG_TIM19_STOP*/
 473:Drivers/STM32F3xx_HAL_Driver/Inc/stm32f3xx_ll_system.h **** #if defined(DBGMCU_APB2_FZ_DBG_TIM20_STOP)
 474:Drivers/STM32F3xx_HAL_Driver/Inc/stm32f3xx_ll_system.h **** #define LL_DBGMCU_APB2_GRP1_TIM20_STOP     DBGMCU_APB2_FZ_DBG_TIM20_STOP  /*!< TIM20 counter stoppe
 475:Drivers/STM32F3xx_HAL_Driver/Inc/stm32f3xx_ll_system.h **** #endif /*DBGMCU_APB2_FZ_DBG_TIM20_STOP*/
 476:Drivers/STM32F3xx_HAL_Driver/Inc/stm32f3xx_ll_system.h **** #if defined(DBGMCU_APB2_FZ_DBG_HRTIM1_STOP)
 477:Drivers/STM32F3xx_HAL_Driver/Inc/stm32f3xx_ll_system.h **** #define LL_DBGMCU_APB2_GRP1_HRTIM1_STOP    DBGMCU_APB2_FZ_DBG_HRTIM1_STOP /*!< HRTIM1 counter stopp
 478:Drivers/STM32F3xx_HAL_Driver/Inc/stm32f3xx_ll_system.h **** #endif /*DBGMCU_APB2_FZ_DBG_HRTIM1_STOP*/
 479:Drivers/STM32F3xx_HAL_Driver/Inc/stm32f3xx_ll_system.h **** /**
 480:Drivers/STM32F3xx_HAL_Driver/Inc/stm32f3xx_ll_system.h ****   * @}
 481:Drivers/STM32F3xx_HAL_Driver/Inc/stm32f3xx_ll_system.h ****   */
 482:Drivers/STM32F3xx_HAL_Driver/Inc/stm32f3xx_ll_system.h **** 
 483:Drivers/STM32F3xx_HAL_Driver/Inc/stm32f3xx_ll_system.h **** /** @defgroup SYSTEM_LL_EC_LATENCY FLASH LATENCY
 484:Drivers/STM32F3xx_HAL_Driver/Inc/stm32f3xx_ll_system.h ****   * @{
 485:Drivers/STM32F3xx_HAL_Driver/Inc/stm32f3xx_ll_system.h ****   */
 486:Drivers/STM32F3xx_HAL_Driver/Inc/stm32f3xx_ll_system.h **** #define LL_FLASH_LATENCY_0                 0x00000000U             /*!< FLASH Zero Latency cycle */
 487:Drivers/STM32F3xx_HAL_Driver/Inc/stm32f3xx_ll_system.h **** #define LL_FLASH_LATENCY_1                 FLASH_ACR_LATENCY_0     /*!< FLASH One Latency cycle */
 488:Drivers/STM32F3xx_HAL_Driver/Inc/stm32f3xx_ll_system.h **** #define LL_FLASH_LATENCY_2                 FLASH_ACR_LATENCY_1     /*!< FLASH Two Latency cycles */
 489:Drivers/STM32F3xx_HAL_Driver/Inc/stm32f3xx_ll_system.h **** /**
 490:Drivers/STM32F3xx_HAL_Driver/Inc/stm32f3xx_ll_system.h ****   * @}
 491:Drivers/STM32F3xx_HAL_Driver/Inc/stm32f3xx_ll_system.h ****   */
 492:Drivers/STM32F3xx_HAL_Driver/Inc/stm32f3xx_ll_system.h **** 
 493:Drivers/STM32F3xx_HAL_Driver/Inc/stm32f3xx_ll_system.h **** /**
 494:Drivers/STM32F3xx_HAL_Driver/Inc/stm32f3xx_ll_system.h ****   * @}
 495:Drivers/STM32F3xx_HAL_Driver/Inc/stm32f3xx_ll_system.h ****   */
ARM GAS  /tmp/cc1L2lRe.s 			page 40


 496:Drivers/STM32F3xx_HAL_Driver/Inc/stm32f3xx_ll_system.h **** 
 497:Drivers/STM32F3xx_HAL_Driver/Inc/stm32f3xx_ll_system.h **** /* Exported macro ------------------------------------------------------------*/
 498:Drivers/STM32F3xx_HAL_Driver/Inc/stm32f3xx_ll_system.h **** 
 499:Drivers/STM32F3xx_HAL_Driver/Inc/stm32f3xx_ll_system.h **** /* Exported functions --------------------------------------------------------*/
 500:Drivers/STM32F3xx_HAL_Driver/Inc/stm32f3xx_ll_system.h **** /** @defgroup SYSTEM_LL_Exported_Functions SYSTEM Exported Functions
 501:Drivers/STM32F3xx_HAL_Driver/Inc/stm32f3xx_ll_system.h ****   * @{
 502:Drivers/STM32F3xx_HAL_Driver/Inc/stm32f3xx_ll_system.h ****   */
 503:Drivers/STM32F3xx_HAL_Driver/Inc/stm32f3xx_ll_system.h **** 
 504:Drivers/STM32F3xx_HAL_Driver/Inc/stm32f3xx_ll_system.h **** /** @defgroup SYSTEM_LL_EF_SYSCFG SYSCFG
 505:Drivers/STM32F3xx_HAL_Driver/Inc/stm32f3xx_ll_system.h ****   * @{
 506:Drivers/STM32F3xx_HAL_Driver/Inc/stm32f3xx_ll_system.h ****   */
 507:Drivers/STM32F3xx_HAL_Driver/Inc/stm32f3xx_ll_system.h **** 
 508:Drivers/STM32F3xx_HAL_Driver/Inc/stm32f3xx_ll_system.h **** /**
 509:Drivers/STM32F3xx_HAL_Driver/Inc/stm32f3xx_ll_system.h ****   * @brief  Set memory mapping at address 0x00000000
 510:Drivers/STM32F3xx_HAL_Driver/Inc/stm32f3xx_ll_system.h ****   * @rmtoll SYSCFG_CFGR1 MEM_MODE      LL_SYSCFG_SetRemapMemory
 511:Drivers/STM32F3xx_HAL_Driver/Inc/stm32f3xx_ll_system.h ****   * @param  Memory This parameter can be one of the following values:
 512:Drivers/STM32F3xx_HAL_Driver/Inc/stm32f3xx_ll_system.h ****   *         @arg @ref LL_SYSCFG_REMAP_FLASH
 513:Drivers/STM32F3xx_HAL_Driver/Inc/stm32f3xx_ll_system.h ****   *         @arg @ref LL_SYSCFG_REMAP_SYSTEMFLASH
 514:Drivers/STM32F3xx_HAL_Driver/Inc/stm32f3xx_ll_system.h ****   *         @arg @ref LL_SYSCFG_REMAP_SRAM
 515:Drivers/STM32F3xx_HAL_Driver/Inc/stm32f3xx_ll_system.h ****   *         @arg @ref LL_SYSCFG_REMAP_FMC (*)
 516:Drivers/STM32F3xx_HAL_Driver/Inc/stm32f3xx_ll_system.h ****   *
 517:Drivers/STM32F3xx_HAL_Driver/Inc/stm32f3xx_ll_system.h ****   *         (*) value not defined in all devices.
 518:Drivers/STM32F3xx_HAL_Driver/Inc/stm32f3xx_ll_system.h ****   * @retval None
 519:Drivers/STM32F3xx_HAL_Driver/Inc/stm32f3xx_ll_system.h ****   */
 520:Drivers/STM32F3xx_HAL_Driver/Inc/stm32f3xx_ll_system.h **** __STATIC_INLINE void LL_SYSCFG_SetRemapMemory(uint32_t Memory)
 521:Drivers/STM32F3xx_HAL_Driver/Inc/stm32f3xx_ll_system.h **** {
 522:Drivers/STM32F3xx_HAL_Driver/Inc/stm32f3xx_ll_system.h ****   MODIFY_REG(SYSCFG->CFGR1, SYSCFG_CFGR1_MEM_MODE, Memory);
 523:Drivers/STM32F3xx_HAL_Driver/Inc/stm32f3xx_ll_system.h **** }
 524:Drivers/STM32F3xx_HAL_Driver/Inc/stm32f3xx_ll_system.h **** 
 525:Drivers/STM32F3xx_HAL_Driver/Inc/stm32f3xx_ll_system.h **** /**
 526:Drivers/STM32F3xx_HAL_Driver/Inc/stm32f3xx_ll_system.h ****   * @brief  Get memory mapping at address 0x00000000
 527:Drivers/STM32F3xx_HAL_Driver/Inc/stm32f3xx_ll_system.h ****   * @rmtoll SYSCFG_CFGR1 MEM_MODE      LL_SYSCFG_GetRemapMemory
 528:Drivers/STM32F3xx_HAL_Driver/Inc/stm32f3xx_ll_system.h ****   * @retval Returned value can be one of the following values:
 529:Drivers/STM32F3xx_HAL_Driver/Inc/stm32f3xx_ll_system.h ****   *         @arg @ref LL_SYSCFG_REMAP_FLASH
 530:Drivers/STM32F3xx_HAL_Driver/Inc/stm32f3xx_ll_system.h ****   *         @arg @ref LL_SYSCFG_REMAP_SYSTEMFLASH
 531:Drivers/STM32F3xx_HAL_Driver/Inc/stm32f3xx_ll_system.h ****   *         @arg @ref LL_SYSCFG_REMAP_SRAM
 532:Drivers/STM32F3xx_HAL_Driver/Inc/stm32f3xx_ll_system.h ****   *         @arg @ref LL_SYSCFG_REMAP_FMC (*)
 533:Drivers/STM32F3xx_HAL_Driver/Inc/stm32f3xx_ll_system.h ****   *
 534:Drivers/STM32F3xx_HAL_Driver/Inc/stm32f3xx_ll_system.h ****   *         (*) value not defined in all devices.
 535:Drivers/STM32F3xx_HAL_Driver/Inc/stm32f3xx_ll_system.h ****   */
 536:Drivers/STM32F3xx_HAL_Driver/Inc/stm32f3xx_ll_system.h **** __STATIC_INLINE uint32_t LL_SYSCFG_GetRemapMemory(void)
 537:Drivers/STM32F3xx_HAL_Driver/Inc/stm32f3xx_ll_system.h **** {
 538:Drivers/STM32F3xx_HAL_Driver/Inc/stm32f3xx_ll_system.h ****   return (uint32_t)(READ_BIT(SYSCFG->CFGR1, SYSCFG_CFGR1_MEM_MODE));
 539:Drivers/STM32F3xx_HAL_Driver/Inc/stm32f3xx_ll_system.h **** }
 540:Drivers/STM32F3xx_HAL_Driver/Inc/stm32f3xx_ll_system.h **** 
 541:Drivers/STM32F3xx_HAL_Driver/Inc/stm32f3xx_ll_system.h **** #if defined(SYSCFG_CFGR3_SPI1_RX_DMA_RMP)
 542:Drivers/STM32F3xx_HAL_Driver/Inc/stm32f3xx_ll_system.h **** /**
 543:Drivers/STM32F3xx_HAL_Driver/Inc/stm32f3xx_ll_system.h ****   * @brief  Set DMA request remapping bits for SPI
 544:Drivers/STM32F3xx_HAL_Driver/Inc/stm32f3xx_ll_system.h ****   * @rmtoll SYSCFG_CFGR3 SPI1_RX_DMA_RMP  LL_SYSCFG_SetRemapDMA_SPI\n
 545:Drivers/STM32F3xx_HAL_Driver/Inc/stm32f3xx_ll_system.h ****   *         SYSCFG_CFGR3 SPI1_TX_DMA_RMP  LL_SYSCFG_SetRemapDMA_SPI
 546:Drivers/STM32F3xx_HAL_Driver/Inc/stm32f3xx_ll_system.h ****   * @param  Remap This parameter can be one of the following values:
 547:Drivers/STM32F3xx_HAL_Driver/Inc/stm32f3xx_ll_system.h ****   *         @arg @ref LL_SYSCFG_SPI1RX_RMP_DMA1_CH2
 548:Drivers/STM32F3xx_HAL_Driver/Inc/stm32f3xx_ll_system.h ****   *         @arg @ref LL_SYSCFG_SPI1RX_RMP_DMA1_CH4
 549:Drivers/STM32F3xx_HAL_Driver/Inc/stm32f3xx_ll_system.h ****   *         @arg @ref LL_SYSCFG_SPI1RX_RMP_DMA1_CH6
 550:Drivers/STM32F3xx_HAL_Driver/Inc/stm32f3xx_ll_system.h ****   *         @arg @ref LL_SYSCFG_SPI1TX_RMP_DMA1_CH3
 551:Drivers/STM32F3xx_HAL_Driver/Inc/stm32f3xx_ll_system.h ****   *         @arg @ref LL_SYSCFG_SPI1TX_RMP_DMA1_CH5
 552:Drivers/STM32F3xx_HAL_Driver/Inc/stm32f3xx_ll_system.h ****   *         @arg @ref LL_SYSCFG_SPI1TX_RMP_DMA1_CH7
ARM GAS  /tmp/cc1L2lRe.s 			page 41


 553:Drivers/STM32F3xx_HAL_Driver/Inc/stm32f3xx_ll_system.h ****   * @retval None
 554:Drivers/STM32F3xx_HAL_Driver/Inc/stm32f3xx_ll_system.h ****   */
 555:Drivers/STM32F3xx_HAL_Driver/Inc/stm32f3xx_ll_system.h **** __STATIC_INLINE void LL_SYSCFG_SetRemapDMA_SPI(uint32_t Remap)
 556:Drivers/STM32F3xx_HAL_Driver/Inc/stm32f3xx_ll_system.h **** {
 557:Drivers/STM32F3xx_HAL_Driver/Inc/stm32f3xx_ll_system.h ****   MODIFY_REG(SYSCFG->CFGR3, (Remap >> 16U), (Remap & 0x0000FFFF));
 558:Drivers/STM32F3xx_HAL_Driver/Inc/stm32f3xx_ll_system.h **** }
 559:Drivers/STM32F3xx_HAL_Driver/Inc/stm32f3xx_ll_system.h **** #endif /* SYSCFG_CFGR3_SPI1_RX_DMA_RMP */
 560:Drivers/STM32F3xx_HAL_Driver/Inc/stm32f3xx_ll_system.h **** 
 561:Drivers/STM32F3xx_HAL_Driver/Inc/stm32f3xx_ll_system.h **** #if defined(SYSCFG_CFGR3_I2C1_RX_DMA_RMP)
 562:Drivers/STM32F3xx_HAL_Driver/Inc/stm32f3xx_ll_system.h **** /**
 563:Drivers/STM32F3xx_HAL_Driver/Inc/stm32f3xx_ll_system.h ****   * @brief  Set DMA request remapping bits for I2C
 564:Drivers/STM32F3xx_HAL_Driver/Inc/stm32f3xx_ll_system.h ****   * @rmtoll SYSCFG_CFGR3 I2C1_RX_DMA_RMP  LL_SYSCFG_SetRemapDMA_I2C\n
 565:Drivers/STM32F3xx_HAL_Driver/Inc/stm32f3xx_ll_system.h ****   *         SYSCFG_CFGR3 I2C1_TX_DMA_RMP  LL_SYSCFG_SetRemapDMA_I2C
 566:Drivers/STM32F3xx_HAL_Driver/Inc/stm32f3xx_ll_system.h ****   * @param  Remap This parameter can be one of the following values:
 567:Drivers/STM32F3xx_HAL_Driver/Inc/stm32f3xx_ll_system.h ****   *         @arg @ref LL_SYSCFG_I2C1RX_RMP_DMA1_CH7
 568:Drivers/STM32F3xx_HAL_Driver/Inc/stm32f3xx_ll_system.h ****   *         @arg @ref LL_SYSCFG_I2C1RX_RMP_DMA1_CH3
 569:Drivers/STM32F3xx_HAL_Driver/Inc/stm32f3xx_ll_system.h ****   *         @arg @ref LL_SYSCFG_I2C1RX_RMP_DMA1_CH5
 570:Drivers/STM32F3xx_HAL_Driver/Inc/stm32f3xx_ll_system.h ****   *         @arg @ref LL_SYSCFG_I2C1TX_RMP_DMA1_CH6
 571:Drivers/STM32F3xx_HAL_Driver/Inc/stm32f3xx_ll_system.h ****   *         @arg @ref LL_SYSCFG_I2C1TX_RMP_DMA1_CH2
 572:Drivers/STM32F3xx_HAL_Driver/Inc/stm32f3xx_ll_system.h ****   *         @arg @ref LL_SYSCFG_I2C1TX_RMP_DMA1_CH4
 573:Drivers/STM32F3xx_HAL_Driver/Inc/stm32f3xx_ll_system.h ****   * @retval None
 574:Drivers/STM32F3xx_HAL_Driver/Inc/stm32f3xx_ll_system.h ****   */
 575:Drivers/STM32F3xx_HAL_Driver/Inc/stm32f3xx_ll_system.h **** __STATIC_INLINE void LL_SYSCFG_SetRemapDMA_I2C(uint32_t Remap)
 576:Drivers/STM32F3xx_HAL_Driver/Inc/stm32f3xx_ll_system.h **** {
 577:Drivers/STM32F3xx_HAL_Driver/Inc/stm32f3xx_ll_system.h ****   MODIFY_REG(SYSCFG->CFGR3, (Remap >> 16U), (Remap & 0x0000FFFF));
 578:Drivers/STM32F3xx_HAL_Driver/Inc/stm32f3xx_ll_system.h **** }
 579:Drivers/STM32F3xx_HAL_Driver/Inc/stm32f3xx_ll_system.h **** #endif /* SYSCFG_CFGR3_I2C1_RX_DMA_RMP */
 580:Drivers/STM32F3xx_HAL_Driver/Inc/stm32f3xx_ll_system.h **** 
 581:Drivers/STM32F3xx_HAL_Driver/Inc/stm32f3xx_ll_system.h **** #if defined(SYSCFG_CFGR1_ADC24_DMA_RMP) || defined(SYSCFG_CFGR3_ADC2_DMA_RMP)
 582:Drivers/STM32F3xx_HAL_Driver/Inc/stm32f3xx_ll_system.h **** /**
 583:Drivers/STM32F3xx_HAL_Driver/Inc/stm32f3xx_ll_system.h ****   * @brief  Set DMA request remapping bits for ADC
 584:Drivers/STM32F3xx_HAL_Driver/Inc/stm32f3xx_ll_system.h ****   * @rmtoll SYSCFG_CFGR1 ADC24_DMA_RMP  LL_SYSCFG_SetRemapDMA_ADC\n
 585:Drivers/STM32F3xx_HAL_Driver/Inc/stm32f3xx_ll_system.h ****   *         SYSCFG_CFGR3 ADC2_DMA_RMP   LL_SYSCFG_SetRemapDMA_ADC
 586:Drivers/STM32F3xx_HAL_Driver/Inc/stm32f3xx_ll_system.h ****   * @param  Remap This parameter can be one of the following values:
 587:Drivers/STM32F3xx_HAL_Driver/Inc/stm32f3xx_ll_system.h ****   *         @arg @ref LL_SYSCFG_ADC24_RMP_DMA2_CH12 (*)
 588:Drivers/STM32F3xx_HAL_Driver/Inc/stm32f3xx_ll_system.h ****   *         @arg @ref LL_SYSCFG_ADC24_RMP_DMA2_CH34 (*)
 589:Drivers/STM32F3xx_HAL_Driver/Inc/stm32f3xx_ll_system.h ****   *         @arg @ref LL_SYSCFG_ADC2_RMP_DMA1_CH2 (*)
 590:Drivers/STM32F3xx_HAL_Driver/Inc/stm32f3xx_ll_system.h ****   *         @arg @ref LL_SYSCFG_ADC2_RMP_DMA1_CH4 (*)
 591:Drivers/STM32F3xx_HAL_Driver/Inc/stm32f3xx_ll_system.h ****   *         @arg @ref LL_SYSCFG_ADC2_RMP_DMA2 (*)
 592:Drivers/STM32F3xx_HAL_Driver/Inc/stm32f3xx_ll_system.h ****   *         @arg @ref LL_SYSCFG_ADC2_RMP_DMA1 (*)
 593:Drivers/STM32F3xx_HAL_Driver/Inc/stm32f3xx_ll_system.h ****   *
 594:Drivers/STM32F3xx_HAL_Driver/Inc/stm32f3xx_ll_system.h ****   *         (*) value not defined in all devices.
 595:Drivers/STM32F3xx_HAL_Driver/Inc/stm32f3xx_ll_system.h ****   * @retval None
 596:Drivers/STM32F3xx_HAL_Driver/Inc/stm32f3xx_ll_system.h ****   */
 597:Drivers/STM32F3xx_HAL_Driver/Inc/stm32f3xx_ll_system.h **** __STATIC_INLINE void LL_SYSCFG_SetRemapDMA_ADC(uint32_t Remap)
 598:Drivers/STM32F3xx_HAL_Driver/Inc/stm32f3xx_ll_system.h **** {
 599:Drivers/STM32F3xx_HAL_Driver/Inc/stm32f3xx_ll_system.h ****   __IO uint32_t *reg = (__IO uint32_t *)(uint32_t)(SYSCFG_BASE + (Remap >> 24U)); 
 600:Drivers/STM32F3xx_HAL_Driver/Inc/stm32f3xx_ll_system.h ****   MODIFY_REG(*reg, (Remap & 0x00FF0000U) >> 8U, (Remap & 0x0000FFFFU));
 601:Drivers/STM32F3xx_HAL_Driver/Inc/stm32f3xx_ll_system.h **** }
 602:Drivers/STM32F3xx_HAL_Driver/Inc/stm32f3xx_ll_system.h **** #endif /* SYSCFG_CFGR1_ADC24_DMA_RMP || SYSCFG_CFGR3_ADC2_DMA_RMP */
 603:Drivers/STM32F3xx_HAL_Driver/Inc/stm32f3xx_ll_system.h **** 
 604:Drivers/STM32F3xx_HAL_Driver/Inc/stm32f3xx_ll_system.h **** /**
 605:Drivers/STM32F3xx_HAL_Driver/Inc/stm32f3xx_ll_system.h ****   * @brief  Set DMA request remapping bits for DAC
 606:Drivers/STM32F3xx_HAL_Driver/Inc/stm32f3xx_ll_system.h ****   * @rmtoll SYSCFG_CFGR1 TIM6DAC1Ch1_DMA_RMP  LL_SYSCFG_SetRemapDMA_DAC\n
 607:Drivers/STM32F3xx_HAL_Driver/Inc/stm32f3xx_ll_system.h ****   *         SYSCFG_CFGR1 DAC2Ch1_DMA_RMP      LL_SYSCFG_SetRemapDMA_DAC
 608:Drivers/STM32F3xx_HAL_Driver/Inc/stm32f3xx_ll_system.h ****   * @param  Remap This parameter can be one of the following values:
 609:Drivers/STM32F3xx_HAL_Driver/Inc/stm32f3xx_ll_system.h ****   *         @arg @ref LL_SYSCFG_DAC1_CH1_RMP_DMA2_CH3
ARM GAS  /tmp/cc1L2lRe.s 			page 42


 610:Drivers/STM32F3xx_HAL_Driver/Inc/stm32f3xx_ll_system.h ****   *         @arg @ref LL_SYSCFG_DAC1_CH1_RMP_DMA1_CH3
 611:Drivers/STM32F3xx_HAL_Driver/Inc/stm32f3xx_ll_system.h ****   *         @arg @ref LL_SYSCFG_DAC1_OUT2_RMP_DMA2_CH4 (*)
 612:Drivers/STM32F3xx_HAL_Driver/Inc/stm32f3xx_ll_system.h ****   *         @arg @ref LL_SYSCFG_DAC1_OUT2_RMP_DMA1_CH4 (*)
 613:Drivers/STM32F3xx_HAL_Driver/Inc/stm32f3xx_ll_system.h ****   *         @arg @ref LL_SYSCFG_DAC2_OUT1_RMP_DMA2_CH5 (*)
 614:Drivers/STM32F3xx_HAL_Driver/Inc/stm32f3xx_ll_system.h ****   *         @arg @ref LL_SYSCFG_DAC2_OUT1_RMP_DMA1_CH5 (*)
 615:Drivers/STM32F3xx_HAL_Driver/Inc/stm32f3xx_ll_system.h ****   *         @arg @ref LL_SYSCFG_DAC2_CH1_RMP_NO (*)
 616:Drivers/STM32F3xx_HAL_Driver/Inc/stm32f3xx_ll_system.h ****   *         @arg @ref LL_SYSCFG_DAC2_CH1_RMP_DMA1_CH5 (*)
 617:Drivers/STM32F3xx_HAL_Driver/Inc/stm32f3xx_ll_system.h ****   *
 618:Drivers/STM32F3xx_HAL_Driver/Inc/stm32f3xx_ll_system.h ****   *         (*) value not defined in all devices.
 619:Drivers/STM32F3xx_HAL_Driver/Inc/stm32f3xx_ll_system.h ****   * @retval None
 620:Drivers/STM32F3xx_HAL_Driver/Inc/stm32f3xx_ll_system.h ****   */
 621:Drivers/STM32F3xx_HAL_Driver/Inc/stm32f3xx_ll_system.h **** __STATIC_INLINE void LL_SYSCFG_SetRemapDMA_DAC(uint32_t Remap)
 622:Drivers/STM32F3xx_HAL_Driver/Inc/stm32f3xx_ll_system.h **** {
 623:Drivers/STM32F3xx_HAL_Driver/Inc/stm32f3xx_ll_system.h ****   MODIFY_REG(SYSCFG->CFGR1, (Remap & 0x00FF0000U) >> 8U, (Remap & 0x0000FF00U));
 624:Drivers/STM32F3xx_HAL_Driver/Inc/stm32f3xx_ll_system.h **** }
 625:Drivers/STM32F3xx_HAL_Driver/Inc/stm32f3xx_ll_system.h **** 
 626:Drivers/STM32F3xx_HAL_Driver/Inc/stm32f3xx_ll_system.h **** /**
 627:Drivers/STM32F3xx_HAL_Driver/Inc/stm32f3xx_ll_system.h ****   * @brief  Set DMA request remapping bits for TIM
 628:Drivers/STM32F3xx_HAL_Driver/Inc/stm32f3xx_ll_system.h ****   * @rmtoll SYSCFG_CFGR1 TIM16_DMA_RMP        LL_SYSCFG_SetRemapDMA_TIM\n
 629:Drivers/STM32F3xx_HAL_Driver/Inc/stm32f3xx_ll_system.h ****   *         SYSCFG_CFGR1 TIM17_DMA_RMP        LL_SYSCFG_SetRemapDMA_TIM\n
 630:Drivers/STM32F3xx_HAL_Driver/Inc/stm32f3xx_ll_system.h ****   *         SYSCFG_CFGR1 TIM6DAC1Ch1_DMA_RMP  LL_SYSCFG_SetRemapDMA_TIM\n
 631:Drivers/STM32F3xx_HAL_Driver/Inc/stm32f3xx_ll_system.h ****   *         SYSCFG_CFGR1 TIM7DAC1Ch2_DMA_RMP  LL_SYSCFG_SetRemapDMA_TIM\n
 632:Drivers/STM32F3xx_HAL_Driver/Inc/stm32f3xx_ll_system.h ****   *         SYSCFG_CFGR1 TIM18DAC2Ch1_DMA_RMP LL_SYSCFG_SetRemapDMA_TIM
 633:Drivers/STM32F3xx_HAL_Driver/Inc/stm32f3xx_ll_system.h ****   * @param  Remap This parameter can be a combination of the following values:
 634:Drivers/STM32F3xx_HAL_Driver/Inc/stm32f3xx_ll_system.h ****   *         @arg @ref LL_SYSCFG_TIM16_RMP_DMA1_CH3 or @ref LL_SYSCFG_TIM16_RMP_DMA1_CH6
 635:Drivers/STM32F3xx_HAL_Driver/Inc/stm32f3xx_ll_system.h ****   *         @arg @ref LL_SYSCFG_TIM17_RMP_DMA1_CH1 or @ref LL_SYSCFG_TIM17_RMP_DMA1_CH7
 636:Drivers/STM32F3xx_HAL_Driver/Inc/stm32f3xx_ll_system.h ****   *         @arg @ref LL_SYSCFG_TIM6_RMP_DMA2_CH3 or @ref LL_SYSCFG_TIM6_RMP_DMA1_CH3
 637:Drivers/STM32F3xx_HAL_Driver/Inc/stm32f3xx_ll_system.h ****   *         @arg @ref LL_SYSCFG_TIM7_RMP_DMA2_CH4 or @ref LL_SYSCFG_TIM7_RMP_DMA1_CH4 (*)
 638:Drivers/STM32F3xx_HAL_Driver/Inc/stm32f3xx_ll_system.h ****   *         @arg @ref LL_SYSCFG_TIM18_RMP_DMA2_CH5 or @ref LL_SYSCFG_TIM18_RMP_DMA1_CH5 (*)
 639:Drivers/STM32F3xx_HAL_Driver/Inc/stm32f3xx_ll_system.h ****   *
 640:Drivers/STM32F3xx_HAL_Driver/Inc/stm32f3xx_ll_system.h ****   *         (*) value not defined in all devices.
 641:Drivers/STM32F3xx_HAL_Driver/Inc/stm32f3xx_ll_system.h ****   * @retval None
 642:Drivers/STM32F3xx_HAL_Driver/Inc/stm32f3xx_ll_system.h ****   */
 643:Drivers/STM32F3xx_HAL_Driver/Inc/stm32f3xx_ll_system.h **** __STATIC_INLINE void LL_SYSCFG_SetRemapDMA_TIM(uint32_t Remap)
 644:Drivers/STM32F3xx_HAL_Driver/Inc/stm32f3xx_ll_system.h **** {
 645:Drivers/STM32F3xx_HAL_Driver/Inc/stm32f3xx_ll_system.h ****   MODIFY_REG(SYSCFG->CFGR1, (Remap & 0x00FF0000U) >> 8U, (Remap & 0x0000FF00U));
 646:Drivers/STM32F3xx_HAL_Driver/Inc/stm32f3xx_ll_system.h **** }
 647:Drivers/STM32F3xx_HAL_Driver/Inc/stm32f3xx_ll_system.h **** 
 648:Drivers/STM32F3xx_HAL_Driver/Inc/stm32f3xx_ll_system.h **** #if defined(SYSCFG_CFGR1_TIM1_ITR3_RMP) || defined(SYSCFG_CFGR1_ENCODER_MODE)
 649:Drivers/STM32F3xx_HAL_Driver/Inc/stm32f3xx_ll_system.h **** /**
 650:Drivers/STM32F3xx_HAL_Driver/Inc/stm32f3xx_ll_system.h ****   * @brief  Set Timer input remap
 651:Drivers/STM32F3xx_HAL_Driver/Inc/stm32f3xx_ll_system.h ****   * @rmtoll SYSCFG_CFGR1 TIM1_ITR3_RMP  LL_SYSCFG_SetRemapInput_TIM\n
 652:Drivers/STM32F3xx_HAL_Driver/Inc/stm32f3xx_ll_system.h ****   *         SYSCFG_CFGR1 ENCODER_MODE   LL_SYSCFG_SetRemapInput_TIM
 653:Drivers/STM32F3xx_HAL_Driver/Inc/stm32f3xx_ll_system.h ****   * @param  Remap This parameter can be one of the following values:
 654:Drivers/STM32F3xx_HAL_Driver/Inc/stm32f3xx_ll_system.h ****   *         @arg @ref LL_SYSCFG_TIM1_ITR3_RMP_TIM4_TRGO (*)
 655:Drivers/STM32F3xx_HAL_Driver/Inc/stm32f3xx_ll_system.h ****   *         @arg @ref LL_SYSCFG_TIM1_ITR3_RMP_TIM17_OC (*)
 656:Drivers/STM32F3xx_HAL_Driver/Inc/stm32f3xx_ll_system.h ****   *         @arg @ref LL_SYSCFG_TIM15_ENCODEMODE_NOREDIRECTION (*)
 657:Drivers/STM32F3xx_HAL_Driver/Inc/stm32f3xx_ll_system.h ****   *         @arg @ref LL_SYSCFG_TIM15_ENCODEMODE_TIM2 (*)
 658:Drivers/STM32F3xx_HAL_Driver/Inc/stm32f3xx_ll_system.h ****   *         @arg @ref LL_SYSCFG_TIM15_ENCODEMODE_TIM3 (*)
 659:Drivers/STM32F3xx_HAL_Driver/Inc/stm32f3xx_ll_system.h ****   *         @arg @ref LL_SYSCFG_TIM15_ENCODEMODE_TIM4 (*)
 660:Drivers/STM32F3xx_HAL_Driver/Inc/stm32f3xx_ll_system.h ****   *
 661:Drivers/STM32F3xx_HAL_Driver/Inc/stm32f3xx_ll_system.h ****   *         (*) value not defined in all devices.
 662:Drivers/STM32F3xx_HAL_Driver/Inc/stm32f3xx_ll_system.h ****   * @retval None
 663:Drivers/STM32F3xx_HAL_Driver/Inc/stm32f3xx_ll_system.h ****   */
 664:Drivers/STM32F3xx_HAL_Driver/Inc/stm32f3xx_ll_system.h **** __STATIC_INLINE void LL_SYSCFG_SetRemapInput_TIM(uint32_t Remap)
 665:Drivers/STM32F3xx_HAL_Driver/Inc/stm32f3xx_ll_system.h **** {
 666:Drivers/STM32F3xx_HAL_Driver/Inc/stm32f3xx_ll_system.h ****    MODIFY_REG(SYSCFG->CFGR1, (Remap & 0xFF00FF00U) >> 8U, (Remap & 0x00FF00FFU));
ARM GAS  /tmp/cc1L2lRe.s 			page 43


 667:Drivers/STM32F3xx_HAL_Driver/Inc/stm32f3xx_ll_system.h **** }
 668:Drivers/STM32F3xx_HAL_Driver/Inc/stm32f3xx_ll_system.h **** #endif /* SYSCFG_CFGR1_TIM1_ITR3_RMP || SYSCFG_CFGR1_ENCODER_MODE */
 669:Drivers/STM32F3xx_HAL_Driver/Inc/stm32f3xx_ll_system.h **** 
 670:Drivers/STM32F3xx_HAL_Driver/Inc/stm32f3xx_ll_system.h **** #if defined(SYSCFG_CFGR4_ADC12_EXT2_RMP)
 671:Drivers/STM32F3xx_HAL_Driver/Inc/stm32f3xx_ll_system.h **** /**
 672:Drivers/STM32F3xx_HAL_Driver/Inc/stm32f3xx_ll_system.h ****   * @brief  Set ADC Trigger remap
 673:Drivers/STM32F3xx_HAL_Driver/Inc/stm32f3xx_ll_system.h ****   * @rmtoll SYSCFG_CFGR4 ADC12_EXT2_RMP    LL_SYSCFG_SetRemapTrigger_ADC\n
 674:Drivers/STM32F3xx_HAL_Driver/Inc/stm32f3xx_ll_system.h ****   *         SYSCFG_CFGR4 ADC12_EXT3_RMP    LL_SYSCFG_SetRemapTrigger_ADC\n
 675:Drivers/STM32F3xx_HAL_Driver/Inc/stm32f3xx_ll_system.h ****   *         SYSCFG_CFGR4 ADC12_EXT5_RMP    LL_SYSCFG_SetRemapTrigger_ADC\n
 676:Drivers/STM32F3xx_HAL_Driver/Inc/stm32f3xx_ll_system.h ****   *         SYSCFG_CFGR4 ADC12_EXT13_RMP   LL_SYSCFG_SetRemapTrigger_ADC\n
 677:Drivers/STM32F3xx_HAL_Driver/Inc/stm32f3xx_ll_system.h ****   *         SYSCFG_CFGR4 ADC12_EXT15_RMP   LL_SYSCFG_SetRemapTrigger_ADC\n
 678:Drivers/STM32F3xx_HAL_Driver/Inc/stm32f3xx_ll_system.h ****   *         SYSCFG_CFGR4 ADC12_JEXT3_RMP   LL_SYSCFG_SetRemapTrigger_ADC\n
 679:Drivers/STM32F3xx_HAL_Driver/Inc/stm32f3xx_ll_system.h ****   *         SYSCFG_CFGR4 ADC12_JEXT6_RMP   LL_SYSCFG_SetRemapTrigger_ADC\n
 680:Drivers/STM32F3xx_HAL_Driver/Inc/stm32f3xx_ll_system.h ****   *         SYSCFG_CFGR4 ADC12_JEXT13_RMP  LL_SYSCFG_SetRemapTrigger_ADC\n
 681:Drivers/STM32F3xx_HAL_Driver/Inc/stm32f3xx_ll_system.h ****   *         SYSCFG_CFGR4 ADC34_EXT5_RMP    LL_SYSCFG_SetRemapTrigger_ADC\n
 682:Drivers/STM32F3xx_HAL_Driver/Inc/stm32f3xx_ll_system.h ****   *         SYSCFG_CFGR4 ADC34_EXT6_RMP    LL_SYSCFG_SetRemapTrigger_ADC\n
 683:Drivers/STM32F3xx_HAL_Driver/Inc/stm32f3xx_ll_system.h ****   *         SYSCFG_CFGR4 ADC34_EXT15_RMP   LL_SYSCFG_SetRemapTrigger_ADC\n
 684:Drivers/STM32F3xx_HAL_Driver/Inc/stm32f3xx_ll_system.h ****   *         SYSCFG_CFGR4 ADC34_JEXT5_RMP   LL_SYSCFG_SetRemapTrigger_ADC\n
 685:Drivers/STM32F3xx_HAL_Driver/Inc/stm32f3xx_ll_system.h ****   *         SYSCFG_CFGR4 ADC34_JEXT11_RMP  LL_SYSCFG_SetRemapTrigger_ADC\n
 686:Drivers/STM32F3xx_HAL_Driver/Inc/stm32f3xx_ll_system.h ****   *         SYSCFG_CFGR4 ADC34_JEXT14_RMP  LL_SYSCFG_SetRemapTrigger_ADC
 687:Drivers/STM32F3xx_HAL_Driver/Inc/stm32f3xx_ll_system.h ****   * @param  Remap This parameter can be one of the following values:
 688:Drivers/STM32F3xx_HAL_Driver/Inc/stm32f3xx_ll_system.h ****   *         @arg @ref LL_SYSCFG_ADC12_EXT2_RMP_TIM1_CC3
 689:Drivers/STM32F3xx_HAL_Driver/Inc/stm32f3xx_ll_system.h ****   *         @arg @ref LL_SYSCFG_ADC12_EXT2_RMP_TIM20_TRGO
 690:Drivers/STM32F3xx_HAL_Driver/Inc/stm32f3xx_ll_system.h ****   *         @arg @ref LL_SYSCFG_ADC12_EXT3_RMP_TIM2_CC2
 691:Drivers/STM32F3xx_HAL_Driver/Inc/stm32f3xx_ll_system.h ****   *         @arg @ref LL_SYSCFG_ADC12_EXT3_RMP_TIM20_TRGO2
 692:Drivers/STM32F3xx_HAL_Driver/Inc/stm32f3xx_ll_system.h ****   *         @arg @ref LL_SYSCFG_ADC12_EXT5_RMP_TIM4_CC4
 693:Drivers/STM32F3xx_HAL_Driver/Inc/stm32f3xx_ll_system.h ****   *         @arg @ref LL_SYSCFG_ADC12_EXT5_RMP_TIM20_CC1
 694:Drivers/STM32F3xx_HAL_Driver/Inc/stm32f3xx_ll_system.h ****   *         @arg @ref LL_SYSCFG_ADC12_EXT13_RMP_TIM6_TRGO
 695:Drivers/STM32F3xx_HAL_Driver/Inc/stm32f3xx_ll_system.h ****   *         @arg @ref LL_SYSCFG_ADC12_EXT13_RMP_TIM20_CC2
 696:Drivers/STM32F3xx_HAL_Driver/Inc/stm32f3xx_ll_system.h ****   *         @arg @ref LL_SYSCFG_ADC12_EXT15_RMP_TIM3_CC4
 697:Drivers/STM32F3xx_HAL_Driver/Inc/stm32f3xx_ll_system.h ****   *         @arg @ref LL_SYSCFG_ADC12_EXT15_RMP_TIM20_CC3
 698:Drivers/STM32F3xx_HAL_Driver/Inc/stm32f3xx_ll_system.h ****   *         @arg @ref LL_SYSCFG_ADC12_JEXT3_RMP_TIM2_CC1
 699:Drivers/STM32F3xx_HAL_Driver/Inc/stm32f3xx_ll_system.h ****   *         @arg @ref LL_SYSCFG_ADC12_JEXT3_RMP_TIM20_TRGO
 700:Drivers/STM32F3xx_HAL_Driver/Inc/stm32f3xx_ll_system.h ****   *         @arg @ref LL_SYSCFG_ADC12_JEXT6_RMP_EXTI_LINE_15
 701:Drivers/STM32F3xx_HAL_Driver/Inc/stm32f3xx_ll_system.h ****   *         @arg @ref LL_SYSCFG_ADC12_JEXT6_RMP_TIM20_TRGO2
 702:Drivers/STM32F3xx_HAL_Driver/Inc/stm32f3xx_ll_system.h ****   *         @arg @ref LL_SYSCFG_ADC12_JEXT13_RMP_TIM3_CC1
 703:Drivers/STM32F3xx_HAL_Driver/Inc/stm32f3xx_ll_system.h ****   *         @arg @ref LL_SYSCFG_ADC12_JEXT13_RMP_TIM20_CC4
 704:Drivers/STM32F3xx_HAL_Driver/Inc/stm32f3xx_ll_system.h ****   *         @arg @ref LL_SYSCFG_ADC34_EXT5_RMP_EXTI_LINE_2
 705:Drivers/STM32F3xx_HAL_Driver/Inc/stm32f3xx_ll_system.h ****   *         @arg @ref LL_SYSCFG_ADC34_EXT5_RMP_TIM20_TRGO
 706:Drivers/STM32F3xx_HAL_Driver/Inc/stm32f3xx_ll_system.h ****   *         @arg @ref LL_SYSCFG_ADC34_EXT6_RMP_TIM4_CC1
 707:Drivers/STM32F3xx_HAL_Driver/Inc/stm32f3xx_ll_system.h ****   *         @arg @ref LL_SYSCFG_ADC34_EXT6_RMP_TIM20_TRGO2
 708:Drivers/STM32F3xx_HAL_Driver/Inc/stm32f3xx_ll_system.h ****   *         @arg @ref LL_SYSCFG_ADC34_EXT15_RMP_TIM2_CC1
 709:Drivers/STM32F3xx_HAL_Driver/Inc/stm32f3xx_ll_system.h ****   *         @arg @ref LL_SYSCFG_ADC34_EXT15_RMP_TIM20_CC1
 710:Drivers/STM32F3xx_HAL_Driver/Inc/stm32f3xx_ll_system.h ****   *         @arg @ref LL_SYSCFG_ADC34_JEXT5_RMP_TIM4_CC3
 711:Drivers/STM32F3xx_HAL_Driver/Inc/stm32f3xx_ll_system.h ****   *         @arg @ref LL_SYSCFG_ADC34_JEXT5_RMP_TIM20_TRGO
 712:Drivers/STM32F3xx_HAL_Driver/Inc/stm32f3xx_ll_system.h ****   *         @arg @ref LL_SYSCFG_ADC34_JEXT11_RMP_TIM1_CC3
 713:Drivers/STM32F3xx_HAL_Driver/Inc/stm32f3xx_ll_system.h ****   *         @arg @ref LL_SYSCFG_ADC34_JEXT11_RMP_TIM20_TRGO2
 714:Drivers/STM32F3xx_HAL_Driver/Inc/stm32f3xx_ll_system.h ****   *         @arg @ref LL_SYSCFG_ADC34_JEXT14_RMP_TIM7_TRGO
 715:Drivers/STM32F3xx_HAL_Driver/Inc/stm32f3xx_ll_system.h ****   *         @arg @ref LL_SYSCFG_ADC34_JEXT14_RMP_TIM20_CC2
 716:Drivers/STM32F3xx_HAL_Driver/Inc/stm32f3xx_ll_system.h ****   * @retval None
 717:Drivers/STM32F3xx_HAL_Driver/Inc/stm32f3xx_ll_system.h ****   */
 718:Drivers/STM32F3xx_HAL_Driver/Inc/stm32f3xx_ll_system.h **** __STATIC_INLINE void LL_SYSCFG_SetRemapTrigger_ADC(uint32_t Remap)
 719:Drivers/STM32F3xx_HAL_Driver/Inc/stm32f3xx_ll_system.h **** {
 720:Drivers/STM32F3xx_HAL_Driver/Inc/stm32f3xx_ll_system.h ****   MODIFY_REG(SYSCFG->CFGR4, (Remap & 0xFFFF0000U) >> 16U, (Remap & 0x0000FFFFU));
 721:Drivers/STM32F3xx_HAL_Driver/Inc/stm32f3xx_ll_system.h **** }
 722:Drivers/STM32F3xx_HAL_Driver/Inc/stm32f3xx_ll_system.h **** #endif /* SYSCFG_CFGR4_ADC12_EXT2_RMP */
 723:Drivers/STM32F3xx_HAL_Driver/Inc/stm32f3xx_ll_system.h **** 
ARM GAS  /tmp/cc1L2lRe.s 			page 44


 724:Drivers/STM32F3xx_HAL_Driver/Inc/stm32f3xx_ll_system.h **** #if defined(SYSCFG_CFGR1_DAC1_TRIG1_RMP) || defined(SYSCFG_CFGR3_TRIGGER_RMP)
 725:Drivers/STM32F3xx_HAL_Driver/Inc/stm32f3xx_ll_system.h **** /**
 726:Drivers/STM32F3xx_HAL_Driver/Inc/stm32f3xx_ll_system.h ****   * @brief  Set DAC Trigger remap
 727:Drivers/STM32F3xx_HAL_Driver/Inc/stm32f3xx_ll_system.h ****   * @rmtoll SYSCFG_CFGR1 DAC1_TRIG1_RMP  LL_SYSCFG_SetRemapTrigger_DAC\n
 728:Drivers/STM32F3xx_HAL_Driver/Inc/stm32f3xx_ll_system.h ****   *         SYSCFG_CFGR3 DAC1_TRG3_RMP   LL_SYSCFG_SetRemapTrigger_DAC\n
 729:Drivers/STM32F3xx_HAL_Driver/Inc/stm32f3xx_ll_system.h ****   *         SYSCFG_CFGR3 DAC1_TRG5_RMP   LL_SYSCFG_SetRemapTrigger_DAC
 730:Drivers/STM32F3xx_HAL_Driver/Inc/stm32f3xx_ll_system.h ****   * @param  Remap This parameter can be one of the following values:
 731:Drivers/STM32F3xx_HAL_Driver/Inc/stm32f3xx_ll_system.h ****   *         @arg @ref LL_SYSCFG_DAC1_TRIG1_RMP_TIM8_TRGO (*)
 732:Drivers/STM32F3xx_HAL_Driver/Inc/stm32f3xx_ll_system.h ****   *         @arg @ref LL_SYSCFG_DAC1_TRIG1_RMP_TIM3_TRGO (*)
 733:Drivers/STM32F3xx_HAL_Driver/Inc/stm32f3xx_ll_system.h ****   *         @arg @ref LL_SYSCFG_DAC1_TRIG3_RMP_TIM15_TRGO (*)
 734:Drivers/STM32F3xx_HAL_Driver/Inc/stm32f3xx_ll_system.h ****   *         @arg @ref LL_SYSCFG_DAC1_TRIG3_RMP_HRTIM1_DAC1_TRIG1 (*)
 735:Drivers/STM32F3xx_HAL_Driver/Inc/stm32f3xx_ll_system.h ****   *         @arg @ref LL_SYSCFG_DAC1_TRIG5_RMP_NO (*)
 736:Drivers/STM32F3xx_HAL_Driver/Inc/stm32f3xx_ll_system.h ****   *         @arg @ref LL_SYSCFG_DAC1_TRIG5_RMP_HRTIM1_DAC1_TRIG2 (*)
 737:Drivers/STM32F3xx_HAL_Driver/Inc/stm32f3xx_ll_system.h ****   *         (*) value not defined in all devices.
 738:Drivers/STM32F3xx_HAL_Driver/Inc/stm32f3xx_ll_system.h ****   * @retval None
 739:Drivers/STM32F3xx_HAL_Driver/Inc/stm32f3xx_ll_system.h ****   */
 740:Drivers/STM32F3xx_HAL_Driver/Inc/stm32f3xx_ll_system.h **** __STATIC_INLINE void LL_SYSCFG_SetRemapTrigger_DAC(uint32_t Remap)
 741:Drivers/STM32F3xx_HAL_Driver/Inc/stm32f3xx_ll_system.h **** {
 742:Drivers/STM32F3xx_HAL_Driver/Inc/stm32f3xx_ll_system.h ****   __IO uint32_t *reg = (__IO uint32_t *)(uint32_t)(SYSCFG_BASE + (Remap >> 24U)); 
 743:Drivers/STM32F3xx_HAL_Driver/Inc/stm32f3xx_ll_system.h ****   MODIFY_REG(*reg, (Remap & 0x00F00F00U) >> 4U, (Remap & 0x000F00F0U));
 744:Drivers/STM32F3xx_HAL_Driver/Inc/stm32f3xx_ll_system.h **** }
 745:Drivers/STM32F3xx_HAL_Driver/Inc/stm32f3xx_ll_system.h **** #endif /* SYSCFG_CFGR1_DAC1_TRIG1_RMP || SYSCFG_CFGR3_TRIGGER_RMP */
 746:Drivers/STM32F3xx_HAL_Driver/Inc/stm32f3xx_ll_system.h **** 
 747:Drivers/STM32F3xx_HAL_Driver/Inc/stm32f3xx_ll_system.h **** #if defined(SYSCFG_CFGR1_USB_IT_RMP)
 748:Drivers/STM32F3xx_HAL_Driver/Inc/stm32f3xx_ll_system.h **** /**
 749:Drivers/STM32F3xx_HAL_Driver/Inc/stm32f3xx_ll_system.h ****   * @brief  Enable USB interrupt remap
 750:Drivers/STM32F3xx_HAL_Driver/Inc/stm32f3xx_ll_system.h ****   * @note  Remap the USB interrupts (USB_HP, USB_LP and USB_WKUP) on interrupt lines 74, 75 and 76
 751:Drivers/STM32F3xx_HAL_Driver/Inc/stm32f3xx_ll_system.h ****   * respectively
 752:Drivers/STM32F3xx_HAL_Driver/Inc/stm32f3xx_ll_system.h ****   * @rmtoll SYSCFG_CFGR1 USB_IT_RMP    LL_SYSCFG_EnableRemapIT_USB
 753:Drivers/STM32F3xx_HAL_Driver/Inc/stm32f3xx_ll_system.h ****   * @retval None
 754:Drivers/STM32F3xx_HAL_Driver/Inc/stm32f3xx_ll_system.h ****   */
 755:Drivers/STM32F3xx_HAL_Driver/Inc/stm32f3xx_ll_system.h **** __STATIC_INLINE void LL_SYSCFG_EnableRemapIT_USB(void)
 756:Drivers/STM32F3xx_HAL_Driver/Inc/stm32f3xx_ll_system.h **** {
 757:Drivers/STM32F3xx_HAL_Driver/Inc/stm32f3xx_ll_system.h ****   SET_BIT(SYSCFG->CFGR1, SYSCFG_CFGR1_USB_IT_RMP);
 758:Drivers/STM32F3xx_HAL_Driver/Inc/stm32f3xx_ll_system.h **** }
 759:Drivers/STM32F3xx_HAL_Driver/Inc/stm32f3xx_ll_system.h **** 
 760:Drivers/STM32F3xx_HAL_Driver/Inc/stm32f3xx_ll_system.h **** /**
 761:Drivers/STM32F3xx_HAL_Driver/Inc/stm32f3xx_ll_system.h ****   * @brief  Disable USB interrupt remap
 762:Drivers/STM32F3xx_HAL_Driver/Inc/stm32f3xx_ll_system.h ****   * @rmtoll SYSCFG_CFGR1 USB_IT_RMP    LL_SYSCFG_DisableRemapIT_USB
 763:Drivers/STM32F3xx_HAL_Driver/Inc/stm32f3xx_ll_system.h ****   * @retval None
 764:Drivers/STM32F3xx_HAL_Driver/Inc/stm32f3xx_ll_system.h ****   */
 765:Drivers/STM32F3xx_HAL_Driver/Inc/stm32f3xx_ll_system.h **** __STATIC_INLINE void LL_SYSCFG_DisableRemapIT_USB(void)
 766:Drivers/STM32F3xx_HAL_Driver/Inc/stm32f3xx_ll_system.h **** {
 767:Drivers/STM32F3xx_HAL_Driver/Inc/stm32f3xx_ll_system.h ****   CLEAR_BIT(SYSCFG->CFGR1, SYSCFG_CFGR1_USB_IT_RMP);
 768:Drivers/STM32F3xx_HAL_Driver/Inc/stm32f3xx_ll_system.h **** }
 769:Drivers/STM32F3xx_HAL_Driver/Inc/stm32f3xx_ll_system.h **** #endif /* SYSCFG_CFGR1_USB_IT_RMP */
 770:Drivers/STM32F3xx_HAL_Driver/Inc/stm32f3xx_ll_system.h **** 
 771:Drivers/STM32F3xx_HAL_Driver/Inc/stm32f3xx_ll_system.h **** #if defined(SYSCFG_CFGR1_VBAT)
 772:Drivers/STM32F3xx_HAL_Driver/Inc/stm32f3xx_ll_system.h **** /**
 773:Drivers/STM32F3xx_HAL_Driver/Inc/stm32f3xx_ll_system.h ****   * @brief  Enable VBAT monitoring (to enable the power switch to deliver VBAT voltage on ADC chann
 774:Drivers/STM32F3xx_HAL_Driver/Inc/stm32f3xx_ll_system.h ****   * @rmtoll SYSCFG_CFGR1 VBAT          LL_SYSCFG_EnableVBATMonitoring
 775:Drivers/STM32F3xx_HAL_Driver/Inc/stm32f3xx_ll_system.h ****   * @retval None
 776:Drivers/STM32F3xx_HAL_Driver/Inc/stm32f3xx_ll_system.h ****   */
 777:Drivers/STM32F3xx_HAL_Driver/Inc/stm32f3xx_ll_system.h **** __STATIC_INLINE void LL_SYSCFG_EnableVBATMonitoring(void)
 778:Drivers/STM32F3xx_HAL_Driver/Inc/stm32f3xx_ll_system.h **** {
 779:Drivers/STM32F3xx_HAL_Driver/Inc/stm32f3xx_ll_system.h ****   SET_BIT(SYSCFG->CFGR1, SYSCFG_CFGR1_VBAT);
 780:Drivers/STM32F3xx_HAL_Driver/Inc/stm32f3xx_ll_system.h **** }
ARM GAS  /tmp/cc1L2lRe.s 			page 45


 781:Drivers/STM32F3xx_HAL_Driver/Inc/stm32f3xx_ll_system.h **** 
 782:Drivers/STM32F3xx_HAL_Driver/Inc/stm32f3xx_ll_system.h **** /**
 783:Drivers/STM32F3xx_HAL_Driver/Inc/stm32f3xx_ll_system.h ****   * @brief  Disable VBAT monitoring
 784:Drivers/STM32F3xx_HAL_Driver/Inc/stm32f3xx_ll_system.h ****   * @rmtoll SYSCFG_CFGR1 VBAT          LL_SYSCFG_DisableVBATMonitoring
 785:Drivers/STM32F3xx_HAL_Driver/Inc/stm32f3xx_ll_system.h ****   * @retval None
 786:Drivers/STM32F3xx_HAL_Driver/Inc/stm32f3xx_ll_system.h ****   */
 787:Drivers/STM32F3xx_HAL_Driver/Inc/stm32f3xx_ll_system.h **** __STATIC_INLINE void LL_SYSCFG_DisableVBATMonitoring(void)
 788:Drivers/STM32F3xx_HAL_Driver/Inc/stm32f3xx_ll_system.h **** {
 789:Drivers/STM32F3xx_HAL_Driver/Inc/stm32f3xx_ll_system.h ****   CLEAR_BIT(SYSCFG->CFGR1, SYSCFG_CFGR1_VBAT);
 790:Drivers/STM32F3xx_HAL_Driver/Inc/stm32f3xx_ll_system.h **** }
 791:Drivers/STM32F3xx_HAL_Driver/Inc/stm32f3xx_ll_system.h **** #endif /* SYSCFG_CFGR1_VBAT */
 792:Drivers/STM32F3xx_HAL_Driver/Inc/stm32f3xx_ll_system.h **** 
 793:Drivers/STM32F3xx_HAL_Driver/Inc/stm32f3xx_ll_system.h **** /**
 794:Drivers/STM32F3xx_HAL_Driver/Inc/stm32f3xx_ll_system.h ****   * @brief  Enable the I2C fast mode plus driving capability.
 795:Drivers/STM32F3xx_HAL_Driver/Inc/stm32f3xx_ll_system.h ****   * @rmtoll SYSCFG_CFGR1 I2C_PB6_FMP   LL_SYSCFG_EnableFastModePlus\n
 796:Drivers/STM32F3xx_HAL_Driver/Inc/stm32f3xx_ll_system.h ****   *         SYSCFG_CFGR1 I2C_PB7_FMP   LL_SYSCFG_EnableFastModePlus\n
 797:Drivers/STM32F3xx_HAL_Driver/Inc/stm32f3xx_ll_system.h ****   *         SYSCFG_CFGR1 I2C_PB8_FMP   LL_SYSCFG_EnableFastModePlus\n
 798:Drivers/STM32F3xx_HAL_Driver/Inc/stm32f3xx_ll_system.h ****   *         SYSCFG_CFGR1 I2C_PB9_FMP   LL_SYSCFG_EnableFastModePlus\n
 799:Drivers/STM32F3xx_HAL_Driver/Inc/stm32f3xx_ll_system.h ****   *         SYSCFG_CFGR1 I2C1_FMP      LL_SYSCFG_EnableFastModePlus\n
 800:Drivers/STM32F3xx_HAL_Driver/Inc/stm32f3xx_ll_system.h ****   *         SYSCFG_CFGR1 I2C2_FMP      LL_SYSCFG_EnableFastModePlus\n
 801:Drivers/STM32F3xx_HAL_Driver/Inc/stm32f3xx_ll_system.h ****   *         SYSCFG_CFGR1 I2C3_FMP      LL_SYSCFG_EnableFastModePlus
 802:Drivers/STM32F3xx_HAL_Driver/Inc/stm32f3xx_ll_system.h ****   * @param  ConfigFastModePlus This parameter can be a combination of the following values:
 803:Drivers/STM32F3xx_HAL_Driver/Inc/stm32f3xx_ll_system.h ****   *         @arg @ref LL_SYSCFG_I2C_FASTMODEPLUS_PB6
 804:Drivers/STM32F3xx_HAL_Driver/Inc/stm32f3xx_ll_system.h ****   *         @arg @ref LL_SYSCFG_I2C_FASTMODEPLUS_PB7
 805:Drivers/STM32F3xx_HAL_Driver/Inc/stm32f3xx_ll_system.h ****   *         @arg @ref LL_SYSCFG_I2C_FASTMODEPLUS_PB8
 806:Drivers/STM32F3xx_HAL_Driver/Inc/stm32f3xx_ll_system.h ****   *         @arg @ref LL_SYSCFG_I2C_FASTMODEPLUS_PB9
 807:Drivers/STM32F3xx_HAL_Driver/Inc/stm32f3xx_ll_system.h ****   *         @arg @ref LL_SYSCFG_I2C_FASTMODEPLUS_I2C1
 808:Drivers/STM32F3xx_HAL_Driver/Inc/stm32f3xx_ll_system.h ****   *         @arg @ref LL_SYSCFG_I2C_FASTMODEPLUS_I2C2 (*)
 809:Drivers/STM32F3xx_HAL_Driver/Inc/stm32f3xx_ll_system.h ****   *         @arg @ref LL_SYSCFG_I2C_FASTMODEPLUS_I2C3 (*)
 810:Drivers/STM32F3xx_HAL_Driver/Inc/stm32f3xx_ll_system.h ****   *
 811:Drivers/STM32F3xx_HAL_Driver/Inc/stm32f3xx_ll_system.h ****   *         (*) value not defined in all devices.
 812:Drivers/STM32F3xx_HAL_Driver/Inc/stm32f3xx_ll_system.h ****   * @retval None
 813:Drivers/STM32F3xx_HAL_Driver/Inc/stm32f3xx_ll_system.h ****   */
 814:Drivers/STM32F3xx_HAL_Driver/Inc/stm32f3xx_ll_system.h **** __STATIC_INLINE void LL_SYSCFG_EnableFastModePlus(uint32_t ConfigFastModePlus)
 815:Drivers/STM32F3xx_HAL_Driver/Inc/stm32f3xx_ll_system.h **** {
 816:Drivers/STM32F3xx_HAL_Driver/Inc/stm32f3xx_ll_system.h ****   SET_BIT(SYSCFG->CFGR1, ConfigFastModePlus);
 817:Drivers/STM32F3xx_HAL_Driver/Inc/stm32f3xx_ll_system.h **** }
 818:Drivers/STM32F3xx_HAL_Driver/Inc/stm32f3xx_ll_system.h **** 
 819:Drivers/STM32F3xx_HAL_Driver/Inc/stm32f3xx_ll_system.h **** /**
 820:Drivers/STM32F3xx_HAL_Driver/Inc/stm32f3xx_ll_system.h ****   * @brief  Disable the I2C fast mode plus driving capability.
 821:Drivers/STM32F3xx_HAL_Driver/Inc/stm32f3xx_ll_system.h ****   * @rmtoll SYSCFG_CFGR1 I2C_PB6_FMP   LL_SYSCFG_DisableFastModePlus\n
 822:Drivers/STM32F3xx_HAL_Driver/Inc/stm32f3xx_ll_system.h ****   *         SYSCFG_CFGR1 I2C_PB7_FMP   LL_SYSCFG_DisableFastModePlus\n
 823:Drivers/STM32F3xx_HAL_Driver/Inc/stm32f3xx_ll_system.h ****   *         SYSCFG_CFGR1 I2C_PB8_FMP   LL_SYSCFG_DisableFastModePlus\n
 824:Drivers/STM32F3xx_HAL_Driver/Inc/stm32f3xx_ll_system.h ****   *         SYSCFG_CFGR1 I2C_PB9_FMP   LL_SYSCFG_DisableFastModePlus\n
 825:Drivers/STM32F3xx_HAL_Driver/Inc/stm32f3xx_ll_system.h ****   *         SYSCFG_CFGR1 I2C1_FMP      LL_SYSCFG_DisableFastModePlus\n
 826:Drivers/STM32F3xx_HAL_Driver/Inc/stm32f3xx_ll_system.h ****   *         SYSCFG_CFGR1 I2C2_FMP      LL_SYSCFG_DisableFastModePlus\n
 827:Drivers/STM32F3xx_HAL_Driver/Inc/stm32f3xx_ll_system.h ****   *         SYSCFG_CFGR1 I2C3_FMP      LL_SYSCFG_DisableFastModePlus
 828:Drivers/STM32F3xx_HAL_Driver/Inc/stm32f3xx_ll_system.h ****   * @param  ConfigFastModePlus This parameter can be a combination of the following values:
 829:Drivers/STM32F3xx_HAL_Driver/Inc/stm32f3xx_ll_system.h ****   *         @arg @ref LL_SYSCFG_I2C_FASTMODEPLUS_PB6
 830:Drivers/STM32F3xx_HAL_Driver/Inc/stm32f3xx_ll_system.h ****   *         @arg @ref LL_SYSCFG_I2C_FASTMODEPLUS_PB7
 831:Drivers/STM32F3xx_HAL_Driver/Inc/stm32f3xx_ll_system.h ****   *         @arg @ref LL_SYSCFG_I2C_FASTMODEPLUS_PB8
 832:Drivers/STM32F3xx_HAL_Driver/Inc/stm32f3xx_ll_system.h ****   *         @arg @ref LL_SYSCFG_I2C_FASTMODEPLUS_PB9
 833:Drivers/STM32F3xx_HAL_Driver/Inc/stm32f3xx_ll_system.h ****   *         @arg @ref LL_SYSCFG_I2C_FASTMODEPLUS_I2C1
 834:Drivers/STM32F3xx_HAL_Driver/Inc/stm32f3xx_ll_system.h ****   *         @arg @ref LL_SYSCFG_I2C_FASTMODEPLUS_I2C2 (*)
 835:Drivers/STM32F3xx_HAL_Driver/Inc/stm32f3xx_ll_system.h ****   *         @arg @ref LL_SYSCFG_I2C_FASTMODEPLUS_I2C3 (*)
 836:Drivers/STM32F3xx_HAL_Driver/Inc/stm32f3xx_ll_system.h ****   *
 837:Drivers/STM32F3xx_HAL_Driver/Inc/stm32f3xx_ll_system.h ****   *         (*) value not defined in all devices.
ARM GAS  /tmp/cc1L2lRe.s 			page 46


 838:Drivers/STM32F3xx_HAL_Driver/Inc/stm32f3xx_ll_system.h ****   * @retval None
 839:Drivers/STM32F3xx_HAL_Driver/Inc/stm32f3xx_ll_system.h ****   */
 840:Drivers/STM32F3xx_HAL_Driver/Inc/stm32f3xx_ll_system.h **** __STATIC_INLINE void LL_SYSCFG_DisableFastModePlus(uint32_t ConfigFastModePlus)
 841:Drivers/STM32F3xx_HAL_Driver/Inc/stm32f3xx_ll_system.h **** {
 842:Drivers/STM32F3xx_HAL_Driver/Inc/stm32f3xx_ll_system.h ****   CLEAR_BIT(SYSCFG->CFGR1, ConfigFastModePlus);
 843:Drivers/STM32F3xx_HAL_Driver/Inc/stm32f3xx_ll_system.h **** }
 844:Drivers/STM32F3xx_HAL_Driver/Inc/stm32f3xx_ll_system.h **** 
 845:Drivers/STM32F3xx_HAL_Driver/Inc/stm32f3xx_ll_system.h **** /**
 846:Drivers/STM32F3xx_HAL_Driver/Inc/stm32f3xx_ll_system.h ****   * @brief  Enable Floating Point Unit Invalid operation Interrupt
 847:Drivers/STM32F3xx_HAL_Driver/Inc/stm32f3xx_ll_system.h ****   * @rmtoll SYSCFG_CFGR1 FPU_IE_0      LL_SYSCFG_EnableIT_FPU_IOC
 848:Drivers/STM32F3xx_HAL_Driver/Inc/stm32f3xx_ll_system.h ****   * @retval None
 849:Drivers/STM32F3xx_HAL_Driver/Inc/stm32f3xx_ll_system.h ****   */
 850:Drivers/STM32F3xx_HAL_Driver/Inc/stm32f3xx_ll_system.h **** __STATIC_INLINE void LL_SYSCFG_EnableIT_FPU_IOC(void)
 851:Drivers/STM32F3xx_HAL_Driver/Inc/stm32f3xx_ll_system.h **** {
 852:Drivers/STM32F3xx_HAL_Driver/Inc/stm32f3xx_ll_system.h ****   SET_BIT(SYSCFG->CFGR1, SYSCFG_CFGR1_FPU_IE_0);
 853:Drivers/STM32F3xx_HAL_Driver/Inc/stm32f3xx_ll_system.h **** }
 854:Drivers/STM32F3xx_HAL_Driver/Inc/stm32f3xx_ll_system.h **** 
 855:Drivers/STM32F3xx_HAL_Driver/Inc/stm32f3xx_ll_system.h **** /**
 856:Drivers/STM32F3xx_HAL_Driver/Inc/stm32f3xx_ll_system.h ****   * @brief  Enable Floating Point Unit Divide-by-zero Interrupt
 857:Drivers/STM32F3xx_HAL_Driver/Inc/stm32f3xx_ll_system.h ****   * @rmtoll SYSCFG_CFGR1 FPU_IE_1      LL_SYSCFG_EnableIT_FPU_DZC
 858:Drivers/STM32F3xx_HAL_Driver/Inc/stm32f3xx_ll_system.h ****   * @retval None
 859:Drivers/STM32F3xx_HAL_Driver/Inc/stm32f3xx_ll_system.h ****   */
 860:Drivers/STM32F3xx_HAL_Driver/Inc/stm32f3xx_ll_system.h **** __STATIC_INLINE void LL_SYSCFG_EnableIT_FPU_DZC(void)
 861:Drivers/STM32F3xx_HAL_Driver/Inc/stm32f3xx_ll_system.h **** {
 862:Drivers/STM32F3xx_HAL_Driver/Inc/stm32f3xx_ll_system.h ****   SET_BIT(SYSCFG->CFGR1, SYSCFG_CFGR1_FPU_IE_1);
 863:Drivers/STM32F3xx_HAL_Driver/Inc/stm32f3xx_ll_system.h **** }
 864:Drivers/STM32F3xx_HAL_Driver/Inc/stm32f3xx_ll_system.h **** 
 865:Drivers/STM32F3xx_HAL_Driver/Inc/stm32f3xx_ll_system.h **** /**
 866:Drivers/STM32F3xx_HAL_Driver/Inc/stm32f3xx_ll_system.h ****   * @brief  Enable Floating Point Unit Underflow Interrupt
 867:Drivers/STM32F3xx_HAL_Driver/Inc/stm32f3xx_ll_system.h ****   * @rmtoll SYSCFG_CFGR1 FPU_IE_2      LL_SYSCFG_EnableIT_FPU_UFC
