ARM GAS  /tmp/ccoHk3kV.s 			page 1


   1              		.cpu cortex-m4
   2              		.eabi_attribute 27, 1
   3              		.eabi_attribute 28, 1
   4              		.eabi_attribute 20, 1
   5              		.eabi_attribute 21, 1
   6              		.eabi_attribute 23, 3
   7              		.eabi_attribute 24, 1
   8              		.eabi_attribute 25, 1
   9              		.eabi_attribute 26, 1
  10              		.eabi_attribute 30, 1
  11              		.eabi_attribute 34, 1
  12              		.eabi_attribute 18, 4
  13              		.file	"stm32f3xx_ll_gpio.c"
  14              		.text
  15              	.Ltext0:
  16              		.cfi_sections	.debug_frame
  17              		.section	.text.LL_GPIO_DeInit,"ax",%progbits
  18              		.align	1
  19              		.global	LL_GPIO_DeInit
  20              		.syntax unified
  21              		.thumb
  22              		.thumb_func
  23              		.fpu fpv4-sp-d16
  25              	LL_GPIO_DeInit:
  26              	.LFB164:
  27              		.file 1 "Drivers/STM32F3xx_HAL_Driver/Src/stm32f3xx_ll_gpio.c"
   1:Drivers/STM32F3xx_HAL_Driver/Src/stm32f3xx_ll_gpio.c **** /**
   2:Drivers/STM32F3xx_HAL_Driver/Src/stm32f3xx_ll_gpio.c ****   ******************************************************************************
   3:Drivers/STM32F3xx_HAL_Driver/Src/stm32f3xx_ll_gpio.c ****   * @file    stm32f3xx_ll_gpio.c
   4:Drivers/STM32F3xx_HAL_Driver/Src/stm32f3xx_ll_gpio.c ****   * @author  MCD Application Team
   5:Drivers/STM32F3xx_HAL_Driver/Src/stm32f3xx_ll_gpio.c ****   * @brief   GPIO LL module driver.
   6:Drivers/STM32F3xx_HAL_Driver/Src/stm32f3xx_ll_gpio.c ****   ******************************************************************************
   7:Drivers/STM32F3xx_HAL_Driver/Src/stm32f3xx_ll_gpio.c ****   * @attention
   8:Drivers/STM32F3xx_HAL_Driver/Src/stm32f3xx_ll_gpio.c ****   *
   9:Drivers/STM32F3xx_HAL_Driver/Src/stm32f3xx_ll_gpio.c ****   * <h2><center>&copy; COPYRIGHT(c) 2016 STMicroelectronics</center></h2>
  10:Drivers/STM32F3xx_HAL_Driver/Src/stm32f3xx_ll_gpio.c ****   *
  11:Drivers/STM32F3xx_HAL_Driver/Src/stm32f3xx_ll_gpio.c ****   * Redistribution and use in source and binary forms, with or without modification,
  12:Drivers/STM32F3xx_HAL_Driver/Src/stm32f3xx_ll_gpio.c ****   * are permitted provided that the following conditions are met:
  13:Drivers/STM32F3xx_HAL_Driver/Src/stm32f3xx_ll_gpio.c ****   *   1. Redistributions of source code must retain the above copyright notice,
  14:Drivers/STM32F3xx_HAL_Driver/Src/stm32f3xx_ll_gpio.c ****   *      this list of conditions and the following disclaimer.
  15:Drivers/STM32F3xx_HAL_Driver/Src/stm32f3xx_ll_gpio.c ****   *   2. Redistributions in binary form must reproduce the above copyright notice,
  16:Drivers/STM32F3xx_HAL_Driver/Src/stm32f3xx_ll_gpio.c ****   *      this list of conditions and the following disclaimer in the documentation
  17:Drivers/STM32F3xx_HAL_Driver/Src/stm32f3xx_ll_gpio.c ****   *      and/or other materials provided with the distribution.
  18:Drivers/STM32F3xx_HAL_Driver/Src/stm32f3xx_ll_gpio.c ****   *   3. Neither the name of STMicroelectronics nor the names of its contributors
  19:Drivers/STM32F3xx_HAL_Driver/Src/stm32f3xx_ll_gpio.c ****   *      may be used to endorse or promote products derived from this software
  20:Drivers/STM32F3xx_HAL_Driver/Src/stm32f3xx_ll_gpio.c ****   *      without specific prior written permission.
  21:Drivers/STM32F3xx_HAL_Driver/Src/stm32f3xx_ll_gpio.c ****   *
  22:Drivers/STM32F3xx_HAL_Driver/Src/stm32f3xx_ll_gpio.c ****   * THIS SOFTWARE IS PROVIDED BY THE COPYRIGHT HOLDERS AND CONTRIBUTORS "AS IS"
  23:Drivers/STM32F3xx_HAL_Driver/Src/stm32f3xx_ll_gpio.c ****   * AND ANY EXPRESS OR IMPLIED WARRANTIES, INCLUDING, BUT NOT LIMITED TO, THE
  24:Drivers/STM32F3xx_HAL_Driver/Src/stm32f3xx_ll_gpio.c ****   * IMPLIED WARRANTIES OF MERCHANTABILITY AND FITNESS FOR A PARTICULAR PURPOSE ARE
  25:Drivers/STM32F3xx_HAL_Driver/Src/stm32f3xx_ll_gpio.c ****   * DISCLAIMED. IN NO EVENT SHALL THE COPYRIGHT HOLDER OR CONTRIBUTORS BE LIABLE
  26:Drivers/STM32F3xx_HAL_Driver/Src/stm32f3xx_ll_gpio.c ****   * FOR ANY DIRECT, INDIRECT, INCIDENTAL, SPECIAL, EXEMPLARY, OR CONSEQUENTIAL
  27:Drivers/STM32F3xx_HAL_Driver/Src/stm32f3xx_ll_gpio.c ****   * DAMAGES (INCLUDING, BUT NOT LIMITED TO, PROCUREMENT OF SUBSTITUTE GOODS OR
  28:Drivers/STM32F3xx_HAL_Driver/Src/stm32f3xx_ll_gpio.c ****   * SERVICES; LOSS OF USE, DATA, OR PROFITS; OR BUSINESS INTERRUPTION) HOWEVER
  29:Drivers/STM32F3xx_HAL_Driver/Src/stm32f3xx_ll_gpio.c ****   * CAUSED AND ON ANY THEORY OF LIABILITY, WHETHER IN CONTRACT, STRICT LIABILITY,
  30:Drivers/STM32F3xx_HAL_Driver/Src/stm32f3xx_ll_gpio.c ****   * OR TORT (INCLUDING NEGLIGENCE OR OTHERWISE) ARISING IN ANY WAY OUT OF THE USE
  31:Drivers/STM32F3xx_HAL_Driver/Src/stm32f3xx_ll_gpio.c ****   * OF THIS SOFTWARE, EVEN IF ADVISED OF THE POSSIBILITY OF SUCH DAMAGE.
ARM GAS  /tmp/ccoHk3kV.s 			page 2


  32:Drivers/STM32F3xx_HAL_Driver/Src/stm32f3xx_ll_gpio.c ****   *
  33:Drivers/STM32F3xx_HAL_Driver/Src/stm32f3xx_ll_gpio.c ****   ******************************************************************************
  34:Drivers/STM32F3xx_HAL_Driver/Src/stm32f3xx_ll_gpio.c ****   */
  35:Drivers/STM32F3xx_HAL_Driver/Src/stm32f3xx_ll_gpio.c **** #if defined(USE_FULL_LL_DRIVER)
  36:Drivers/STM32F3xx_HAL_Driver/Src/stm32f3xx_ll_gpio.c **** 
  37:Drivers/STM32F3xx_HAL_Driver/Src/stm32f3xx_ll_gpio.c **** /* Includes ------------------------------------------------------------------*/
  38:Drivers/STM32F3xx_HAL_Driver/Src/stm32f3xx_ll_gpio.c **** #include "stm32f3xx_ll_gpio.h"
  39:Drivers/STM32F3xx_HAL_Driver/Src/stm32f3xx_ll_gpio.c **** #include "stm32f3xx_ll_bus.h"
  40:Drivers/STM32F3xx_HAL_Driver/Src/stm32f3xx_ll_gpio.c **** #ifdef  USE_FULL_ASSERT
  41:Drivers/STM32F3xx_HAL_Driver/Src/stm32f3xx_ll_gpio.c **** #include "stm32_assert.h"
  42:Drivers/STM32F3xx_HAL_Driver/Src/stm32f3xx_ll_gpio.c **** #else
  43:Drivers/STM32F3xx_HAL_Driver/Src/stm32f3xx_ll_gpio.c **** #define assert_param(expr) ((void)0U)
  44:Drivers/STM32F3xx_HAL_Driver/Src/stm32f3xx_ll_gpio.c **** #endif
  45:Drivers/STM32F3xx_HAL_Driver/Src/stm32f3xx_ll_gpio.c **** 
  46:Drivers/STM32F3xx_HAL_Driver/Src/stm32f3xx_ll_gpio.c **** /** @addtogroup STM32F3xx_LL_Driver
  47:Drivers/STM32F3xx_HAL_Driver/Src/stm32f3xx_ll_gpio.c ****   * @{
  48:Drivers/STM32F3xx_HAL_Driver/Src/stm32f3xx_ll_gpio.c ****   */
  49:Drivers/STM32F3xx_HAL_Driver/Src/stm32f3xx_ll_gpio.c **** 
  50:Drivers/STM32F3xx_HAL_Driver/Src/stm32f3xx_ll_gpio.c **** #if defined (GPIOA) || defined (GPIOB) || defined (GPIOC) || defined (GPIOD) || defined (GPIOE) || 
  51:Drivers/STM32F3xx_HAL_Driver/Src/stm32f3xx_ll_gpio.c **** 
  52:Drivers/STM32F3xx_HAL_Driver/Src/stm32f3xx_ll_gpio.c **** /** @addtogroup GPIO_LL
  53:Drivers/STM32F3xx_HAL_Driver/Src/stm32f3xx_ll_gpio.c ****   * @{
  54:Drivers/STM32F3xx_HAL_Driver/Src/stm32f3xx_ll_gpio.c ****   */
  55:Drivers/STM32F3xx_HAL_Driver/Src/stm32f3xx_ll_gpio.c **** 
  56:Drivers/STM32F3xx_HAL_Driver/Src/stm32f3xx_ll_gpio.c **** /* Private types -------------------------------------------------------------*/
  57:Drivers/STM32F3xx_HAL_Driver/Src/stm32f3xx_ll_gpio.c **** /* Private variables ---------------------------------------------------------*/
  58:Drivers/STM32F3xx_HAL_Driver/Src/stm32f3xx_ll_gpio.c **** /* Private constants ---------------------------------------------------------*/
  59:Drivers/STM32F3xx_HAL_Driver/Src/stm32f3xx_ll_gpio.c **** /* Private macros ------------------------------------------------------------*/
  60:Drivers/STM32F3xx_HAL_Driver/Src/stm32f3xx_ll_gpio.c **** /** @addtogroup GPIO_LL_Private_Macros
  61:Drivers/STM32F3xx_HAL_Driver/Src/stm32f3xx_ll_gpio.c ****   * @{
  62:Drivers/STM32F3xx_HAL_Driver/Src/stm32f3xx_ll_gpio.c ****   */
  63:Drivers/STM32F3xx_HAL_Driver/Src/stm32f3xx_ll_gpio.c **** #define IS_LL_GPIO_PIN(__VALUE__)          (((0x00000000U) < (__VALUE__)) && ((__VALUE__) <= (LL_GP
  64:Drivers/STM32F3xx_HAL_Driver/Src/stm32f3xx_ll_gpio.c **** 
  65:Drivers/STM32F3xx_HAL_Driver/Src/stm32f3xx_ll_gpio.c **** #define IS_LL_GPIO_MODE(__VALUE__)         (((__VALUE__) == LL_GPIO_MODE_INPUT)     ||\
  66:Drivers/STM32F3xx_HAL_Driver/Src/stm32f3xx_ll_gpio.c ****                                             ((__VALUE__) == LL_GPIO_MODE_OUTPUT)    ||\
  67:Drivers/STM32F3xx_HAL_Driver/Src/stm32f3xx_ll_gpio.c ****                                             ((__VALUE__) == LL_GPIO_MODE_ALTERNATE) ||\
  68:Drivers/STM32F3xx_HAL_Driver/Src/stm32f3xx_ll_gpio.c ****                                             ((__VALUE__) == LL_GPIO_MODE_ANALOG))
  69:Drivers/STM32F3xx_HAL_Driver/Src/stm32f3xx_ll_gpio.c **** 
  70:Drivers/STM32F3xx_HAL_Driver/Src/stm32f3xx_ll_gpio.c **** #define IS_LL_GPIO_OUTPUT_TYPE(__VALUE__)  (((__VALUE__) == LL_GPIO_OUTPUT_PUSHPULL)  ||\
  71:Drivers/STM32F3xx_HAL_Driver/Src/stm32f3xx_ll_gpio.c ****                                             ((__VALUE__) == LL_GPIO_OUTPUT_OPENDRAIN))
  72:Drivers/STM32F3xx_HAL_Driver/Src/stm32f3xx_ll_gpio.c **** 
  73:Drivers/STM32F3xx_HAL_Driver/Src/stm32f3xx_ll_gpio.c **** #define IS_LL_GPIO_SPEED(__VALUE__)        (((__VALUE__) == LL_GPIO_SPEED_FREQ_LOW)       ||\
  74:Drivers/STM32F3xx_HAL_Driver/Src/stm32f3xx_ll_gpio.c ****                                             ((__VALUE__) == LL_GPIO_SPEED_FREQ_MEDIUM)    ||\
  75:Drivers/STM32F3xx_HAL_Driver/Src/stm32f3xx_ll_gpio.c ****                                             ((__VALUE__) == LL_GPIO_SPEED_FREQ_HIGH))
  76:Drivers/STM32F3xx_HAL_Driver/Src/stm32f3xx_ll_gpio.c **** 
  77:Drivers/STM32F3xx_HAL_Driver/Src/stm32f3xx_ll_gpio.c **** #define IS_LL_GPIO_PULL(__VALUE__)         (((__VALUE__) == LL_GPIO_PULL_NO)   ||\
  78:Drivers/STM32F3xx_HAL_Driver/Src/stm32f3xx_ll_gpio.c ****                                             ((__VALUE__) == LL_GPIO_PULL_UP)   ||\
  79:Drivers/STM32F3xx_HAL_Driver/Src/stm32f3xx_ll_gpio.c ****                                             ((__VALUE__) == LL_GPIO_PULL_DOWN))
  80:Drivers/STM32F3xx_HAL_Driver/Src/stm32f3xx_ll_gpio.c **** 
  81:Drivers/STM32F3xx_HAL_Driver/Src/stm32f3xx_ll_gpio.c **** #define IS_LL_GPIO_ALTERNATE(__VALUE__)    (((__VALUE__) == LL_GPIO_AF_0  )   ||\
  82:Drivers/STM32F3xx_HAL_Driver/Src/stm32f3xx_ll_gpio.c ****                                             ((__VALUE__) == LL_GPIO_AF_1  )   ||\
  83:Drivers/STM32F3xx_HAL_Driver/Src/stm32f3xx_ll_gpio.c ****                                             ((__VALUE__) == LL_GPIO_AF_2  )   ||\
  84:Drivers/STM32F3xx_HAL_Driver/Src/stm32f3xx_ll_gpio.c ****                                             ((__VALUE__) == LL_GPIO_AF_3  )   ||\
  85:Drivers/STM32F3xx_HAL_Driver/Src/stm32f3xx_ll_gpio.c ****                                             ((__VALUE__) == LL_GPIO_AF_4  )   ||\
  86:Drivers/STM32F3xx_HAL_Driver/Src/stm32f3xx_ll_gpio.c ****                                             ((__VALUE__) == LL_GPIO_AF_5  )   ||\
  87:Drivers/STM32F3xx_HAL_Driver/Src/stm32f3xx_ll_gpio.c ****                                             ((__VALUE__) == LL_GPIO_AF_6  )   ||\
  88:Drivers/STM32F3xx_HAL_Driver/Src/stm32f3xx_ll_gpio.c ****                                             ((__VALUE__) == LL_GPIO_AF_7  )   ||\
ARM GAS  /tmp/ccoHk3kV.s 			page 3


  89:Drivers/STM32F3xx_HAL_Driver/Src/stm32f3xx_ll_gpio.c ****                                             ((__VALUE__) == LL_GPIO_AF_8  )   ||\
  90:Drivers/STM32F3xx_HAL_Driver/Src/stm32f3xx_ll_gpio.c ****                                             ((__VALUE__) == LL_GPIO_AF_9  )   ||\
  91:Drivers/STM32F3xx_HAL_Driver/Src/stm32f3xx_ll_gpio.c ****                                             ((__VALUE__) == LL_GPIO_AF_10 )   ||\
  92:Drivers/STM32F3xx_HAL_Driver/Src/stm32f3xx_ll_gpio.c ****                                             ((__VALUE__) == LL_GPIO_AF_11 )   ||\
  93:Drivers/STM32F3xx_HAL_Driver/Src/stm32f3xx_ll_gpio.c ****                                             ((__VALUE__) == LL_GPIO_AF_12 )   ||\
  94:Drivers/STM32F3xx_HAL_Driver/Src/stm32f3xx_ll_gpio.c ****                                             ((__VALUE__) == LL_GPIO_AF_13 )   ||\
  95:Drivers/STM32F3xx_HAL_Driver/Src/stm32f3xx_ll_gpio.c ****                                             ((__VALUE__) == LL_GPIO_AF_14 )   ||\
  96:Drivers/STM32F3xx_HAL_Driver/Src/stm32f3xx_ll_gpio.c ****                                             ((__VALUE__) == LL_GPIO_AF_15 ))
  97:Drivers/STM32F3xx_HAL_Driver/Src/stm32f3xx_ll_gpio.c **** /**
  98:Drivers/STM32F3xx_HAL_Driver/Src/stm32f3xx_ll_gpio.c ****   * @}
  99:Drivers/STM32F3xx_HAL_Driver/Src/stm32f3xx_ll_gpio.c ****   */
 100:Drivers/STM32F3xx_HAL_Driver/Src/stm32f3xx_ll_gpio.c **** 
 101:Drivers/STM32F3xx_HAL_Driver/Src/stm32f3xx_ll_gpio.c **** /* Private function prototypes -----------------------------------------------*/
 102:Drivers/STM32F3xx_HAL_Driver/Src/stm32f3xx_ll_gpio.c **** 
 103:Drivers/STM32F3xx_HAL_Driver/Src/stm32f3xx_ll_gpio.c **** /* Exported functions --------------------------------------------------------*/
 104:Drivers/STM32F3xx_HAL_Driver/Src/stm32f3xx_ll_gpio.c **** /** @addtogroup GPIO_LL_Exported_Functions
 105:Drivers/STM32F3xx_HAL_Driver/Src/stm32f3xx_ll_gpio.c ****   * @{
 106:Drivers/STM32F3xx_HAL_Driver/Src/stm32f3xx_ll_gpio.c ****   */
 107:Drivers/STM32F3xx_HAL_Driver/Src/stm32f3xx_ll_gpio.c **** 
 108:Drivers/STM32F3xx_HAL_Driver/Src/stm32f3xx_ll_gpio.c **** /** @addtogroup GPIO_LL_EF_Init
 109:Drivers/STM32F3xx_HAL_Driver/Src/stm32f3xx_ll_gpio.c ****   * @{
 110:Drivers/STM32F3xx_HAL_Driver/Src/stm32f3xx_ll_gpio.c ****   */
 111:Drivers/STM32F3xx_HAL_Driver/Src/stm32f3xx_ll_gpio.c **** 
 112:Drivers/STM32F3xx_HAL_Driver/Src/stm32f3xx_ll_gpio.c **** /**
 113:Drivers/STM32F3xx_HAL_Driver/Src/stm32f3xx_ll_gpio.c ****   * @brief  De-initialize GPIO registers (Registers restored to their default values).
 114:Drivers/STM32F3xx_HAL_Driver/Src/stm32f3xx_ll_gpio.c ****   * @param  GPIOx GPIO Port
 115:Drivers/STM32F3xx_HAL_Driver/Src/stm32f3xx_ll_gpio.c ****   * @retval An ErrorStatus enumeration value:
 116:Drivers/STM32F3xx_HAL_Driver/Src/stm32f3xx_ll_gpio.c ****   *          - SUCCESS: GPIO registers are de-initialized
 117:Drivers/STM32F3xx_HAL_Driver/Src/stm32f3xx_ll_gpio.c ****   *          - ERROR:   Wrong GPIO Port
 118:Drivers/STM32F3xx_HAL_Driver/Src/stm32f3xx_ll_gpio.c ****   */
 119:Drivers/STM32F3xx_HAL_Driver/Src/stm32f3xx_ll_gpio.c **** ErrorStatus LL_GPIO_DeInit(GPIO_TypeDef *GPIOx)
 120:Drivers/STM32F3xx_HAL_Driver/Src/stm32f3xx_ll_gpio.c **** {
  28              		.loc 1 120 0
  29              		.cfi_startproc
  30              		@ args = 0, pretend = 0, frame = 0
  31              		@ frame_needed = 0, uses_anonymous_args = 0
  32              		@ link register save eliminated.
  33              	.LVL0:
 121:Drivers/STM32F3xx_HAL_Driver/Src/stm32f3xx_ll_gpio.c ****   ErrorStatus status = SUCCESS;
 122:Drivers/STM32F3xx_HAL_Driver/Src/stm32f3xx_ll_gpio.c **** 
 123:Drivers/STM32F3xx_HAL_Driver/Src/stm32f3xx_ll_gpio.c ****   /* Check the parameters */
 124:Drivers/STM32F3xx_HAL_Driver/Src/stm32f3xx_ll_gpio.c ****   assert_param(IS_GPIO_ALL_INSTANCE(GPIOx));
 125:Drivers/STM32F3xx_HAL_Driver/Src/stm32f3xx_ll_gpio.c **** 
 126:Drivers/STM32F3xx_HAL_Driver/Src/stm32f3xx_ll_gpio.c ****   /* Force and Release reset on clock of GPIOx Port */
 127:Drivers/STM32F3xx_HAL_Driver/Src/stm32f3xx_ll_gpio.c ****   if (GPIOx == GPIOA)
  34              		.loc 1 127 0
  35 0000 B0F1904F 		cmp	r0, #1207959552
  36 0004 10D0     		beq	.L9
 128:Drivers/STM32F3xx_HAL_Driver/Src/stm32f3xx_ll_gpio.c ****   {
 129:Drivers/STM32F3xx_HAL_Driver/Src/stm32f3xx_ll_gpio.c ****     LL_AHB1_GRP1_ForceReset(LL_AHB1_GRP1_PERIPH_GPIOA);
 130:Drivers/STM32F3xx_HAL_Driver/Src/stm32f3xx_ll_gpio.c ****     LL_AHB1_GRP1_ReleaseReset(LL_AHB1_GRP1_PERIPH_GPIOA);
 131:Drivers/STM32F3xx_HAL_Driver/Src/stm32f3xx_ll_gpio.c ****   }
 132:Drivers/STM32F3xx_HAL_Driver/Src/stm32f3xx_ll_gpio.c ****   else if (GPIOx == GPIOB)
  37              		.loc 1 132 0
  38 0006 314B     		ldr	r3, .L15
  39 0008 9842     		cmp	r0, r3
  40 000a 18D0     		beq	.L10
ARM GAS  /tmp/ccoHk3kV.s 			page 4


 133:Drivers/STM32F3xx_HAL_Driver/Src/stm32f3xx_ll_gpio.c ****   {
 134:Drivers/STM32F3xx_HAL_Driver/Src/stm32f3xx_ll_gpio.c ****     LL_AHB1_GRP1_ForceReset(LL_AHB1_GRP1_PERIPH_GPIOB);
 135:Drivers/STM32F3xx_HAL_Driver/Src/stm32f3xx_ll_gpio.c ****     LL_AHB1_GRP1_ReleaseReset(LL_AHB1_GRP1_PERIPH_GPIOB);
 136:Drivers/STM32F3xx_HAL_Driver/Src/stm32f3xx_ll_gpio.c ****   }
 137:Drivers/STM32F3xx_HAL_Driver/Src/stm32f3xx_ll_gpio.c ****   else if (GPIOx == GPIOC)
  41              		.loc 1 137 0
  42 000c 304B     		ldr	r3, .L15+4
  43 000e 9842     		cmp	r0, r3
  44 0010 23D0     		beq	.L11
 138:Drivers/STM32F3xx_HAL_Driver/Src/stm32f3xx_ll_gpio.c ****   {
 139:Drivers/STM32F3xx_HAL_Driver/Src/stm32f3xx_ll_gpio.c ****     LL_AHB1_GRP1_ForceReset(LL_AHB1_GRP1_PERIPH_GPIOC);
 140:Drivers/STM32F3xx_HAL_Driver/Src/stm32f3xx_ll_gpio.c ****     LL_AHB1_GRP1_ReleaseReset(LL_AHB1_GRP1_PERIPH_GPIOC);
 141:Drivers/STM32F3xx_HAL_Driver/Src/stm32f3xx_ll_gpio.c ****   }
 142:Drivers/STM32F3xx_HAL_Driver/Src/stm32f3xx_ll_gpio.c **** #if defined(GPIOD)
 143:Drivers/STM32F3xx_HAL_Driver/Src/stm32f3xx_ll_gpio.c ****   else if (GPIOx == GPIOD)
  45              		.loc 1 143 0
  46 0012 304B     		ldr	r3, .L15+8
  47 0014 9842     		cmp	r0, r3
  48 0016 2ED0     		beq	.L12
 144:Drivers/STM32F3xx_HAL_Driver/Src/stm32f3xx_ll_gpio.c ****   {
 145:Drivers/STM32F3xx_HAL_Driver/Src/stm32f3xx_ll_gpio.c ****     LL_AHB1_GRP1_ForceReset(LL_AHB1_GRP1_PERIPH_GPIOD);
 146:Drivers/STM32F3xx_HAL_Driver/Src/stm32f3xx_ll_gpio.c ****     LL_AHB1_GRP1_ReleaseReset(LL_AHB1_GRP1_PERIPH_GPIOD);
 147:Drivers/STM32F3xx_HAL_Driver/Src/stm32f3xx_ll_gpio.c ****   }
 148:Drivers/STM32F3xx_HAL_Driver/Src/stm32f3xx_ll_gpio.c **** #endif /* GPIOD */
 149:Drivers/STM32F3xx_HAL_Driver/Src/stm32f3xx_ll_gpio.c **** #if defined(GPIOE)
 150:Drivers/STM32F3xx_HAL_Driver/Src/stm32f3xx_ll_gpio.c ****   else if (GPIOx == GPIOE)
  49              		.loc 1 150 0
  50 0018 2F4B     		ldr	r3, .L15+12
  51 001a 9842     		cmp	r0, r3
  52 001c 39D0     		beq	.L13
 151:Drivers/STM32F3xx_HAL_Driver/Src/stm32f3xx_ll_gpio.c ****   {
 152:Drivers/STM32F3xx_HAL_Driver/Src/stm32f3xx_ll_gpio.c ****     LL_AHB1_GRP1_ForceReset(LL_AHB1_GRP1_PERIPH_GPIOE);
 153:Drivers/STM32F3xx_HAL_Driver/Src/stm32f3xx_ll_gpio.c ****     LL_AHB1_GRP1_ReleaseReset(LL_AHB1_GRP1_PERIPH_GPIOE);
 154:Drivers/STM32F3xx_HAL_Driver/Src/stm32f3xx_ll_gpio.c ****   }
 155:Drivers/STM32F3xx_HAL_Driver/Src/stm32f3xx_ll_gpio.c **** #endif /* GPIOE */
 156:Drivers/STM32F3xx_HAL_Driver/Src/stm32f3xx_ll_gpio.c **** #if defined(GPIOF)
 157:Drivers/STM32F3xx_HAL_Driver/Src/stm32f3xx_ll_gpio.c ****   else if (GPIOx == GPIOF)
  53              		.loc 1 157 0
  54 001e 2F4B     		ldr	r3, .L15+16
  55 0020 9842     		cmp	r0, r3
  56 0022 44D0     		beq	.L14
 158:Drivers/STM32F3xx_HAL_Driver/Src/stm32f3xx_ll_gpio.c ****   {
 159:Drivers/STM32F3xx_HAL_Driver/Src/stm32f3xx_ll_gpio.c ****     LL_AHB1_GRP1_ForceReset(LL_AHB1_GRP1_PERIPH_GPIOF);
 160:Drivers/STM32F3xx_HAL_Driver/Src/stm32f3xx_ll_gpio.c ****     LL_AHB1_GRP1_ReleaseReset(LL_AHB1_GRP1_PERIPH_GPIOF);
 161:Drivers/STM32F3xx_HAL_Driver/Src/stm32f3xx_ll_gpio.c ****   }
 162:Drivers/STM32F3xx_HAL_Driver/Src/stm32f3xx_ll_gpio.c **** #endif /* GPIOF */
 163:Drivers/STM32F3xx_HAL_Driver/Src/stm32f3xx_ll_gpio.c **** #if defined(GPIOG)
 164:Drivers/STM32F3xx_HAL_Driver/Src/stm32f3xx_ll_gpio.c ****   else if (GPIOx == GPIOG)
 165:Drivers/STM32F3xx_HAL_Driver/Src/stm32f3xx_ll_gpio.c ****   {
 166:Drivers/STM32F3xx_HAL_Driver/Src/stm32f3xx_ll_gpio.c ****     LL_AHB1_GRP1_ForceReset(LL_AHB1_GRP1_PERIPH_GPIOG);
 167:Drivers/STM32F3xx_HAL_Driver/Src/stm32f3xx_ll_gpio.c ****     LL_AHB1_GRP1_ReleaseReset(LL_AHB1_GRP1_PERIPH_GPIOG);
 168:Drivers/STM32F3xx_HAL_Driver/Src/stm32f3xx_ll_gpio.c ****   }
 169:Drivers/STM32F3xx_HAL_Driver/Src/stm32f3xx_ll_gpio.c **** #endif /* GPIOG */
 170:Drivers/STM32F3xx_HAL_Driver/Src/stm32f3xx_ll_gpio.c **** #if defined(GPIOH)
 171:Drivers/STM32F3xx_HAL_Driver/Src/stm32f3xx_ll_gpio.c ****   else if (GPIOx == GPIOH)
 172:Drivers/STM32F3xx_HAL_Driver/Src/stm32f3xx_ll_gpio.c ****   {
 173:Drivers/STM32F3xx_HAL_Driver/Src/stm32f3xx_ll_gpio.c ****     LL_AHB1_GRP1_ForceReset(LL_AHB1_GRP1_PERIPH_GPIOH);
ARM GAS  /tmp/ccoHk3kV.s 			page 5


 174:Drivers/STM32F3xx_HAL_Driver/Src/stm32f3xx_ll_gpio.c ****     LL_AHB1_GRP1_ReleaseReset(LL_AHB1_GRP1_PERIPH_GPIOH);
 175:Drivers/STM32F3xx_HAL_Driver/Src/stm32f3xx_ll_gpio.c ****   }
 176:Drivers/STM32F3xx_HAL_Driver/Src/stm32f3xx_ll_gpio.c **** #endif /* GPIOH */
 177:Drivers/STM32F3xx_HAL_Driver/Src/stm32f3xx_ll_gpio.c ****   else
 178:Drivers/STM32F3xx_HAL_Driver/Src/stm32f3xx_ll_gpio.c ****   {
 179:Drivers/STM32F3xx_HAL_Driver/Src/stm32f3xx_ll_gpio.c ****     status = ERROR;
  57              		.loc 1 179 0
  58 0024 0120     		movs	r0, #1
  59              	.LVL1:
 180:Drivers/STM32F3xx_HAL_Driver/Src/stm32f3xx_ll_gpio.c ****   }
 181:Drivers/STM32F3xx_HAL_Driver/Src/stm32f3xx_ll_gpio.c **** 
 182:Drivers/STM32F3xx_HAL_Driver/Src/stm32f3xx_ll_gpio.c ****   return (status);
 183:Drivers/STM32F3xx_HAL_Driver/Src/stm32f3xx_ll_gpio.c **** }
  60              		.loc 1 183 0
  61 0026 7047     		bx	lr
  62              	.LVL2:
  63              	.L9:
  64              	.LBB86:
  65              	.LBB87:
  66              		.file 2 "Drivers/STM32F3xx_HAL_Driver/Inc/stm32f3xx_ll_bus.h"
   1:Drivers/STM32F3xx_HAL_Driver/Inc/stm32f3xx_ll_bus.h **** /**
   2:Drivers/STM32F3xx_HAL_Driver/Inc/stm32f3xx_ll_bus.h ****   ******************************************************************************
   3:Drivers/STM32F3xx_HAL_Driver/Inc/stm32f3xx_ll_bus.h ****   * @file    stm32f3xx_ll_bus.h
   4:Drivers/STM32F3xx_HAL_Driver/Inc/stm32f3xx_ll_bus.h ****   * @author  MCD Application Team
   5:Drivers/STM32F3xx_HAL_Driver/Inc/stm32f3xx_ll_bus.h ****   * @brief   Header file of BUS LL module.
   6:Drivers/STM32F3xx_HAL_Driver/Inc/stm32f3xx_ll_bus.h **** 
   7:Drivers/STM32F3xx_HAL_Driver/Inc/stm32f3xx_ll_bus.h ****   @verbatim                
   8:Drivers/STM32F3xx_HAL_Driver/Inc/stm32f3xx_ll_bus.h ****                       ##### RCC Limitations #####
   9:Drivers/STM32F3xx_HAL_Driver/Inc/stm32f3xx_ll_bus.h ****   ==============================================================================
  10:Drivers/STM32F3xx_HAL_Driver/Inc/stm32f3xx_ll_bus.h ****     [..]  
  11:Drivers/STM32F3xx_HAL_Driver/Inc/stm32f3xx_ll_bus.h ****       A delay between an RCC peripheral clock enable and the effective peripheral 
  12:Drivers/STM32F3xx_HAL_Driver/Inc/stm32f3xx_ll_bus.h ****       enabling should be taken into account in order to manage the peripheral read/write 
  13:Drivers/STM32F3xx_HAL_Driver/Inc/stm32f3xx_ll_bus.h ****       from/to registers.
  14:Drivers/STM32F3xx_HAL_Driver/Inc/stm32f3xx_ll_bus.h ****       (+) This delay depends on the peripheral mapping.
  15:Drivers/STM32F3xx_HAL_Driver/Inc/stm32f3xx_ll_bus.h ****         (++) AHB & APB peripherals, 1 dummy read is necessary
  16:Drivers/STM32F3xx_HAL_Driver/Inc/stm32f3xx_ll_bus.h **** 
  17:Drivers/STM32F3xx_HAL_Driver/Inc/stm32f3xx_ll_bus.h ****     [..]  
  18:Drivers/STM32F3xx_HAL_Driver/Inc/stm32f3xx_ll_bus.h ****       Workarounds:
  19:Drivers/STM32F3xx_HAL_Driver/Inc/stm32f3xx_ll_bus.h ****       (#) For AHB & APB peripherals, a dummy read to the peripheral register has been
  20:Drivers/STM32F3xx_HAL_Driver/Inc/stm32f3xx_ll_bus.h ****           inserted in each LL_{BUS}_GRP{x}_EnableClock() function.
  21:Drivers/STM32F3xx_HAL_Driver/Inc/stm32f3xx_ll_bus.h **** 
  22:Drivers/STM32F3xx_HAL_Driver/Inc/stm32f3xx_ll_bus.h ****   @endverbatim
  23:Drivers/STM32F3xx_HAL_Driver/Inc/stm32f3xx_ll_bus.h ****   ******************************************************************************
  24:Drivers/STM32F3xx_HAL_Driver/Inc/stm32f3xx_ll_bus.h ****   * @attention
  25:Drivers/STM32F3xx_HAL_Driver/Inc/stm32f3xx_ll_bus.h ****   *
  26:Drivers/STM32F3xx_HAL_Driver/Inc/stm32f3xx_ll_bus.h ****   * <h2><center>&copy; COPYRIGHT(c) 2016 STMicroelectronics</center></h2>
  27:Drivers/STM32F3xx_HAL_Driver/Inc/stm32f3xx_ll_bus.h ****   *
  28:Drivers/STM32F3xx_HAL_Driver/Inc/stm32f3xx_ll_bus.h ****   * Redistribution and use in source and binary forms, with or without modification,
  29:Drivers/STM32F3xx_HAL_Driver/Inc/stm32f3xx_ll_bus.h ****   * are permitted provided that the following conditions are met:
  30:Drivers/STM32F3xx_HAL_Driver/Inc/stm32f3xx_ll_bus.h ****   *   1. Redistributions of source code must retain the above copyright notice,
  31:Drivers/STM32F3xx_HAL_Driver/Inc/stm32f3xx_ll_bus.h ****   *      this list of conditions and the following disclaimer.
  32:Drivers/STM32F3xx_HAL_Driver/Inc/stm32f3xx_ll_bus.h ****   *   2. Redistributions in binary form must reproduce the above copyright notice,
  33:Drivers/STM32F3xx_HAL_Driver/Inc/stm32f3xx_ll_bus.h ****   *      this list of conditions and the following disclaimer in the documentation
  34:Drivers/STM32F3xx_HAL_Driver/Inc/stm32f3xx_ll_bus.h ****   *      and/or other materials provided with the distribution.
  35:Drivers/STM32F3xx_HAL_Driver/Inc/stm32f3xx_ll_bus.h ****   *   3. Neither the name of STMicroelectronics nor the names of its contributors
  36:Drivers/STM32F3xx_HAL_Driver/Inc/stm32f3xx_ll_bus.h ****   *      may be used to endorse or promote products derived from this software
  37:Drivers/STM32F3xx_HAL_Driver/Inc/stm32f3xx_ll_bus.h ****   *      without specific prior written permission.
ARM GAS  /tmp/ccoHk3kV.s 			page 6


  38:Drivers/STM32F3xx_HAL_Driver/Inc/stm32f3xx_ll_bus.h ****   *
  39:Drivers/STM32F3xx_HAL_Driver/Inc/stm32f3xx_ll_bus.h ****   * THIS SOFTWARE IS PROVIDED BY THE COPYRIGHT HOLDERS AND CONTRIBUTORS "AS IS"
  40:Drivers/STM32F3xx_HAL_Driver/Inc/stm32f3xx_ll_bus.h ****   * AND ANY EXPRESS OR IMPLIED WARRANTIES, INCLUDING, BUT NOT LIMITED TO, THE
  41:Drivers/STM32F3xx_HAL_Driver/Inc/stm32f3xx_ll_bus.h ****   * IMPLIED WARRANTIES OF MERCHANTABILITY AND FITNESS FOR A PARTICULAR PURPOSE ARE
  42:Drivers/STM32F3xx_HAL_Driver/Inc/stm32f3xx_ll_bus.h ****   * DISCLAIMED. IN NO EVENT SHALL THE COPYRIGHT HOLDER OR CONTRIBUTORS BE LIABLE
  43:Drivers/STM32F3xx_HAL_Driver/Inc/stm32f3xx_ll_bus.h ****   * FOR ANY DIRECT, INDIRECT, INCIDENTAL, SPECIAL, EXEMPLARY, OR CONSEQUENTIAL
  44:Drivers/STM32F3xx_HAL_Driver/Inc/stm32f3xx_ll_bus.h ****   * DAMAGES (INCLUDING, BUT NOT LIMITED TO, PROCUREMENT OF SUBSTITUTE GOODS OR
  45:Drivers/STM32F3xx_HAL_Driver/Inc/stm32f3xx_ll_bus.h ****   * SERVICES; LOSS OF USE, DATA, OR PROFITS; OR BUSINESS INTERRUPTION) HOWEVER
  46:Drivers/STM32F3xx_HAL_Driver/Inc/stm32f3xx_ll_bus.h ****   * CAUSED AND ON ANY THEORY OF LIABILITY, WHETHER IN CONTRACT, STRICT LIABILITY,
  47:Drivers/STM32F3xx_HAL_Driver/Inc/stm32f3xx_ll_bus.h ****   * OR TORT (INCLUDING NEGLIGENCE OR OTHERWISE) ARISING IN ANY WAY OUT OF THE USE
  48:Drivers/STM32F3xx_HAL_Driver/Inc/stm32f3xx_ll_bus.h ****   * OF THIS SOFTWARE, EVEN IF ADVISED OF THE POSSIBILITY OF SUCH DAMAGE.
  49:Drivers/STM32F3xx_HAL_Driver/Inc/stm32f3xx_ll_bus.h ****   *
  50:Drivers/STM32F3xx_HAL_Driver/Inc/stm32f3xx_ll_bus.h ****   ******************************************************************************
  51:Drivers/STM32F3xx_HAL_Driver/Inc/stm32f3xx_ll_bus.h ****   */
  52:Drivers/STM32F3xx_HAL_Driver/Inc/stm32f3xx_ll_bus.h **** 
  53:Drivers/STM32F3xx_HAL_Driver/Inc/stm32f3xx_ll_bus.h **** /* Define to prevent recursive inclusion -------------------------------------*/
  54:Drivers/STM32F3xx_HAL_Driver/Inc/stm32f3xx_ll_bus.h **** #ifndef __STM32F3xx_LL_BUS_H
  55:Drivers/STM32F3xx_HAL_Driver/Inc/stm32f3xx_ll_bus.h **** #define __STM32F3xx_LL_BUS_H
  56:Drivers/STM32F3xx_HAL_Driver/Inc/stm32f3xx_ll_bus.h **** 
  57:Drivers/STM32F3xx_HAL_Driver/Inc/stm32f3xx_ll_bus.h **** #ifdef __cplusplus
  58:Drivers/STM32F3xx_HAL_Driver/Inc/stm32f3xx_ll_bus.h **** extern "C" {
  59:Drivers/STM32F3xx_HAL_Driver/Inc/stm32f3xx_ll_bus.h **** #endif
  60:Drivers/STM32F3xx_HAL_Driver/Inc/stm32f3xx_ll_bus.h **** 
  61:Drivers/STM32F3xx_HAL_Driver/Inc/stm32f3xx_ll_bus.h **** /* Includes ------------------------------------------------------------------*/
  62:Drivers/STM32F3xx_HAL_Driver/Inc/stm32f3xx_ll_bus.h **** #include "stm32f3xx.h"
  63:Drivers/STM32F3xx_HAL_Driver/Inc/stm32f3xx_ll_bus.h **** 
  64:Drivers/STM32F3xx_HAL_Driver/Inc/stm32f3xx_ll_bus.h **** /** @addtogroup STM32F3xx_LL_Driver
  65:Drivers/STM32F3xx_HAL_Driver/Inc/stm32f3xx_ll_bus.h ****   * @{
  66:Drivers/STM32F3xx_HAL_Driver/Inc/stm32f3xx_ll_bus.h ****   */
  67:Drivers/STM32F3xx_HAL_Driver/Inc/stm32f3xx_ll_bus.h **** 
  68:Drivers/STM32F3xx_HAL_Driver/Inc/stm32f3xx_ll_bus.h **** #if defined(RCC)
  69:Drivers/STM32F3xx_HAL_Driver/Inc/stm32f3xx_ll_bus.h **** 
  70:Drivers/STM32F3xx_HAL_Driver/Inc/stm32f3xx_ll_bus.h **** /** @defgroup BUS_LL BUS
  71:Drivers/STM32F3xx_HAL_Driver/Inc/stm32f3xx_ll_bus.h ****   * @{
  72:Drivers/STM32F3xx_HAL_Driver/Inc/stm32f3xx_ll_bus.h ****   */
  73:Drivers/STM32F3xx_HAL_Driver/Inc/stm32f3xx_ll_bus.h **** 
  74:Drivers/STM32F3xx_HAL_Driver/Inc/stm32f3xx_ll_bus.h **** /* Private types -------------------------------------------------------------*/
  75:Drivers/STM32F3xx_HAL_Driver/Inc/stm32f3xx_ll_bus.h **** /* Private variables ---------------------------------------------------------*/
  76:Drivers/STM32F3xx_HAL_Driver/Inc/stm32f3xx_ll_bus.h **** 
  77:Drivers/STM32F3xx_HAL_Driver/Inc/stm32f3xx_ll_bus.h **** /* Private constants ---------------------------------------------------------*/
  78:Drivers/STM32F3xx_HAL_Driver/Inc/stm32f3xx_ll_bus.h **** 
  79:Drivers/STM32F3xx_HAL_Driver/Inc/stm32f3xx_ll_bus.h **** /* Private macros ------------------------------------------------------------*/
  80:Drivers/STM32F3xx_HAL_Driver/Inc/stm32f3xx_ll_bus.h **** 
  81:Drivers/STM32F3xx_HAL_Driver/Inc/stm32f3xx_ll_bus.h **** /* Exported types ------------------------------------------------------------*/
  82:Drivers/STM32F3xx_HAL_Driver/Inc/stm32f3xx_ll_bus.h **** /* Exported constants --------------------------------------------------------*/
  83:Drivers/STM32F3xx_HAL_Driver/Inc/stm32f3xx_ll_bus.h **** /** @defgroup BUS_LL_Exported_Constants BUS Exported Constants
  84:Drivers/STM32F3xx_HAL_Driver/Inc/stm32f3xx_ll_bus.h ****   * @{
  85:Drivers/STM32F3xx_HAL_Driver/Inc/stm32f3xx_ll_bus.h ****   */
  86:Drivers/STM32F3xx_HAL_Driver/Inc/stm32f3xx_ll_bus.h **** 
  87:Drivers/STM32F3xx_HAL_Driver/Inc/stm32f3xx_ll_bus.h **** /** @defgroup BUS_LL_EC_AHB1_GRP1_PERIPH  AHB1 GRP1 PERIPH
  88:Drivers/STM32F3xx_HAL_Driver/Inc/stm32f3xx_ll_bus.h ****   * @{
  89:Drivers/STM32F3xx_HAL_Driver/Inc/stm32f3xx_ll_bus.h ****   */
  90:Drivers/STM32F3xx_HAL_Driver/Inc/stm32f3xx_ll_bus.h **** #define LL_AHB1_GRP1_PERIPH_ALL            (uint32_t)0xFFFFFFFFU
  91:Drivers/STM32F3xx_HAL_Driver/Inc/stm32f3xx_ll_bus.h **** #define LL_AHB1_GRP1_PERIPH_DMA1           RCC_AHBENR_DMA1EN
  92:Drivers/STM32F3xx_HAL_Driver/Inc/stm32f3xx_ll_bus.h **** #if defined(DMA2)
  93:Drivers/STM32F3xx_HAL_Driver/Inc/stm32f3xx_ll_bus.h **** #define LL_AHB1_GRP1_PERIPH_DMA2           RCC_AHBENR_DMA2EN
  94:Drivers/STM32F3xx_HAL_Driver/Inc/stm32f3xx_ll_bus.h **** #endif /*DMA2*/
ARM GAS  /tmp/ccoHk3kV.s 			page 7


  95:Drivers/STM32F3xx_HAL_Driver/Inc/stm32f3xx_ll_bus.h **** #define LL_AHB1_GRP1_PERIPH_SRAM           RCC_AHBENR_SRAMEN
  96:Drivers/STM32F3xx_HAL_Driver/Inc/stm32f3xx_ll_bus.h **** #define LL_AHB1_GRP1_PERIPH_FLASH          RCC_AHBENR_FLITFEN
  97:Drivers/STM32F3xx_HAL_Driver/Inc/stm32f3xx_ll_bus.h **** #if defined(FMC_Bank1)
  98:Drivers/STM32F3xx_HAL_Driver/Inc/stm32f3xx_ll_bus.h **** #define LL_AHB1_GRP1_PERIPH_FMC            RCC_AHBENR_FMCEN
  99:Drivers/STM32F3xx_HAL_Driver/Inc/stm32f3xx_ll_bus.h **** #endif /*FMC_Bank1*/
 100:Drivers/STM32F3xx_HAL_Driver/Inc/stm32f3xx_ll_bus.h **** #define LL_AHB1_GRP1_PERIPH_CRC            RCC_AHBENR_CRCEN
 101:Drivers/STM32F3xx_HAL_Driver/Inc/stm32f3xx_ll_bus.h **** #if defined(GPIOH)
 102:Drivers/STM32F3xx_HAL_Driver/Inc/stm32f3xx_ll_bus.h **** #define LL_AHB1_GRP1_PERIPH_GPIOH          RCC_AHBENR_GPIOHEN
 103:Drivers/STM32F3xx_HAL_Driver/Inc/stm32f3xx_ll_bus.h **** #endif /*GPIOH*/
 104:Drivers/STM32F3xx_HAL_Driver/Inc/stm32f3xx_ll_bus.h **** #define LL_AHB1_GRP1_PERIPH_GPIOA          RCC_AHBENR_GPIOAEN
 105:Drivers/STM32F3xx_HAL_Driver/Inc/stm32f3xx_ll_bus.h **** #define LL_AHB1_GRP1_PERIPH_GPIOB          RCC_AHBENR_GPIOBEN
 106:Drivers/STM32F3xx_HAL_Driver/Inc/stm32f3xx_ll_bus.h **** #define LL_AHB1_GRP1_PERIPH_GPIOC          RCC_AHBENR_GPIOCEN
 107:Drivers/STM32F3xx_HAL_Driver/Inc/stm32f3xx_ll_bus.h **** #define LL_AHB1_GRP1_PERIPH_GPIOD          RCC_AHBENR_GPIODEN
 108:Drivers/STM32F3xx_HAL_Driver/Inc/stm32f3xx_ll_bus.h **** #if defined(GPIOE)
 109:Drivers/STM32F3xx_HAL_Driver/Inc/stm32f3xx_ll_bus.h **** #define LL_AHB1_GRP1_PERIPH_GPIOE          RCC_AHBENR_GPIOEEN
 110:Drivers/STM32F3xx_HAL_Driver/Inc/stm32f3xx_ll_bus.h **** #endif /*GPIOE*/
 111:Drivers/STM32F3xx_HAL_Driver/Inc/stm32f3xx_ll_bus.h **** #define LL_AHB1_GRP1_PERIPH_GPIOF          RCC_AHBENR_GPIOFEN
 112:Drivers/STM32F3xx_HAL_Driver/Inc/stm32f3xx_ll_bus.h **** #if defined(GPIOG)
 113:Drivers/STM32F3xx_HAL_Driver/Inc/stm32f3xx_ll_bus.h **** #define LL_AHB1_GRP1_PERIPH_GPIOG          RCC_AHBENR_GPIOGEN
 114:Drivers/STM32F3xx_HAL_Driver/Inc/stm32f3xx_ll_bus.h **** #endif /*GPIOH*/
 115:Drivers/STM32F3xx_HAL_Driver/Inc/stm32f3xx_ll_bus.h **** #define LL_AHB1_GRP1_PERIPH_TSC            RCC_AHBENR_TSCEN
 116:Drivers/STM32F3xx_HAL_Driver/Inc/stm32f3xx_ll_bus.h **** #if defined(RCC_AHBENR_ADC1EN)
 117:Drivers/STM32F3xx_HAL_Driver/Inc/stm32f3xx_ll_bus.h **** #define LL_AHB1_GRP1_PERIPH_ADC1           RCC_AHBENR_ADC1EN
 118:Drivers/STM32F3xx_HAL_Driver/Inc/stm32f3xx_ll_bus.h **** #endif /*RCC_AHBENR_ADC1EN*/
 119:Drivers/STM32F3xx_HAL_Driver/Inc/stm32f3xx_ll_bus.h **** #if defined(ADC1_2_COMMON)
 120:Drivers/STM32F3xx_HAL_Driver/Inc/stm32f3xx_ll_bus.h **** #define LL_AHB1_GRP1_PERIPH_ADC12          RCC_AHBENR_ADC12EN
 121:Drivers/STM32F3xx_HAL_Driver/Inc/stm32f3xx_ll_bus.h **** #endif /*ADC1_2_COMMON*/
 122:Drivers/STM32F3xx_HAL_Driver/Inc/stm32f3xx_ll_bus.h **** #if defined(ADC3_4_COMMON)
 123:Drivers/STM32F3xx_HAL_Driver/Inc/stm32f3xx_ll_bus.h **** #define LL_AHB1_GRP1_PERIPH_ADC34          RCC_AHBENR_ADC34EN
 124:Drivers/STM32F3xx_HAL_Driver/Inc/stm32f3xx_ll_bus.h **** #endif /*ADC3_4_COMMON*/
 125:Drivers/STM32F3xx_HAL_Driver/Inc/stm32f3xx_ll_bus.h **** /**
 126:Drivers/STM32F3xx_HAL_Driver/Inc/stm32f3xx_ll_bus.h ****   * @}
 127:Drivers/STM32F3xx_HAL_Driver/Inc/stm32f3xx_ll_bus.h ****   */
 128:Drivers/STM32F3xx_HAL_Driver/Inc/stm32f3xx_ll_bus.h **** 
 129:Drivers/STM32F3xx_HAL_Driver/Inc/stm32f3xx_ll_bus.h **** /** @defgroup BUS_LL_EC_APB1_GRP1_PERIPH  APB1 GRP1 PERIPH
 130:Drivers/STM32F3xx_HAL_Driver/Inc/stm32f3xx_ll_bus.h ****   * @{
 131:Drivers/STM32F3xx_HAL_Driver/Inc/stm32f3xx_ll_bus.h ****   */
 132:Drivers/STM32F3xx_HAL_Driver/Inc/stm32f3xx_ll_bus.h **** #define LL_APB1_GRP1_PERIPH_ALL            (uint32_t)0xFFFFFFFFU
 133:Drivers/STM32F3xx_HAL_Driver/Inc/stm32f3xx_ll_bus.h **** #define LL_APB1_GRP1_PERIPH_TIM2           RCC_APB1ENR_TIM2EN
 134:Drivers/STM32F3xx_HAL_Driver/Inc/stm32f3xx_ll_bus.h **** #if defined(TIM3)
 135:Drivers/STM32F3xx_HAL_Driver/Inc/stm32f3xx_ll_bus.h **** #define LL_APB1_GRP1_PERIPH_TIM3           RCC_APB1ENR_TIM3EN
 136:Drivers/STM32F3xx_HAL_Driver/Inc/stm32f3xx_ll_bus.h **** #endif /*TIM3*/
 137:Drivers/STM32F3xx_HAL_Driver/Inc/stm32f3xx_ll_bus.h **** #if defined(TIM4)
 138:Drivers/STM32F3xx_HAL_Driver/Inc/stm32f3xx_ll_bus.h **** #define LL_APB1_GRP1_PERIPH_TIM4           RCC_APB1ENR_TIM4EN
 139:Drivers/STM32F3xx_HAL_Driver/Inc/stm32f3xx_ll_bus.h **** #endif /*TIM4*/
 140:Drivers/STM32F3xx_HAL_Driver/Inc/stm32f3xx_ll_bus.h **** #if defined(TIM5)
 141:Drivers/STM32F3xx_HAL_Driver/Inc/stm32f3xx_ll_bus.h **** #define LL_APB1_GRP1_PERIPH_TIM5           RCC_APB1ENR_TIM5EN
 142:Drivers/STM32F3xx_HAL_Driver/Inc/stm32f3xx_ll_bus.h **** #endif /*TIM5*/
 143:Drivers/STM32F3xx_HAL_Driver/Inc/stm32f3xx_ll_bus.h **** #define LL_APB1_GRP1_PERIPH_TIM6           RCC_APB1ENR_TIM6EN
 144:Drivers/STM32F3xx_HAL_Driver/Inc/stm32f3xx_ll_bus.h **** #if defined(TIM7)
 145:Drivers/STM32F3xx_HAL_Driver/Inc/stm32f3xx_ll_bus.h **** #define LL_APB1_GRP1_PERIPH_TIM7           RCC_APB1ENR_TIM7EN
 146:Drivers/STM32F3xx_HAL_Driver/Inc/stm32f3xx_ll_bus.h **** #endif /*TIM7*/
 147:Drivers/STM32F3xx_HAL_Driver/Inc/stm32f3xx_ll_bus.h **** #if defined(TIM12)
 148:Drivers/STM32F3xx_HAL_Driver/Inc/stm32f3xx_ll_bus.h **** #define LL_APB1_GRP1_PERIPH_TIM12          RCC_APB1ENR_TIM12EN
 149:Drivers/STM32F3xx_HAL_Driver/Inc/stm32f3xx_ll_bus.h **** #endif /*TIM12*/
 150:Drivers/STM32F3xx_HAL_Driver/Inc/stm32f3xx_ll_bus.h **** #if defined(TIM13)
 151:Drivers/STM32F3xx_HAL_Driver/Inc/stm32f3xx_ll_bus.h **** #define LL_APB1_GRP1_PERIPH_TIM13          RCC_APB1ENR_TIM13EN
ARM GAS  /tmp/ccoHk3kV.s 			page 8


 152:Drivers/STM32F3xx_HAL_Driver/Inc/stm32f3xx_ll_bus.h **** #endif /*TIM13*/
 153:Drivers/STM32F3xx_HAL_Driver/Inc/stm32f3xx_ll_bus.h **** #if defined(TIM14)
 154:Drivers/STM32F3xx_HAL_Driver/Inc/stm32f3xx_ll_bus.h **** #define LL_APB1_GRP1_PERIPH_TIM14          RCC_APB1ENR_TIM14EN
 155:Drivers/STM32F3xx_HAL_Driver/Inc/stm32f3xx_ll_bus.h **** #endif /*TIM14*/
 156:Drivers/STM32F3xx_HAL_Driver/Inc/stm32f3xx_ll_bus.h **** #if defined(TIM18)
 157:Drivers/STM32F3xx_HAL_Driver/Inc/stm32f3xx_ll_bus.h **** #define LL_APB1_GRP1_PERIPH_TIM18          RCC_APB1ENR_TIM18EN
 158:Drivers/STM32F3xx_HAL_Driver/Inc/stm32f3xx_ll_bus.h **** #endif /*TIM18*/
 159:Drivers/STM32F3xx_HAL_Driver/Inc/stm32f3xx_ll_bus.h **** #define LL_APB1_GRP1_PERIPH_WWDG           RCC_APB1ENR_WWDGEN
 160:Drivers/STM32F3xx_HAL_Driver/Inc/stm32f3xx_ll_bus.h **** #if defined(SPI2)
 161:Drivers/STM32F3xx_HAL_Driver/Inc/stm32f3xx_ll_bus.h **** #define LL_APB1_GRP1_PERIPH_SPI2           RCC_APB1ENR_SPI2EN
 162:Drivers/STM32F3xx_HAL_Driver/Inc/stm32f3xx_ll_bus.h **** #endif /*SPI2*/
 163:Drivers/STM32F3xx_HAL_Driver/Inc/stm32f3xx_ll_bus.h **** #if defined(SPI3)
 164:Drivers/STM32F3xx_HAL_Driver/Inc/stm32f3xx_ll_bus.h **** #define LL_APB1_GRP1_PERIPH_SPI3           RCC_APB1ENR_SPI3EN
 165:Drivers/STM32F3xx_HAL_Driver/Inc/stm32f3xx_ll_bus.h **** #endif /*SPI3*/
 166:Drivers/STM32F3xx_HAL_Driver/Inc/stm32f3xx_ll_bus.h **** #define LL_APB1_GRP1_PERIPH_USART2         RCC_APB1ENR_USART2EN
 167:Drivers/STM32F3xx_HAL_Driver/Inc/stm32f3xx_ll_bus.h **** #define LL_APB1_GRP1_PERIPH_USART3         RCC_APB1ENR_USART3EN
 168:Drivers/STM32F3xx_HAL_Driver/Inc/stm32f3xx_ll_bus.h **** #if defined(UART4)
 169:Drivers/STM32F3xx_HAL_Driver/Inc/stm32f3xx_ll_bus.h **** #define LL_APB1_GRP1_PERIPH_UART4          RCC_APB1ENR_UART4EN
 170:Drivers/STM32F3xx_HAL_Driver/Inc/stm32f3xx_ll_bus.h **** #endif /*UART4*/
 171:Drivers/STM32F3xx_HAL_Driver/Inc/stm32f3xx_ll_bus.h **** #if defined(UART5)
 172:Drivers/STM32F3xx_HAL_Driver/Inc/stm32f3xx_ll_bus.h **** #define LL_APB1_GRP1_PERIPH_UART5          RCC_APB1ENR_UART5EN
 173:Drivers/STM32F3xx_HAL_Driver/Inc/stm32f3xx_ll_bus.h **** #endif /*UART5*/
 174:Drivers/STM32F3xx_HAL_Driver/Inc/stm32f3xx_ll_bus.h **** #define LL_APB1_GRP1_PERIPH_I2C1           RCC_APB1ENR_I2C1EN
 175:Drivers/STM32F3xx_HAL_Driver/Inc/stm32f3xx_ll_bus.h **** #if defined(I2C2)
 176:Drivers/STM32F3xx_HAL_Driver/Inc/stm32f3xx_ll_bus.h **** #define LL_APB1_GRP1_PERIPH_I2C2           RCC_APB1ENR_I2C2EN
 177:Drivers/STM32F3xx_HAL_Driver/Inc/stm32f3xx_ll_bus.h **** #endif /*I2C2*/
 178:Drivers/STM32F3xx_HAL_Driver/Inc/stm32f3xx_ll_bus.h **** #if defined(USB)
 179:Drivers/STM32F3xx_HAL_Driver/Inc/stm32f3xx_ll_bus.h **** #define LL_APB1_GRP1_PERIPH_USB            RCC_APB1ENR_USBEN
 180:Drivers/STM32F3xx_HAL_Driver/Inc/stm32f3xx_ll_bus.h **** #endif /*USB*/
 181:Drivers/STM32F3xx_HAL_Driver/Inc/stm32f3xx_ll_bus.h **** #if defined(CAN)
 182:Drivers/STM32F3xx_HAL_Driver/Inc/stm32f3xx_ll_bus.h **** #define LL_APB1_GRP1_PERIPH_CAN            RCC_APB1ENR_CANEN
 183:Drivers/STM32F3xx_HAL_Driver/Inc/stm32f3xx_ll_bus.h **** #endif /*CAN*/
 184:Drivers/STM32F3xx_HAL_Driver/Inc/stm32f3xx_ll_bus.h **** #if defined(DAC2)
 185:Drivers/STM32F3xx_HAL_Driver/Inc/stm32f3xx_ll_bus.h **** #define LL_APB1_GRP1_PERIPH_DAC2           RCC_APB1ENR_DAC2EN
 186:Drivers/STM32F3xx_HAL_Driver/Inc/stm32f3xx_ll_bus.h **** #endif /*DAC2*/
 187:Drivers/STM32F3xx_HAL_Driver/Inc/stm32f3xx_ll_bus.h **** #define LL_APB1_GRP1_PERIPH_PWR            RCC_APB1ENR_PWREN
 188:Drivers/STM32F3xx_HAL_Driver/Inc/stm32f3xx_ll_bus.h **** #define LL_APB1_GRP1_PERIPH_DAC1           RCC_APB1ENR_DAC1EN
 189:Drivers/STM32F3xx_HAL_Driver/Inc/stm32f3xx_ll_bus.h **** #if defined(CEC)
 190:Drivers/STM32F3xx_HAL_Driver/Inc/stm32f3xx_ll_bus.h **** #define LL_APB1_GRP1_PERIPH_CEC            RCC_APB1ENR_CECEN
 191:Drivers/STM32F3xx_HAL_Driver/Inc/stm32f3xx_ll_bus.h **** #endif /*CEC*/
 192:Drivers/STM32F3xx_HAL_Driver/Inc/stm32f3xx_ll_bus.h **** #if defined(I2C3)
 193:Drivers/STM32F3xx_HAL_Driver/Inc/stm32f3xx_ll_bus.h **** #define LL_APB1_GRP1_PERIPH_I2C3           RCC_APB1ENR_I2C3EN
 194:Drivers/STM32F3xx_HAL_Driver/Inc/stm32f3xx_ll_bus.h **** #endif /*I2C3*/
 195:Drivers/STM32F3xx_HAL_Driver/Inc/stm32f3xx_ll_bus.h **** /**
 196:Drivers/STM32F3xx_HAL_Driver/Inc/stm32f3xx_ll_bus.h ****   * @}
 197:Drivers/STM32F3xx_HAL_Driver/Inc/stm32f3xx_ll_bus.h ****   */
 198:Drivers/STM32F3xx_HAL_Driver/Inc/stm32f3xx_ll_bus.h **** 
 199:Drivers/STM32F3xx_HAL_Driver/Inc/stm32f3xx_ll_bus.h **** /** @defgroup BUS_LL_EC_APB2_GRP1_PERIPH  APB2 GRP1 PERIPH
 200:Drivers/STM32F3xx_HAL_Driver/Inc/stm32f3xx_ll_bus.h ****   * @{
 201:Drivers/STM32F3xx_HAL_Driver/Inc/stm32f3xx_ll_bus.h ****   */
 202:Drivers/STM32F3xx_HAL_Driver/Inc/stm32f3xx_ll_bus.h **** #define LL_APB2_GRP1_PERIPH_ALL            (uint32_t)0xFFFFFFFFU
 203:Drivers/STM32F3xx_HAL_Driver/Inc/stm32f3xx_ll_bus.h **** #define LL_APB2_GRP1_PERIPH_SYSCFG         RCC_APB2ENR_SYSCFGEN
 204:Drivers/STM32F3xx_HAL_Driver/Inc/stm32f3xx_ll_bus.h **** #if defined(RCC_APB2ENR_ADC1EN)
 205:Drivers/STM32F3xx_HAL_Driver/Inc/stm32f3xx_ll_bus.h **** #define LL_APB2_GRP1_PERIPH_ADC1           RCC_APB2ENR_ADC1EN
 206:Drivers/STM32F3xx_HAL_Driver/Inc/stm32f3xx_ll_bus.h **** #endif /*RCC_APB2ENR_ADC1EN*/
 207:Drivers/STM32F3xx_HAL_Driver/Inc/stm32f3xx_ll_bus.h **** #if defined(TIM1)
 208:Drivers/STM32F3xx_HAL_Driver/Inc/stm32f3xx_ll_bus.h **** #define LL_APB2_GRP1_PERIPH_TIM1           RCC_APB2ENR_TIM1EN
ARM GAS  /tmp/ccoHk3kV.s 			page 9


 209:Drivers/STM32F3xx_HAL_Driver/Inc/stm32f3xx_ll_bus.h **** #endif /*TIM1*/
 210:Drivers/STM32F3xx_HAL_Driver/Inc/stm32f3xx_ll_bus.h **** #if defined(SPI1)
 211:Drivers/STM32F3xx_HAL_Driver/Inc/stm32f3xx_ll_bus.h **** #define LL_APB2_GRP1_PERIPH_SPI1           RCC_APB2ENR_SPI1EN
 212:Drivers/STM32F3xx_HAL_Driver/Inc/stm32f3xx_ll_bus.h **** #endif /*SPI1*/
 213:Drivers/STM32F3xx_HAL_Driver/Inc/stm32f3xx_ll_bus.h **** #if defined(TIM8)
 214:Drivers/STM32F3xx_HAL_Driver/Inc/stm32f3xx_ll_bus.h **** #define LL_APB2_GRP1_PERIPH_TIM8           RCC_APB2ENR_TIM8EN
 215:Drivers/STM32F3xx_HAL_Driver/Inc/stm32f3xx_ll_bus.h **** #endif /*TIM8*/
 216:Drivers/STM32F3xx_HAL_Driver/Inc/stm32f3xx_ll_bus.h **** #define LL_APB2_GRP1_PERIPH_USART1         RCC_APB2ENR_USART1EN
 217:Drivers/STM32F3xx_HAL_Driver/Inc/stm32f3xx_ll_bus.h **** #if defined(SPI4)
 218:Drivers/STM32F3xx_HAL_Driver/Inc/stm32f3xx_ll_bus.h **** #define LL_APB2_GRP1_PERIPH_SPI4           RCC_APB2ENR_SPI4EN
 219:Drivers/STM32F3xx_HAL_Driver/Inc/stm32f3xx_ll_bus.h **** #endif /*SPI4*/
 220:Drivers/STM32F3xx_HAL_Driver/Inc/stm32f3xx_ll_bus.h **** #define LL_APB2_GRP1_PERIPH_TIM15          RCC_APB2ENR_TIM15EN
 221:Drivers/STM32F3xx_HAL_Driver/Inc/stm32f3xx_ll_bus.h **** #define LL_APB2_GRP1_PERIPH_TIM16          RCC_APB2ENR_TIM16EN
 222:Drivers/STM32F3xx_HAL_Driver/Inc/stm32f3xx_ll_bus.h **** #define LL_APB2_GRP1_PERIPH_TIM17          RCC_APB2ENR_TIM17EN
 223:Drivers/STM32F3xx_HAL_Driver/Inc/stm32f3xx_ll_bus.h **** #if defined(TIM19)
 224:Drivers/STM32F3xx_HAL_Driver/Inc/stm32f3xx_ll_bus.h **** #define LL_APB2_GRP1_PERIPH_TIM19          RCC_APB2ENR_TIM19EN
 225:Drivers/STM32F3xx_HAL_Driver/Inc/stm32f3xx_ll_bus.h **** #endif /*TIM19*/
 226:Drivers/STM32F3xx_HAL_Driver/Inc/stm32f3xx_ll_bus.h **** #if defined(TIM20)
 227:Drivers/STM32F3xx_HAL_Driver/Inc/stm32f3xx_ll_bus.h **** #define LL_APB2_GRP1_PERIPH_TIM20          RCC_APB2ENR_TIM20EN
 228:Drivers/STM32F3xx_HAL_Driver/Inc/stm32f3xx_ll_bus.h **** #endif /*TIM20*/
 229:Drivers/STM32F3xx_HAL_Driver/Inc/stm32f3xx_ll_bus.h **** #if defined(HRTIM1)
 230:Drivers/STM32F3xx_HAL_Driver/Inc/stm32f3xx_ll_bus.h **** #define LL_APB2_GRP1_PERIPH_HRTIM1         RCC_APB2ENR_HRTIM1EN
 231:Drivers/STM32F3xx_HAL_Driver/Inc/stm32f3xx_ll_bus.h **** #endif /*HRTIM1*/
 232:Drivers/STM32F3xx_HAL_Driver/Inc/stm32f3xx_ll_bus.h **** #if defined(SDADC1)
 233:Drivers/STM32F3xx_HAL_Driver/Inc/stm32f3xx_ll_bus.h **** #define LL_APB2_GRP1_PERIPH_SDADC1         RCC_APB2ENR_SDADC1EN
 234:Drivers/STM32F3xx_HAL_Driver/Inc/stm32f3xx_ll_bus.h **** #endif /*SDADC1*/
 235:Drivers/STM32F3xx_HAL_Driver/Inc/stm32f3xx_ll_bus.h **** #if defined(SDADC2)
 236:Drivers/STM32F3xx_HAL_Driver/Inc/stm32f3xx_ll_bus.h **** #define LL_APB2_GRP1_PERIPH_SDADC2         RCC_APB2ENR_SDADC2EN
 237:Drivers/STM32F3xx_HAL_Driver/Inc/stm32f3xx_ll_bus.h **** #endif /*SDADC2*/
 238:Drivers/STM32F3xx_HAL_Driver/Inc/stm32f3xx_ll_bus.h **** #if defined(SDADC3)
 239:Drivers/STM32F3xx_HAL_Driver/Inc/stm32f3xx_ll_bus.h **** #define LL_APB2_GRP1_PERIPH_SDADC3         RCC_APB2ENR_SDADC3EN
 240:Drivers/STM32F3xx_HAL_Driver/Inc/stm32f3xx_ll_bus.h **** #endif /*SDADC3*/
 241:Drivers/STM32F3xx_HAL_Driver/Inc/stm32f3xx_ll_bus.h **** /**
 242:Drivers/STM32F3xx_HAL_Driver/Inc/stm32f3xx_ll_bus.h ****   * @}
 243:Drivers/STM32F3xx_HAL_Driver/Inc/stm32f3xx_ll_bus.h ****   */
 244:Drivers/STM32F3xx_HAL_Driver/Inc/stm32f3xx_ll_bus.h **** 
 245:Drivers/STM32F3xx_HAL_Driver/Inc/stm32f3xx_ll_bus.h **** /**
 246:Drivers/STM32F3xx_HAL_Driver/Inc/stm32f3xx_ll_bus.h ****   * @}
 247:Drivers/STM32F3xx_HAL_Driver/Inc/stm32f3xx_ll_bus.h ****   */
 248:Drivers/STM32F3xx_HAL_Driver/Inc/stm32f3xx_ll_bus.h **** 
 249:Drivers/STM32F3xx_HAL_Driver/Inc/stm32f3xx_ll_bus.h **** /* Exported macro ------------------------------------------------------------*/
 250:Drivers/STM32F3xx_HAL_Driver/Inc/stm32f3xx_ll_bus.h **** 
 251:Drivers/STM32F3xx_HAL_Driver/Inc/stm32f3xx_ll_bus.h **** /* Exported functions --------------------------------------------------------*/
 252:Drivers/STM32F3xx_HAL_Driver/Inc/stm32f3xx_ll_bus.h **** /** @defgroup BUS_LL_Exported_Functions BUS Exported Functions
 253:Drivers/STM32F3xx_HAL_Driver/Inc/stm32f3xx_ll_bus.h ****   * @{
 254:Drivers/STM32F3xx_HAL_Driver/Inc/stm32f3xx_ll_bus.h ****   */
 255:Drivers/STM32F3xx_HAL_Driver/Inc/stm32f3xx_ll_bus.h **** 
 256:Drivers/STM32F3xx_HAL_Driver/Inc/stm32f3xx_ll_bus.h **** /** @defgroup BUS_LL_EF_AHB1 AHB1
 257:Drivers/STM32F3xx_HAL_Driver/Inc/stm32f3xx_ll_bus.h ****   * @{
 258:Drivers/STM32F3xx_HAL_Driver/Inc/stm32f3xx_ll_bus.h ****   */
 259:Drivers/STM32F3xx_HAL_Driver/Inc/stm32f3xx_ll_bus.h **** 
 260:Drivers/STM32F3xx_HAL_Driver/Inc/stm32f3xx_ll_bus.h **** /**
 261:Drivers/STM32F3xx_HAL_Driver/Inc/stm32f3xx_ll_bus.h ****   * @brief  Enable AHB1 peripherals clock.
 262:Drivers/STM32F3xx_HAL_Driver/Inc/stm32f3xx_ll_bus.h ****   * @rmtoll AHBENR       DMA1EN        LL_AHB1_GRP1_EnableClock\n
 263:Drivers/STM32F3xx_HAL_Driver/Inc/stm32f3xx_ll_bus.h ****   *         AHBENR       DMA2EN        LL_AHB1_GRP1_EnableClock\n
 264:Drivers/STM32F3xx_HAL_Driver/Inc/stm32f3xx_ll_bus.h ****   *         AHBENR       SRAMEN        LL_AHB1_GRP1_EnableClock\n
 265:Drivers/STM32F3xx_HAL_Driver/Inc/stm32f3xx_ll_bus.h ****   *         AHBENR       FLITFEN       LL_AHB1_GRP1_EnableClock\n
ARM GAS  /tmp/ccoHk3kV.s 			page 10


 266:Drivers/STM32F3xx_HAL_Driver/Inc/stm32f3xx_ll_bus.h ****   *         AHBENR       FMCEN         LL_AHB1_GRP1_EnableClock\n
 267:Drivers/STM32F3xx_HAL_Driver/Inc/stm32f3xx_ll_bus.h ****   *         AHBENR       CRCEN         LL_AHB1_GRP1_EnableClock\n
 268:Drivers/STM32F3xx_HAL_Driver/Inc/stm32f3xx_ll_bus.h ****   *         AHBENR       GPIOHEN       LL_AHB1_GRP1_EnableClock\n
 269:Drivers/STM32F3xx_HAL_Driver/Inc/stm32f3xx_ll_bus.h ****   *         AHBENR       GPIOAEN       LL_AHB1_GRP1_EnableClock\n
 270:Drivers/STM32F3xx_HAL_Driver/Inc/stm32f3xx_ll_bus.h ****   *         AHBENR       GPIOBEN       LL_AHB1_GRP1_EnableClock\n
 271:Drivers/STM32F3xx_HAL_Driver/Inc/stm32f3xx_ll_bus.h ****   *         AHBENR       GPIOCEN       LL_AHB1_GRP1_EnableClock\n
 272:Drivers/STM32F3xx_HAL_Driver/Inc/stm32f3xx_ll_bus.h ****   *         AHBENR       GPIODEN       LL_AHB1_GRP1_EnableClock\n
 273:Drivers/STM32F3xx_HAL_Driver/Inc/stm32f3xx_ll_bus.h ****   *         AHBENR       GPIOEEN       LL_AHB1_GRP1_EnableClock\n
 274:Drivers/STM32F3xx_HAL_Driver/Inc/stm32f3xx_ll_bus.h ****   *         AHBENR       GPIOFEN       LL_AHB1_GRP1_EnableClock\n
 275:Drivers/STM32F3xx_HAL_Driver/Inc/stm32f3xx_ll_bus.h ****   *         AHBENR       GPIOGEN       LL_AHB1_GRP1_EnableClock\n
 276:Drivers/STM32F3xx_HAL_Driver/Inc/stm32f3xx_ll_bus.h ****   *         AHBENR       TSCEN         LL_AHB1_GRP1_EnableClock\n
 277:Drivers/STM32F3xx_HAL_Driver/Inc/stm32f3xx_ll_bus.h ****   *         AHBENR       ADC1EN        LL_AHB1_GRP1_EnableClock\n
 278:Drivers/STM32F3xx_HAL_Driver/Inc/stm32f3xx_ll_bus.h ****   *         AHBENR       ADC12EN       LL_AHB1_GRP1_EnableClock\n
 279:Drivers/STM32F3xx_HAL_Driver/Inc/stm32f3xx_ll_bus.h ****   *         AHBENR       ADC34EN       LL_AHB1_GRP1_EnableClock
 280:Drivers/STM32F3xx_HAL_Driver/Inc/stm32f3xx_ll_bus.h ****   * @param  Periphs This parameter can be a combination of the following values:
 281:Drivers/STM32F3xx_HAL_Driver/Inc/stm32f3xx_ll_bus.h ****   *         @arg @ref LL_AHB1_GRP1_PERIPH_DMA1
 282:Drivers/STM32F3xx_HAL_Driver/Inc/stm32f3xx_ll_bus.h ****   *         @arg @ref LL_AHB1_GRP1_PERIPH_DMA2 (*)
 283:Drivers/STM32F3xx_HAL_Driver/Inc/stm32f3xx_ll_bus.h ****   *         @arg @ref LL_AHB1_GRP1_PERIPH_SRAM
 284:Drivers/STM32F3xx_HAL_Driver/Inc/stm32f3xx_ll_bus.h ****   *         @arg @ref LL_AHB1_GRP1_PERIPH_FLASH
 285:Drivers/STM32F3xx_HAL_Driver/Inc/stm32f3xx_ll_bus.h ****   *         @arg @ref LL_AHB1_GRP1_PERIPH_FMC (*)
 286:Drivers/STM32F3xx_HAL_Driver/Inc/stm32f3xx_ll_bus.h ****   *         @arg @ref LL_AHB1_GRP1_PERIPH_CRC
 287:Drivers/STM32F3xx_HAL_Driver/Inc/stm32f3xx_ll_bus.h ****   *         @arg @ref LL_AHB1_GRP1_PERIPH_GPIOH (*)
 288:Drivers/STM32F3xx_HAL_Driver/Inc/stm32f3xx_ll_bus.h ****   *         @arg @ref LL_AHB1_GRP1_PERIPH_GPIOA
 289:Drivers/STM32F3xx_HAL_Driver/Inc/stm32f3xx_ll_bus.h ****   *         @arg @ref LL_AHB1_GRP1_PERIPH_GPIOB
 290:Drivers/STM32F3xx_HAL_Driver/Inc/stm32f3xx_ll_bus.h ****   *         @arg @ref LL_AHB1_GRP1_PERIPH_GPIOC
 291:Drivers/STM32F3xx_HAL_Driver/Inc/stm32f3xx_ll_bus.h ****   *         @arg @ref LL_AHB1_GRP1_PERIPH_GPIOD
 292:Drivers/STM32F3xx_HAL_Driver/Inc/stm32f3xx_ll_bus.h ****   *         @arg @ref LL_AHB1_GRP1_PERIPH_GPIOE (*)
 293:Drivers/STM32F3xx_HAL_Driver/Inc/stm32f3xx_ll_bus.h ****   *         @arg @ref LL_AHB1_GRP1_PERIPH_GPIOF
 294:Drivers/STM32F3xx_HAL_Driver/Inc/stm32f3xx_ll_bus.h ****   *         @arg @ref LL_AHB1_GRP1_PERIPH_GPIOG (*)
 295:Drivers/STM32F3xx_HAL_Driver/Inc/stm32f3xx_ll_bus.h ****   *         @arg @ref LL_AHB1_GRP1_PERIPH_TSC
 296:Drivers/STM32F3xx_HAL_Driver/Inc/stm32f3xx_ll_bus.h ****   *         @arg @ref LL_AHB1_GRP1_PERIPH_ADC1 (*)
 297:Drivers/STM32F3xx_HAL_Driver/Inc/stm32f3xx_ll_bus.h ****   *         @arg @ref LL_AHB1_GRP1_PERIPH_ADC12 (*)
 298:Drivers/STM32F3xx_HAL_Driver/Inc/stm32f3xx_ll_bus.h ****   *         @arg @ref LL_AHB1_GRP1_PERIPH_ADC34 (*)
 299:Drivers/STM32F3xx_HAL_Driver/Inc/stm32f3xx_ll_bus.h ****   *
 300:Drivers/STM32F3xx_HAL_Driver/Inc/stm32f3xx_ll_bus.h ****   *         (*) value not defined in all devices.
 301:Drivers/STM32F3xx_HAL_Driver/Inc/stm32f3xx_ll_bus.h ****   * @retval None
 302:Drivers/STM32F3xx_HAL_Driver/Inc/stm32f3xx_ll_bus.h **** */
 303:Drivers/STM32F3xx_HAL_Driver/Inc/stm32f3xx_ll_bus.h **** __STATIC_INLINE void LL_AHB1_GRP1_EnableClock(uint32_t Periphs)
 304:Drivers/STM32F3xx_HAL_Driver/Inc/stm32f3xx_ll_bus.h **** {
 305:Drivers/STM32F3xx_HAL_Driver/Inc/stm32f3xx_ll_bus.h ****   __IO uint32_t tmpreg;
 306:Drivers/STM32F3xx_HAL_Driver/Inc/stm32f3xx_ll_bus.h ****   SET_BIT(RCC->AHBENR, Periphs);
 307:Drivers/STM32F3xx_HAL_Driver/Inc/stm32f3xx_ll_bus.h ****   /* Delay after an RCC peripheral clock enabling */
 308:Drivers/STM32F3xx_HAL_Driver/Inc/stm32f3xx_ll_bus.h ****   tmpreg = READ_BIT(RCC->AHBENR, Periphs);
 309:Drivers/STM32F3xx_HAL_Driver/Inc/stm32f3xx_ll_bus.h ****   (void)tmpreg;
 310:Drivers/STM32F3xx_HAL_Driver/Inc/stm32f3xx_ll_bus.h **** }
 311:Drivers/STM32F3xx_HAL_Driver/Inc/stm32f3xx_ll_bus.h **** 
 312:Drivers/STM32F3xx_HAL_Driver/Inc/stm32f3xx_ll_bus.h **** /**
 313:Drivers/STM32F3xx_HAL_Driver/Inc/stm32f3xx_ll_bus.h ****   * @brief  Check if AHB1 peripheral clock is enabled or not
 314:Drivers/STM32F3xx_HAL_Driver/Inc/stm32f3xx_ll_bus.h ****   * @rmtoll AHBENR       DMA1EN        LL_AHB1_GRP1_IsEnabledClock\n
 315:Drivers/STM32F3xx_HAL_Driver/Inc/stm32f3xx_ll_bus.h ****   *         AHBENR       DMA2EN        LL_AHB1_GRP1_IsEnabledClock\n
 316:Drivers/STM32F3xx_HAL_Driver/Inc/stm32f3xx_ll_bus.h ****   *         AHBENR       SRAMEN        LL_AHB1_GRP1_IsEnabledClock\n
 317:Drivers/STM32F3xx_HAL_Driver/Inc/stm32f3xx_ll_bus.h ****   *         AHBENR       FLITFEN       LL_AHB1_GRP1_IsEnabledClock\n
 318:Drivers/STM32F3xx_HAL_Driver/Inc/stm32f3xx_ll_bus.h ****   *         AHBENR       FMCEN         LL_AHB1_GRP1_IsEnabledClock\n
 319:Drivers/STM32F3xx_HAL_Driver/Inc/stm32f3xx_ll_bus.h ****   *         AHBENR       CRCEN         LL_AHB1_GRP1_IsEnabledClock\n
 320:Drivers/STM32F3xx_HAL_Driver/Inc/stm32f3xx_ll_bus.h ****   *         AHBENR       GPIOHEN       LL_AHB1_GRP1_IsEnabledClock\n
 321:Drivers/STM32F3xx_HAL_Driver/Inc/stm32f3xx_ll_bus.h ****   *         AHBENR       GPIOAEN       LL_AHB1_GRP1_IsEnabledClock\n
 322:Drivers/STM32F3xx_HAL_Driver/Inc/stm32f3xx_ll_bus.h ****   *         AHBENR       GPIOBEN       LL_AHB1_GRP1_IsEnabledClock\n
ARM GAS  /tmp/ccoHk3kV.s 			page 11


 323:Drivers/STM32F3xx_HAL_Driver/Inc/stm32f3xx_ll_bus.h ****   *         AHBENR       GPIOCEN       LL_AHB1_GRP1_IsEnabledClock\n
 324:Drivers/STM32F3xx_HAL_Driver/Inc/stm32f3xx_ll_bus.h ****   *         AHBENR       GPIODEN       LL_AHB1_GRP1_IsEnabledClock\n
 325:Drivers/STM32F3xx_HAL_Driver/Inc/stm32f3xx_ll_bus.h ****   *         AHBENR       GPIOEEN       LL_AHB1_GRP1_IsEnabledClock\n
 326:Drivers/STM32F3xx_HAL_Driver/Inc/stm32f3xx_ll_bus.h ****   *         AHBENR       GPIOFEN       LL_AHB1_GRP1_IsEnabledClock\n
 327:Drivers/STM32F3xx_HAL_Driver/Inc/stm32f3xx_ll_bus.h ****   *         AHBENR       GPIOGEN       LL_AHB1_GRP1_IsEnabledClock\n
 328:Drivers/STM32F3xx_HAL_Driver/Inc/stm32f3xx_ll_bus.h ****   *         AHBENR       TSCEN         LL_AHB1_GRP1_IsEnabledClock\n
 329:Drivers/STM32F3xx_HAL_Driver/Inc/stm32f3xx_ll_bus.h ****   *         AHBENR       ADC1EN        LL_AHB1_GRP1_IsEnabledClock\n
 330:Drivers/STM32F3xx_HAL_Driver/Inc/stm32f3xx_ll_bus.h ****   *         AHBENR       ADC12EN       LL_AHB1_GRP1_IsEnabledClock\n
 331:Drivers/STM32F3xx_HAL_Driver/Inc/stm32f3xx_ll_bus.h ****   *         AHBENR       ADC34EN       LL_AHB1_GRP1_IsEnabledClock
 332:Drivers/STM32F3xx_HAL_Driver/Inc/stm32f3xx_ll_bus.h ****   * @param  Periphs This parameter can be a combination of the following values:
 333:Drivers/STM32F3xx_HAL_Driver/Inc/stm32f3xx_ll_bus.h ****   *         @arg @ref LL_AHB1_GRP1_PERIPH_DMA1
 334:Drivers/STM32F3xx_HAL_Driver/Inc/stm32f3xx_ll_bus.h ****   *         @arg @ref LL_AHB1_GRP1_PERIPH_DMA2 (*)
 335:Drivers/STM32F3xx_HAL_Driver/Inc/stm32f3xx_ll_bus.h ****   *         @arg @ref LL_AHB1_GRP1_PERIPH_SRAM
 336:Drivers/STM32F3xx_HAL_Driver/Inc/stm32f3xx_ll_bus.h ****   *         @arg @ref LL_AHB1_GRP1_PERIPH_FLASH
 337:Drivers/STM32F3xx_HAL_Driver/Inc/stm32f3xx_ll_bus.h ****   *         @arg @ref LL_AHB1_GRP1_PERIPH_FMC (*)
 338:Drivers/STM32F3xx_HAL_Driver/Inc/stm32f3xx_ll_bus.h ****   *         @arg @ref LL_AHB1_GRP1_PERIPH_CRC
 339:Drivers/STM32F3xx_HAL_Driver/Inc/stm32f3xx_ll_bus.h ****   *         @arg @ref LL_AHB1_GRP1_PERIPH_GPIOH (*)
 340:Drivers/STM32F3xx_HAL_Driver/Inc/stm32f3xx_ll_bus.h ****   *         @arg @ref LL_AHB1_GRP1_PERIPH_GPIOA
 341:Drivers/STM32F3xx_HAL_Driver/Inc/stm32f3xx_ll_bus.h ****   *         @arg @ref LL_AHB1_GRP1_PERIPH_GPIOB
 342:Drivers/STM32F3xx_HAL_Driver/Inc/stm32f3xx_ll_bus.h ****   *         @arg @ref LL_AHB1_GRP1_PERIPH_GPIOC
 343:Drivers/STM32F3xx_HAL_Driver/Inc/stm32f3xx_ll_bus.h ****   *         @arg @ref LL_AHB1_GRP1_PERIPH_GPIOD
 344:Drivers/STM32F3xx_HAL_Driver/Inc/stm32f3xx_ll_bus.h ****   *         @arg @ref LL_AHB1_GRP1_PERIPH_GPIOE (*)
 345:Drivers/STM32F3xx_HAL_Driver/Inc/stm32f3xx_ll_bus.h ****   *         @arg @ref LL_AHB1_GRP1_PERIPH_GPIOF
 346:Drivers/STM32F3xx_HAL_Driver/Inc/stm32f3xx_ll_bus.h ****   *         @arg @ref LL_AHB1_GRP1_PERIPH_GPIOG (*)
 347:Drivers/STM32F3xx_HAL_Driver/Inc/stm32f3xx_ll_bus.h ****   *         @arg @ref LL_AHB1_GRP1_PERIPH_TSC
 348:Drivers/STM32F3xx_HAL_Driver/Inc/stm32f3xx_ll_bus.h ****   *         @arg @ref LL_AHB1_GRP1_PERIPH_ADC1 (*)
 349:Drivers/STM32F3xx_HAL_Driver/Inc/stm32f3xx_ll_bus.h ****   *         @arg @ref LL_AHB1_GRP1_PERIPH_ADC12 (*)
 350:Drivers/STM32F3xx_HAL_Driver/Inc/stm32f3xx_ll_bus.h ****   *         @arg @ref LL_AHB1_GRP1_PERIPH_ADC34 (*)
 351:Drivers/STM32F3xx_HAL_Driver/Inc/stm32f3xx_ll_bus.h ****   *
 352:Drivers/STM32F3xx_HAL_Driver/Inc/stm32f3xx_ll_bus.h ****   *         (*) value not defined in all devices.
 353:Drivers/STM32F3xx_HAL_Driver/Inc/stm32f3xx_ll_bus.h ****   * @retval State of Periphs (1 or 0).
 354:Drivers/STM32F3xx_HAL_Driver/Inc/stm32f3xx_ll_bus.h **** */
 355:Drivers/STM32F3xx_HAL_Driver/Inc/stm32f3xx_ll_bus.h **** __STATIC_INLINE uint32_t LL_AHB1_GRP1_IsEnabledClock(uint32_t Periphs)
 356:Drivers/STM32F3xx_HAL_Driver/Inc/stm32f3xx_ll_bus.h **** {
 357:Drivers/STM32F3xx_HAL_Driver/Inc/stm32f3xx_ll_bus.h ****   return (READ_BIT(RCC->AHBENR, Periphs) == Periphs);
 358:Drivers/STM32F3xx_HAL_Driver/Inc/stm32f3xx_ll_bus.h **** }
 359:Drivers/STM32F3xx_HAL_Driver/Inc/stm32f3xx_ll_bus.h **** 
 360:Drivers/STM32F3xx_HAL_Driver/Inc/stm32f3xx_ll_bus.h **** /**
 361:Drivers/STM32F3xx_HAL_Driver/Inc/stm32f3xx_ll_bus.h ****   * @brief  Disable AHB1 peripherals clock.
 362:Drivers/STM32F3xx_HAL_Driver/Inc/stm32f3xx_ll_bus.h ****   * @rmtoll AHBENR       DMA1EN        LL_AHB1_GRP1_DisableClock\n
 363:Drivers/STM32F3xx_HAL_Driver/Inc/stm32f3xx_ll_bus.h ****   *         AHBENR       DMA2EN        LL_AHB1_GRP1_DisableClock\n
 364:Drivers/STM32F3xx_HAL_Driver/Inc/stm32f3xx_ll_bus.h ****   *         AHBENR       SRAMEN        LL_AHB1_GRP1_DisableClock\n
 365:Drivers/STM32F3xx_HAL_Driver/Inc/stm32f3xx_ll_bus.h ****   *         AHBENR       FLITFEN       LL_AHB1_GRP1_DisableClock\n
 366:Drivers/STM32F3xx_HAL_Driver/Inc/stm32f3xx_ll_bus.h ****   *         AHBENR       FMCEN         LL_AHB1_GRP1_DisableClock\n
 367:Drivers/STM32F3xx_HAL_Driver/Inc/stm32f3xx_ll_bus.h ****   *         AHBENR       CRCEN         LL_AHB1_GRP1_DisableClock\n
 368:Drivers/STM32F3xx_HAL_Driver/Inc/stm32f3xx_ll_bus.h ****   *         AHBENR       GPIOHEN       LL_AHB1_GRP1_DisableClock\n
 369:Drivers/STM32F3xx_HAL_Driver/Inc/stm32f3xx_ll_bus.h ****   *         AHBENR       GPIOAEN       LL_AHB1_GRP1_DisableClock\n
 370:Drivers/STM32F3xx_HAL_Driver/Inc/stm32f3xx_ll_bus.h ****   *         AHBENR       GPIOBEN       LL_AHB1_GRP1_DisableClock\n
 371:Drivers/STM32F3xx_HAL_Driver/Inc/stm32f3xx_ll_bus.h ****   *         AHBENR       GPIOCEN       LL_AHB1_GRP1_DisableClock\n
 372:Drivers/STM32F3xx_HAL_Driver/Inc/stm32f3xx_ll_bus.h ****   *         AHBENR       GPIODEN       LL_AHB1_GRP1_DisableClock\n
 373:Drivers/STM32F3xx_HAL_Driver/Inc/stm32f3xx_ll_bus.h ****   *         AHBENR       GPIOEEN       LL_AHB1_GRP1_DisableClock\n
 374:Drivers/STM32F3xx_HAL_Driver/Inc/stm32f3xx_ll_bus.h ****   *         AHBENR       GPIOFEN       LL_AHB1_GRP1_DisableClock\n
 375:Drivers/STM32F3xx_HAL_Driver/Inc/stm32f3xx_ll_bus.h ****   *         AHBENR       GPIOGEN       LL_AHB1_GRP1_DisableClock\n
 376:Drivers/STM32F3xx_HAL_Driver/Inc/stm32f3xx_ll_bus.h ****   *         AHBENR       TSCEN         LL_AHB1_GRP1_DisableClock\n
 377:Drivers/STM32F3xx_HAL_Driver/Inc/stm32f3xx_ll_bus.h ****   *         AHBENR       ADC1EN        LL_AHB1_GRP1_DisableClock\n
 378:Drivers/STM32F3xx_HAL_Driver/Inc/stm32f3xx_ll_bus.h ****   *         AHBENR       ADC12EN       LL_AHB1_GRP1_DisableClock\n
 379:Drivers/STM32F3xx_HAL_Driver/Inc/stm32f3xx_ll_bus.h ****   *         AHBENR       ADC34EN       LL_AHB1_GRP1_DisableClock
ARM GAS  /tmp/ccoHk3kV.s 			page 12


 380:Drivers/STM32F3xx_HAL_Driver/Inc/stm32f3xx_ll_bus.h ****   * @param  Periphs This parameter can be a combination of the following values:
 381:Drivers/STM32F3xx_HAL_Driver/Inc/stm32f3xx_ll_bus.h ****   *         @arg @ref LL_AHB1_GRP1_PERIPH_DMA1
 382:Drivers/STM32F3xx_HAL_Driver/Inc/stm32f3xx_ll_bus.h ****   *         @arg @ref LL_AHB1_GRP1_PERIPH_DMA2 (*)
 383:Drivers/STM32F3xx_HAL_Driver/Inc/stm32f3xx_ll_bus.h ****   *         @arg @ref LL_AHB1_GRP1_PERIPH_SRAM
 384:Drivers/STM32F3xx_HAL_Driver/Inc/stm32f3xx_ll_bus.h ****   *         @arg @ref LL_AHB1_GRP1_PERIPH_FLASH
 385:Drivers/STM32F3xx_HAL_Driver/Inc/stm32f3xx_ll_bus.h ****   *         @arg @ref LL_AHB1_GRP1_PERIPH_FMC (*)
 386:Drivers/STM32F3xx_HAL_Driver/Inc/stm32f3xx_ll_bus.h ****   *         @arg @ref LL_AHB1_GRP1_PERIPH_CRC
 387:Drivers/STM32F3xx_HAL_Driver/Inc/stm32f3xx_ll_bus.h ****   *         @arg @ref LL_AHB1_GRP1_PERIPH_GPIOH (*)
 388:Drivers/STM32F3xx_HAL_Driver/Inc/stm32f3xx_ll_bus.h ****   *         @arg @ref LL_AHB1_GRP1_PERIPH_GPIOA
 389:Drivers/STM32F3xx_HAL_Driver/Inc/stm32f3xx_ll_bus.h ****   *         @arg @ref LL_AHB1_GRP1_PERIPH_GPIOB
 390:Drivers/STM32F3xx_HAL_Driver/Inc/stm32f3xx_ll_bus.h ****   *         @arg @ref LL_AHB1_GRP1_PERIPH_GPIOC
 391:Drivers/STM32F3xx_HAL_Driver/Inc/stm32f3xx_ll_bus.h ****   *         @arg @ref LL_AHB1_GRP1_PERIPH_GPIOD
 392:Drivers/STM32F3xx_HAL_Driver/Inc/stm32f3xx_ll_bus.h ****   *         @arg @ref LL_AHB1_GRP1_PERIPH_GPIOE (*)
 393:Drivers/STM32F3xx_HAL_Driver/Inc/stm32f3xx_ll_bus.h ****   *         @arg @ref LL_AHB1_GRP1_PERIPH_GPIOF
 394:Drivers/STM32F3xx_HAL_Driver/Inc/stm32f3xx_ll_bus.h ****   *         @arg @ref LL_AHB1_GRP1_PERIPH_GPIOG (*)
 395:Drivers/STM32F3xx_HAL_Driver/Inc/stm32f3xx_ll_bus.h ****   *         @arg @ref LL_AHB1_GRP1_PERIPH_TSC
 396:Drivers/STM32F3xx_HAL_Driver/Inc/stm32f3xx_ll_bus.h ****   *         @arg @ref LL_AHB1_GRP1_PERIPH_ADC1 (*)
 397:Drivers/STM32F3xx_HAL_Driver/Inc/stm32f3xx_ll_bus.h ****   *         @arg @ref LL_AHB1_GRP1_PERIPH_ADC12 (*)
 398:Drivers/STM32F3xx_HAL_Driver/Inc/stm32f3xx_ll_bus.h ****   *         @arg @ref LL_AHB1_GRP1_PERIPH_ADC34 (*)
 399:Drivers/STM32F3xx_HAL_Driver/Inc/stm32f3xx_ll_bus.h ****   *
 400:Drivers/STM32F3xx_HAL_Driver/Inc/stm32f3xx_ll_bus.h ****   *         (*) value not defined in all devices.
 401:Drivers/STM32F3xx_HAL_Driver/Inc/stm32f3xx_ll_bus.h ****   * @retval None
 402:Drivers/STM32F3xx_HAL_Driver/Inc/stm32f3xx_ll_bus.h **** */
 403:Drivers/STM32F3xx_HAL_Driver/Inc/stm32f3xx_ll_bus.h **** __STATIC_INLINE void LL_AHB1_GRP1_DisableClock(uint32_t Periphs)
 404:Drivers/STM32F3xx_HAL_Driver/Inc/stm32f3xx_ll_bus.h **** {
 405:Drivers/STM32F3xx_HAL_Driver/Inc/stm32f3xx_ll_bus.h ****   CLEAR_BIT(RCC->AHBENR, Periphs);
 406:Drivers/STM32F3xx_HAL_Driver/Inc/stm32f3xx_ll_bus.h **** }
 407:Drivers/STM32F3xx_HAL_Driver/Inc/stm32f3xx_ll_bus.h **** 
 408:Drivers/STM32F3xx_HAL_Driver/Inc/stm32f3xx_ll_bus.h **** /**
 409:Drivers/STM32F3xx_HAL_Driver/Inc/stm32f3xx_ll_bus.h ****   * @brief  Force AHB1 peripherals reset.
 410:Drivers/STM32F3xx_HAL_Driver/Inc/stm32f3xx_ll_bus.h ****   * @rmtoll AHBRSTR      FMCRST        LL_AHB1_GRP1_ForceReset\n
 411:Drivers/STM32F3xx_HAL_Driver/Inc/stm32f3xx_ll_bus.h ****   *         AHBRSTR      GPIOHRST      LL_AHB1_GRP1_ForceReset\n
 412:Drivers/STM32F3xx_HAL_Driver/Inc/stm32f3xx_ll_bus.h ****   *         AHBRSTR      GPIOARST      LL_AHB1_GRP1_ForceReset\n
 413:Drivers/STM32F3xx_HAL_Driver/Inc/stm32f3xx_ll_bus.h ****   *         AHBRSTR      GPIOBRST      LL_AHB1_GRP1_ForceReset\n
 414:Drivers/STM32F3xx_HAL_Driver/Inc/stm32f3xx_ll_bus.h ****   *         AHBRSTR      GPIOCRST      LL_AHB1_GRP1_ForceReset\n
 415:Drivers/STM32F3xx_HAL_Driver/Inc/stm32f3xx_ll_bus.h ****   *         AHBRSTR      GPIODRST      LL_AHB1_GRP1_ForceReset\n
 416:Drivers/STM32F3xx_HAL_Driver/Inc/stm32f3xx_ll_bus.h ****   *         AHBRSTR      GPIOERST      LL_AHB1_GRP1_ForceReset\n
 417:Drivers/STM32F3xx_HAL_Driver/Inc/stm32f3xx_ll_bus.h ****   *         AHBRSTR      GPIOFRST      LL_AHB1_GRP1_ForceReset\n
 418:Drivers/STM32F3xx_HAL_Driver/Inc/stm32f3xx_ll_bus.h ****   *         AHBRSTR      GPIOGRST      LL_AHB1_GRP1_ForceReset\n
 419:Drivers/STM32F3xx_HAL_Driver/Inc/stm32f3xx_ll_bus.h ****   *         AHBRSTR      TSCRST        LL_AHB1_GRP1_ForceReset\n
 420:Drivers/STM32F3xx_HAL_Driver/Inc/stm32f3xx_ll_bus.h ****   *         AHBRSTR      ADC1RST       LL_AHB1_GRP1_ForceReset\n
 421:Drivers/STM32F3xx_HAL_Driver/Inc/stm32f3xx_ll_bus.h ****   *         AHBRSTR      ADC12RST      LL_AHB1_GRP1_ForceReset\n
 422:Drivers/STM32F3xx_HAL_Driver/Inc/stm32f3xx_ll_bus.h ****   *         AHBRSTR      ADC34RST      LL_AHB1_GRP1_ForceReset
 423:Drivers/STM32F3xx_HAL_Driver/Inc/stm32f3xx_ll_bus.h ****   * @param  Periphs This parameter can be a combination of the following values:
 424:Drivers/STM32F3xx_HAL_Driver/Inc/stm32f3xx_ll_bus.h ****   *         @arg @ref LL_AHB1_GRP1_PERIPH_ALL
 425:Drivers/STM32F3xx_HAL_Driver/Inc/stm32f3xx_ll_bus.h ****   *         @arg @ref LL_AHB1_GRP1_PERIPH_FMC (*)
 426:Drivers/STM32F3xx_HAL_Driver/Inc/stm32f3xx_ll_bus.h ****   *         @arg @ref LL_AHB1_GRP1_PERIPH_GPIOH (*)
 427:Drivers/STM32F3xx_HAL_Driver/Inc/stm32f3xx_ll_bus.h ****   *         @arg @ref LL_AHB1_GRP1_PERIPH_GPIOA
 428:Drivers/STM32F3xx_HAL_Driver/Inc/stm32f3xx_ll_bus.h ****   *         @arg @ref LL_AHB1_GRP1_PERIPH_GPIOB
 429:Drivers/STM32F3xx_HAL_Driver/Inc/stm32f3xx_ll_bus.h ****   *         @arg @ref LL_AHB1_GRP1_PERIPH_GPIOC
 430:Drivers/STM32F3xx_HAL_Driver/Inc/stm32f3xx_ll_bus.h ****   *         @arg @ref LL_AHB1_GRP1_PERIPH_GPIOD
 431:Drivers/STM32F3xx_HAL_Driver/Inc/stm32f3xx_ll_bus.h ****   *         @arg @ref LL_AHB1_GRP1_PERIPH_GPIOE (*)
 432:Drivers/STM32F3xx_HAL_Driver/Inc/stm32f3xx_ll_bus.h ****   *         @arg @ref LL_AHB1_GRP1_PERIPH_GPIOF
 433:Drivers/STM32F3xx_HAL_Driver/Inc/stm32f3xx_ll_bus.h ****   *         @arg @ref LL_AHB1_GRP1_PERIPH_GPIOG (*)
 434:Drivers/STM32F3xx_HAL_Driver/Inc/stm32f3xx_ll_bus.h ****   *         @arg @ref LL_AHB1_GRP1_PERIPH_TSC
 435:Drivers/STM32F3xx_HAL_Driver/Inc/stm32f3xx_ll_bus.h ****   *         @arg @ref LL_AHB1_GRP1_PERIPH_ADC1 (*)
 436:Drivers/STM32F3xx_HAL_Driver/Inc/stm32f3xx_ll_bus.h ****   *         @arg @ref LL_AHB1_GRP1_PERIPH_ADC12 (*)
ARM GAS  /tmp/ccoHk3kV.s 			page 13


 437:Drivers/STM32F3xx_HAL_Driver/Inc/stm32f3xx_ll_bus.h ****   *         @arg @ref LL_AHB1_GRP1_PERIPH_ADC34 (*)
 438:Drivers/STM32F3xx_HAL_Driver/Inc/stm32f3xx_ll_bus.h ****   *
 439:Drivers/STM32F3xx_HAL_Driver/Inc/stm32f3xx_ll_bus.h ****   *         (*) value not defined in all devices.
 440:Drivers/STM32F3xx_HAL_Driver/Inc/stm32f3xx_ll_bus.h ****   * @retval None
 441:Drivers/STM32F3xx_HAL_Driver/Inc/stm32f3xx_ll_bus.h **** */
 442:Drivers/STM32F3xx_HAL_Driver/Inc/stm32f3xx_ll_bus.h **** __STATIC_INLINE void LL_AHB1_GRP1_ForceReset(uint32_t Periphs)
 443:Drivers/STM32F3xx_HAL_Driver/Inc/stm32f3xx_ll_bus.h **** {
 444:Drivers/STM32F3xx_HAL_Driver/Inc/stm32f3xx_ll_bus.h ****   SET_BIT(RCC->AHBRSTR, Periphs);
  67              		.loc 2 444 0
  68 0028 2D4B     		ldr	r3, .L15+20
  69 002a 9A6A     		ldr	r2, [r3, #40]
  70 002c 42F40032 		orr	r2, r2, #131072
  71 0030 9A62     		str	r2, [r3, #40]
  72              	.LVL3:
  73              	.LBE87:
  74              	.LBE86:
  75              	.LBB88:
  76              	.LBB89:
 445:Drivers/STM32F3xx_HAL_Driver/Inc/stm32f3xx_ll_bus.h **** }
 446:Drivers/STM32F3xx_HAL_Driver/Inc/stm32f3xx_ll_bus.h **** 
 447:Drivers/STM32F3xx_HAL_Driver/Inc/stm32f3xx_ll_bus.h **** /**
 448:Drivers/STM32F3xx_HAL_Driver/Inc/stm32f3xx_ll_bus.h ****   * @brief  Release AHB1 peripherals reset.
 449:Drivers/STM32F3xx_HAL_Driver/Inc/stm32f3xx_ll_bus.h ****   * @rmtoll AHBRSTR      FMCRST        LL_AHB1_GRP1_ReleaseReset\n
 450:Drivers/STM32F3xx_HAL_Driver/Inc/stm32f3xx_ll_bus.h ****   *         AHBRSTR      GPIOHRST      LL_AHB1_GRP1_ReleaseReset\n
 451:Drivers/STM32F3xx_HAL_Driver/Inc/stm32f3xx_ll_bus.h ****   *         AHBRSTR      GPIOARST      LL_AHB1_GRP1_ReleaseReset\n
 452:Drivers/STM32F3xx_HAL_Driver/Inc/stm32f3xx_ll_bus.h ****   *         AHBRSTR      GPIOBRST      LL_AHB1_GRP1_ReleaseReset\n
 453:Drivers/STM32F3xx_HAL_Driver/Inc/stm32f3xx_ll_bus.h ****   *         AHBRSTR      GPIOCRST      LL_AHB1_GRP1_ReleaseReset\n
 454:Drivers/STM32F3xx_HAL_Driver/Inc/stm32f3xx_ll_bus.h ****   *         AHBRSTR      GPIODRST      LL_AHB1_GRP1_ReleaseReset\n
 455:Drivers/STM32F3xx_HAL_Driver/Inc/stm32f3xx_ll_bus.h ****   *         AHBRSTR      GPIOERST      LL_AHB1_GRP1_ReleaseReset\n
 456:Drivers/STM32F3xx_HAL_Driver/Inc/stm32f3xx_ll_bus.h ****   *         AHBRSTR      GPIOFRST      LL_AHB1_GRP1_ReleaseReset\n
 457:Drivers/STM32F3xx_HAL_Driver/Inc/stm32f3xx_ll_bus.h ****   *         AHBRSTR      GPIOGRST      LL_AHB1_GRP1_ReleaseReset\n
 458:Drivers/STM32F3xx_HAL_Driver/Inc/stm32f3xx_ll_bus.h ****   *         AHBRSTR      TSCRST        LL_AHB1_GRP1_ReleaseReset\n
 459:Drivers/STM32F3xx_HAL_Driver/Inc/stm32f3xx_ll_bus.h ****   *         AHBRSTR      ADC1RST       LL_AHB1_GRP1_ReleaseReset\n
 460:Drivers/STM32F3xx_HAL_Driver/Inc/stm32f3xx_ll_bus.h ****   *         AHBRSTR      ADC12RST      LL_AHB1_GRP1_ReleaseReset\n
 461:Drivers/STM32F3xx_HAL_Driver/Inc/stm32f3xx_ll_bus.h ****   *         AHBRSTR      ADC34RST      LL_AHB1_GRP1_ReleaseReset
 462:Drivers/STM32F3xx_HAL_Driver/Inc/stm32f3xx_ll_bus.h ****   * @param  Periphs This parameter can be a combination of the following values:
 463:Drivers/STM32F3xx_HAL_Driver/Inc/stm32f3xx_ll_bus.h ****   *         @arg @ref LL_AHB1_GRP1_PERIPH_ALL
 464:Drivers/STM32F3xx_HAL_Driver/Inc/stm32f3xx_ll_bus.h ****   *         @arg @ref LL_AHB1_GRP1_PERIPH_FMC (*)
 465:Drivers/STM32F3xx_HAL_Driver/Inc/stm32f3xx_ll_bus.h ****   *         @arg @ref LL_AHB1_GRP1_PERIPH_GPIOH (*)
 466:Drivers/STM32F3xx_HAL_Driver/Inc/stm32f3xx_ll_bus.h ****   *         @arg @ref LL_AHB1_GRP1_PERIPH_GPIOA
 467:Drivers/STM32F3xx_HAL_Driver/Inc/stm32f3xx_ll_bus.h ****   *         @arg @ref LL_AHB1_GRP1_PERIPH_GPIOB
 468:Drivers/STM32F3xx_HAL_Driver/Inc/stm32f3xx_ll_bus.h ****   *         @arg @ref LL_AHB1_GRP1_PERIPH_GPIOC
 469:Drivers/STM32F3xx_HAL_Driver/Inc/stm32f3xx_ll_bus.h ****   *         @arg @ref LL_AHB1_GRP1_PERIPH_GPIOD
 470:Drivers/STM32F3xx_HAL_Driver/Inc/stm32f3xx_ll_bus.h ****   *         @arg @ref LL_AHB1_GRP1_PERIPH_GPIOE (*)
 471:Drivers/STM32F3xx_HAL_Driver/Inc/stm32f3xx_ll_bus.h ****   *         @arg @ref LL_AHB1_GRP1_PERIPH_GPIOF
 472:Drivers/STM32F3xx_HAL_Driver/Inc/stm32f3xx_ll_bus.h ****   *         @arg @ref LL_AHB1_GRP1_PERIPH_GPIOG (*)
 473:Drivers/STM32F3xx_HAL_Driver/Inc/stm32f3xx_ll_bus.h ****   *         @arg @ref LL_AHB1_GRP1_PERIPH_TSC
 474:Drivers/STM32F3xx_HAL_Driver/Inc/stm32f3xx_ll_bus.h ****   *         @arg @ref LL_AHB1_GRP1_PERIPH_ADC1 (*)
 475:Drivers/STM32F3xx_HAL_Driver/Inc/stm32f3xx_ll_bus.h ****   *         @arg @ref LL_AHB1_GRP1_PERIPH_ADC12 (*)
 476:Drivers/STM32F3xx_HAL_Driver/Inc/stm32f3xx_ll_bus.h ****   *         @arg @ref LL_AHB1_GRP1_PERIPH_ADC34 (*)
 477:Drivers/STM32F3xx_HAL_Driver/Inc/stm32f3xx_ll_bus.h ****   *
 478:Drivers/STM32F3xx_HAL_Driver/Inc/stm32f3xx_ll_bus.h ****   *         (*) value not defined in all devices.
 479:Drivers/STM32F3xx_HAL_Driver/Inc/stm32f3xx_ll_bus.h ****   * @retval None
 480:Drivers/STM32F3xx_HAL_Driver/Inc/stm32f3xx_ll_bus.h **** */
 481:Drivers/STM32F3xx_HAL_Driver/Inc/stm32f3xx_ll_bus.h **** __STATIC_INLINE void LL_AHB1_GRP1_ReleaseReset(uint32_t Periphs)
 482:Drivers/STM32F3xx_HAL_Driver/Inc/stm32f3xx_ll_bus.h **** {
 483:Drivers/STM32F3xx_HAL_Driver/Inc/stm32f3xx_ll_bus.h ****   CLEAR_BIT(RCC->AHBRSTR, Periphs);
ARM GAS  /tmp/ccoHk3kV.s 			page 14


  77              		.loc 2 483 0
  78 0032 9A6A     		ldr	r2, [r3, #40]
  79 0034 22F40032 		bic	r2, r2, #131072
  80 0038 9A62     		str	r2, [r3, #40]
  81              	.LBE89:
  82              	.LBE88:
 121:Drivers/STM32F3xx_HAL_Driver/Src/stm32f3xx_ll_gpio.c **** 
  83              		.loc 1 121 0
  84 003a 0020     		movs	r0, #0
  85              	.LVL4:
  86 003c 7047     		bx	lr
  87              	.LVL5:
  88              	.L10:
  89              	.LBB90:
  90              	.LBB91:
 444:Drivers/STM32F3xx_HAL_Driver/Inc/stm32f3xx_ll_bus.h **** }
  91              		.loc 2 444 0
  92 003e 03F17843 		add	r3, r3, #-134217728
  93 0042 03F50333 		add	r3, r3, #134144
  94 0046 9A6A     		ldr	r2, [r3, #40]
  95 0048 42F48022 		orr	r2, r2, #262144
  96 004c 9A62     		str	r2, [r3, #40]
  97              	.LVL6:
  98              	.LBE91:
  99              	.LBE90:
 100              	.LBB92:
 101              	.LBB93:
 102              		.loc 2 483 0
 103 004e 9A6A     		ldr	r2, [r3, #40]
 104 0050 22F48022 		bic	r2, r2, #262144
 105 0054 9A62     		str	r2, [r3, #40]
 106              	.LBE93:
 107              	.LBE92:
 121:Drivers/STM32F3xx_HAL_Driver/Src/stm32f3xx_ll_gpio.c **** 
 108              		.loc 1 121 0
 109 0056 0020     		movs	r0, #0
 110              	.LVL7:
 111 0058 7047     		bx	lr
 112              	.LVL8:
 113              	.L11:
 114              	.LBB94:
 115              	.LBB95:
 444:Drivers/STM32F3xx_HAL_Driver/Inc/stm32f3xx_ll_bus.h **** }
 116              		.loc 2 444 0
 117 005a 03F17843 		add	r3, r3, #-134217728
 118 005e 03F50233 		add	r3, r3, #133120
 119 0062 9A6A     		ldr	r2, [r3, #40]
 120 0064 42F40022 		orr	r2, r2, #524288
 121 0068 9A62     		str	r2, [r3, #40]
 122              	.LVL9:
 123              	.LBE95:
 124              	.LBE94:
 125              	.LBB96:
 126              	.LBB97:
 127              		.loc 2 483 0
 128 006a 9A6A     		ldr	r2, [r3, #40]
 129 006c 22F40022 		bic	r2, r2, #524288
ARM GAS  /tmp/ccoHk3kV.s 			page 15


 130 0070 9A62     		str	r2, [r3, #40]
 131              	.LBE97:
 132              	.LBE96:
 121:Drivers/STM32F3xx_HAL_Driver/Src/stm32f3xx_ll_gpio.c **** 
 133              		.loc 1 121 0
 134 0072 0020     		movs	r0, #0
 135              	.LVL10:
 136 0074 7047     		bx	lr
 137              	.LVL11:
 138              	.L12:
 139              	.LBB98:
 140              	.LBB99:
 444:Drivers/STM32F3xx_HAL_Driver/Inc/stm32f3xx_ll_bus.h **** }
 141              		.loc 2 444 0
 142 0076 03F17843 		add	r3, r3, #-134217728
 143 007a 03F50133 		add	r3, r3, #132096
 144 007e 9A6A     		ldr	r2, [r3, #40]
 145 0080 42F48012 		orr	r2, r2, #1048576
 146 0084 9A62     		str	r2, [r3, #40]
 147              	.LVL12:
 148              	.LBE99:
 149              	.LBE98:
 150              	.LBB100:
 151              	.LBB101:
 152              		.loc 2 483 0
 153 0086 9A6A     		ldr	r2, [r3, #40]
 154 0088 22F48012 		bic	r2, r2, #1048576
 155 008c 9A62     		str	r2, [r3, #40]
 156              	.LBE101:
 157              	.LBE100:
 121:Drivers/STM32F3xx_HAL_Driver/Src/stm32f3xx_ll_gpio.c **** 
 158              		.loc 1 121 0
 159 008e 0020     		movs	r0, #0
 160              	.LVL13:
 161 0090 7047     		bx	lr
 162              	.LVL14:
 163              	.L13:
 164              	.LBB102:
 165              	.LBB103:
 444:Drivers/STM32F3xx_HAL_Driver/Inc/stm32f3xx_ll_bus.h **** }
 166              		.loc 2 444 0
 167 0092 03F17843 		add	r3, r3, #-134217728
 168 0096 03F50033 		add	r3, r3, #131072
 169 009a 9A6A     		ldr	r2, [r3, #40]
 170 009c 42F40012 		orr	r2, r2, #2097152
 171 00a0 9A62     		str	r2, [r3, #40]
 172              	.LVL15:
 173              	.LBE103:
 174              	.LBE102:
 175              	.LBB104:
 176              	.LBB105:
 177              		.loc 2 483 0
 178 00a2 9A6A     		ldr	r2, [r3, #40]
 179 00a4 22F40012 		bic	r2, r2, #2097152
 180 00a8 9A62     		str	r2, [r3, #40]
 181              	.LBE105:
 182              	.LBE104:
ARM GAS  /tmp/ccoHk3kV.s 			page 16


 121:Drivers/STM32F3xx_HAL_Driver/Src/stm32f3xx_ll_gpio.c **** 
 183              		.loc 1 121 0
 184 00aa 0020     		movs	r0, #0
 185              	.LVL16:
 186 00ac 7047     		bx	lr
 187              	.LVL17:
 188              	.L14:
 189              	.LBB106:
 190              	.LBB107:
 444:Drivers/STM32F3xx_HAL_Driver/Inc/stm32f3xx_ll_bus.h **** }
 191              		.loc 2 444 0
 192 00ae 03F17843 		add	r3, r3, #-134217728
 193 00b2 03F5FE33 		add	r3, r3, #130048
 194 00b6 9A6A     		ldr	r2, [r3, #40]
 195 00b8 42F48002 		orr	r2, r2, #4194304
 196 00bc 9A62     		str	r2, [r3, #40]
 197              	.LVL18:
 198              	.LBE107:
 199              	.LBE106:
 200              	.LBB108:
 201              	.LBB109:
 202              		.loc 2 483 0
 203 00be 9A6A     		ldr	r2, [r3, #40]
 204 00c0 22F48002 		bic	r2, r2, #4194304
 205 00c4 9A62     		str	r2, [r3, #40]
 206              	.LBE109:
 207              	.LBE108:
 121:Drivers/STM32F3xx_HAL_Driver/Src/stm32f3xx_ll_gpio.c **** 
 208              		.loc 1 121 0
 209 00c6 0020     		movs	r0, #0
 210              	.LVL19:
 211 00c8 7047     		bx	lr
 212              	.L16:
 213 00ca 00BF     		.align	2
 214              	.L15:
 215 00cc 00040048 		.word	1207960576
 216 00d0 00080048 		.word	1207961600
 217 00d4 000C0048 		.word	1207962624
 218 00d8 00100048 		.word	1207963648
 219 00dc 00140048 		.word	1207964672
 220 00e0 00100240 		.word	1073876992
 221              		.cfi_endproc
 222              	.LFE164:
 224              		.section	.text.LL_GPIO_Init,"ax",%progbits
 225              		.align	1
 226              		.global	LL_GPIO_Init
 227              		.syntax unified
 228              		.thumb
 229              		.thumb_func
 230              		.fpu fpv4-sp-d16
 232              	LL_GPIO_Init:
 233              	.LFB165:
 184:Drivers/STM32F3xx_HAL_Driver/Src/stm32f3xx_ll_gpio.c **** 
 185:Drivers/STM32F3xx_HAL_Driver/Src/stm32f3xx_ll_gpio.c **** /**
 186:Drivers/STM32F3xx_HAL_Driver/Src/stm32f3xx_ll_gpio.c ****   * @brief  Initialize GPIO registers according to the specified parameters in GPIO_InitStruct.
 187:Drivers/STM32F3xx_HAL_Driver/Src/stm32f3xx_ll_gpio.c ****   * @param  GPIOx GPIO Port
 188:Drivers/STM32F3xx_HAL_Driver/Src/stm32f3xx_ll_gpio.c ****   * @param  GPIO_InitStruct pointer to a @ref LL_GPIO_InitTypeDef structure
ARM GAS  /tmp/ccoHk3kV.s 			page 17


 189:Drivers/STM32F3xx_HAL_Driver/Src/stm32f3xx_ll_gpio.c ****   *         that contains the configuration information for the specified GPIO peripheral.
 190:Drivers/STM32F3xx_HAL_Driver/Src/stm32f3xx_ll_gpio.c ****   * @retval An ErrorStatus enumeration value:
 191:Drivers/STM32F3xx_HAL_Driver/Src/stm32f3xx_ll_gpio.c ****   *          - SUCCESS: GPIO registers are initialized according to GPIO_InitStruct content
 192:Drivers/STM32F3xx_HAL_Driver/Src/stm32f3xx_ll_gpio.c ****   *          - ERROR:   Not applicable
 193:Drivers/STM32F3xx_HAL_Driver/Src/stm32f3xx_ll_gpio.c ****   */
 194:Drivers/STM32F3xx_HAL_Driver/Src/stm32f3xx_ll_gpio.c **** ErrorStatus LL_GPIO_Init(GPIO_TypeDef *GPIOx, LL_GPIO_InitTypeDef *GPIO_InitStruct)
 195:Drivers/STM32F3xx_HAL_Driver/Src/stm32f3xx_ll_gpio.c **** {
 234              		.loc 1 195 0
 235              		.cfi_startproc
 236              		@ args = 0, pretend = 0, frame = 0
 237              		@ frame_needed = 0, uses_anonymous_args = 0
 238              		@ link register save eliminated.
 239              	.LVL20:
 240 0000 F0B4     		push	{r4, r5, r6, r7}
 241              	.LCFI0:
 242              		.cfi_def_cfa_offset 16
 243              		.cfi_offset 4, -16
 244              		.cfi_offset 5, -12
 245              		.cfi_offset 6, -8
 246              		.cfi_offset 7, -4
 247              	.LVL21:
 196:Drivers/STM32F3xx_HAL_Driver/Src/stm32f3xx_ll_gpio.c ****   uint32_t pinpos     = 0x00000000U;
 197:Drivers/STM32F3xx_HAL_Driver/Src/stm32f3xx_ll_gpio.c ****   uint32_t currentpin = 0x00000000U;
 198:Drivers/STM32F3xx_HAL_Driver/Src/stm32f3xx_ll_gpio.c **** 
 199:Drivers/STM32F3xx_HAL_Driver/Src/stm32f3xx_ll_gpio.c ****   /* Check the parameters */
 200:Drivers/STM32F3xx_HAL_Driver/Src/stm32f3xx_ll_gpio.c ****   assert_param(IS_GPIO_ALL_INSTANCE(GPIOx));
 201:Drivers/STM32F3xx_HAL_Driver/Src/stm32f3xx_ll_gpio.c ****   assert_param(IS_LL_GPIO_PIN(GPIO_InitStruct->Pin));
 202:Drivers/STM32F3xx_HAL_Driver/Src/stm32f3xx_ll_gpio.c ****   assert_param(IS_LL_GPIO_MODE(GPIO_InitStruct->Mode));
 203:Drivers/STM32F3xx_HAL_Driver/Src/stm32f3xx_ll_gpio.c ****   assert_param(IS_LL_GPIO_PULL(GPIO_InitStruct->Pull));
 204:Drivers/STM32F3xx_HAL_Driver/Src/stm32f3xx_ll_gpio.c **** 
 205:Drivers/STM32F3xx_HAL_Driver/Src/stm32f3xx_ll_gpio.c ****   /* ------------------------- Configure the port pins ---------------- */
 206:Drivers/STM32F3xx_HAL_Driver/Src/stm32f3xx_ll_gpio.c ****   /* Initialize  pinpos on first pin set */
 207:Drivers/STM32F3xx_HAL_Driver/Src/stm32f3xx_ll_gpio.c ****   pinpos = POSITION_VAL(GPIO_InitStruct->Pin);
 248              		.loc 1 207 0
 249 0002 0A68     		ldr	r2, [r1]
 250              	.LVL22:
 251              	.LBB110:
 252              	.LBB111:
 253              		.file 3 "Drivers/CMSIS/Include/cmsis_gcc.h"
   1:Drivers/CMSIS/Include/cmsis_gcc.h **** /**************************************************************************//**
   2:Drivers/CMSIS/Include/cmsis_gcc.h ****  * @file     cmsis_gcc.h
   3:Drivers/CMSIS/Include/cmsis_gcc.h ****  * @brief    CMSIS Cortex-M Core Function/Instruction Header File
   4:Drivers/CMSIS/Include/cmsis_gcc.h ****  * @version  V4.30
   5:Drivers/CMSIS/Include/cmsis_gcc.h ****  * @date     20. October 2015
   6:Drivers/CMSIS/Include/cmsis_gcc.h ****  ******************************************************************************/
   7:Drivers/CMSIS/Include/cmsis_gcc.h **** /* Copyright (c) 2009 - 2015 ARM LIMITED
   8:Drivers/CMSIS/Include/cmsis_gcc.h **** 
   9:Drivers/CMSIS/Include/cmsis_gcc.h ****    All rights reserved.
  10:Drivers/CMSIS/Include/cmsis_gcc.h ****    Redistribution and use in source and binary forms, with or without
  11:Drivers/CMSIS/Include/cmsis_gcc.h ****    modification, are permitted provided that the following conditions are met:
  12:Drivers/CMSIS/Include/cmsis_gcc.h ****    - Redistributions of source code must retain the above copyright
  13:Drivers/CMSIS/Include/cmsis_gcc.h ****      notice, this list of conditions and the following disclaimer.
  14:Drivers/CMSIS/Include/cmsis_gcc.h ****    - Redistributions in binary form must reproduce the above copyright
  15:Drivers/CMSIS/Include/cmsis_gcc.h ****      notice, this list of conditions and the following disclaimer in the
  16:Drivers/CMSIS/Include/cmsis_gcc.h ****      documentation and/or other materials provided with the distribution.
  17:Drivers/CMSIS/Include/cmsis_gcc.h ****    - Neither the name of ARM nor the names of its contributors may be used
  18:Drivers/CMSIS/Include/cmsis_gcc.h ****      to endorse or promote products derived from this software without
ARM GAS  /tmp/ccoHk3kV.s 			page 18


  19:Drivers/CMSIS/Include/cmsis_gcc.h ****      specific prior written permission.
  20:Drivers/CMSIS/Include/cmsis_gcc.h ****    *
  21:Drivers/CMSIS/Include/cmsis_gcc.h ****    THIS SOFTWARE IS PROVIDED BY THE COPYRIGHT HOLDERS AND CONTRIBUTORS "AS IS"
  22:Drivers/CMSIS/Include/cmsis_gcc.h ****    AND ANY EXPRESS OR IMPLIED WARRANTIES, INCLUDING, BUT NOT LIMITED TO, THE
  23:Drivers/CMSIS/Include/cmsis_gcc.h ****    IMPLIED WARRANTIES OF MERCHANTABILITY AND FITNESS FOR A PARTICULAR PURPOSE
  24:Drivers/CMSIS/Include/cmsis_gcc.h ****    ARE DISCLAIMED. IN NO EVENT SHALL COPYRIGHT HOLDERS AND CONTRIBUTORS BE
  25:Drivers/CMSIS/Include/cmsis_gcc.h ****    LIABLE FOR ANY DIRECT, INDIRECT, INCIDENTAL, SPECIAL, EXEMPLARY, OR
  26:Drivers/CMSIS/Include/cmsis_gcc.h ****    CONSEQUENTIAL DAMAGES (INCLUDING, BUT NOT LIMITED TO, PROCUREMENT OF
  27:Drivers/CMSIS/Include/cmsis_gcc.h ****    SUBSTITUTE GOODS OR SERVICES; LOSS OF USE, DATA, OR PROFITS; OR BUSINESS
  28:Drivers/CMSIS/Include/cmsis_gcc.h ****    INTERRUPTION) HOWEVER CAUSED AND ON ANY THEORY OF LIABILITY, WHETHER IN
  29:Drivers/CMSIS/Include/cmsis_gcc.h ****    CONTRACT, STRICT LIABILITY, OR TORT (INCLUDING NEGLIGENCE OR OTHERWISE)
  30:Drivers/CMSIS/Include/cmsis_gcc.h ****    ARISING IN ANY WAY OUT OF THE USE OF THIS SOFTWARE, EVEN IF ADVISED OF THE
  31:Drivers/CMSIS/Include/cmsis_gcc.h ****    POSSIBILITY OF SUCH DAMAGE.
  32:Drivers/CMSIS/Include/cmsis_gcc.h ****    ---------------------------------------------------------------------------*/
  33:Drivers/CMSIS/Include/cmsis_gcc.h **** 
  34:Drivers/CMSIS/Include/cmsis_gcc.h **** 
  35:Drivers/CMSIS/Include/cmsis_gcc.h **** #ifndef __CMSIS_GCC_H
  36:Drivers/CMSIS/Include/cmsis_gcc.h **** #define __CMSIS_GCC_H
  37:Drivers/CMSIS/Include/cmsis_gcc.h **** 
  38:Drivers/CMSIS/Include/cmsis_gcc.h **** /* ignore some GCC warnings */
  39:Drivers/CMSIS/Include/cmsis_gcc.h **** #if defined ( __GNUC__ )
  40:Drivers/CMSIS/Include/cmsis_gcc.h **** #pragma GCC diagnostic push
  41:Drivers/CMSIS/Include/cmsis_gcc.h **** #pragma GCC diagnostic ignored "-Wsign-conversion"
  42:Drivers/CMSIS/Include/cmsis_gcc.h **** #pragma GCC diagnostic ignored "-Wconversion"
  43:Drivers/CMSIS/Include/cmsis_gcc.h **** #pragma GCC diagnostic ignored "-Wunused-parameter"
  44:Drivers/CMSIS/Include/cmsis_gcc.h **** #endif
  45:Drivers/CMSIS/Include/cmsis_gcc.h **** 
  46:Drivers/CMSIS/Include/cmsis_gcc.h **** 
  47:Drivers/CMSIS/Include/cmsis_gcc.h **** /* ###########################  Core Function Access  ########################### */
  48:Drivers/CMSIS/Include/cmsis_gcc.h **** /** \ingroup  CMSIS_Core_FunctionInterface
  49:Drivers/CMSIS/Include/cmsis_gcc.h ****     \defgroup CMSIS_Core_RegAccFunctions CMSIS Core Register Access Functions
  50:Drivers/CMSIS/Include/cmsis_gcc.h ****   @{
  51:Drivers/CMSIS/Include/cmsis_gcc.h ****  */
  52:Drivers/CMSIS/Include/cmsis_gcc.h **** 
  53:Drivers/CMSIS/Include/cmsis_gcc.h **** /**
  54:Drivers/CMSIS/Include/cmsis_gcc.h ****   \brief   Enable IRQ Interrupts
  55:Drivers/CMSIS/Include/cmsis_gcc.h ****   \details Enables IRQ interrupts by clearing the I-bit in the CPSR.
  56:Drivers/CMSIS/Include/cmsis_gcc.h ****            Can only be executed in Privileged modes.
  57:Drivers/CMSIS/Include/cmsis_gcc.h ****  */
  58:Drivers/CMSIS/Include/cmsis_gcc.h **** __attribute__( ( always_inline ) ) __STATIC_INLINE void __enable_irq(void)
  59:Drivers/CMSIS/Include/cmsis_gcc.h **** {
  60:Drivers/CMSIS/Include/cmsis_gcc.h ****   __ASM volatile ("cpsie i" : : : "memory");
  61:Drivers/CMSIS/Include/cmsis_gcc.h **** }
  62:Drivers/CMSIS/Include/cmsis_gcc.h **** 
  63:Drivers/CMSIS/Include/cmsis_gcc.h **** 
  64:Drivers/CMSIS/Include/cmsis_gcc.h **** /**
  65:Drivers/CMSIS/Include/cmsis_gcc.h ****   \brief   Disable IRQ Interrupts
  66:Drivers/CMSIS/Include/cmsis_gcc.h ****   \details Disables IRQ interrupts by setting the I-bit in the CPSR.
  67:Drivers/CMSIS/Include/cmsis_gcc.h ****   Can only be executed in Privileged modes.
  68:Drivers/CMSIS/Include/cmsis_gcc.h ****  */
  69:Drivers/CMSIS/Include/cmsis_gcc.h **** __attribute__( ( always_inline ) ) __STATIC_INLINE void __disable_irq(void)
  70:Drivers/CMSIS/Include/cmsis_gcc.h **** {
  71:Drivers/CMSIS/Include/cmsis_gcc.h ****   __ASM volatile ("cpsid i" : : : "memory");
  72:Drivers/CMSIS/Include/cmsis_gcc.h **** }
  73:Drivers/CMSIS/Include/cmsis_gcc.h **** 
  74:Drivers/CMSIS/Include/cmsis_gcc.h **** 
  75:Drivers/CMSIS/Include/cmsis_gcc.h **** /**
ARM GAS  /tmp/ccoHk3kV.s 			page 19


  76:Drivers/CMSIS/Include/cmsis_gcc.h ****   \brief   Get Control Register
  77:Drivers/CMSIS/Include/cmsis_gcc.h ****   \details Returns the content of the Control Register.
  78:Drivers/CMSIS/Include/cmsis_gcc.h ****   \return               Control Register value
  79:Drivers/CMSIS/Include/cmsis_gcc.h ****  */
  80:Drivers/CMSIS/Include/cmsis_gcc.h **** __attribute__( ( always_inline ) ) __STATIC_INLINE uint32_t __get_CONTROL(void)
  81:Drivers/CMSIS/Include/cmsis_gcc.h **** {
  82:Drivers/CMSIS/Include/cmsis_gcc.h ****   uint32_t result;
  83:Drivers/CMSIS/Include/cmsis_gcc.h **** 
  84:Drivers/CMSIS/Include/cmsis_gcc.h ****   __ASM volatile ("MRS %0, control" : "=r" (result) );
  85:Drivers/CMSIS/Include/cmsis_gcc.h ****   return(result);
  86:Drivers/CMSIS/Include/cmsis_gcc.h **** }
  87:Drivers/CMSIS/Include/cmsis_gcc.h **** 
  88:Drivers/CMSIS/Include/cmsis_gcc.h **** 
  89:Drivers/CMSIS/Include/cmsis_gcc.h **** /**
  90:Drivers/CMSIS/Include/cmsis_gcc.h ****   \brief   Set Control Register
  91:Drivers/CMSIS/Include/cmsis_gcc.h ****   \details Writes the given value to the Control Register.
  92:Drivers/CMSIS/Include/cmsis_gcc.h ****   \param [in]    control  Control Register value to set
  93:Drivers/CMSIS/Include/cmsis_gcc.h ****  */
  94:Drivers/CMSIS/Include/cmsis_gcc.h **** __attribute__( ( always_inline ) ) __STATIC_INLINE void __set_CONTROL(uint32_t control)
  95:Drivers/CMSIS/Include/cmsis_gcc.h **** {
  96:Drivers/CMSIS/Include/cmsis_gcc.h ****   __ASM volatile ("MSR control, %0" : : "r" (control) : "memory");
  97:Drivers/CMSIS/Include/cmsis_gcc.h **** }
  98:Drivers/CMSIS/Include/cmsis_gcc.h **** 
  99:Drivers/CMSIS/Include/cmsis_gcc.h **** 
 100:Drivers/CMSIS/Include/cmsis_gcc.h **** /**
 101:Drivers/CMSIS/Include/cmsis_gcc.h ****   \brief   Get IPSR Register
 102:Drivers/CMSIS/Include/cmsis_gcc.h ****   \details Returns the content of the IPSR Register.
 103:Drivers/CMSIS/Include/cmsis_gcc.h ****   \return               IPSR Register value
 104:Drivers/CMSIS/Include/cmsis_gcc.h ****  */
 105:Drivers/CMSIS/Include/cmsis_gcc.h **** __attribute__( ( always_inline ) ) __STATIC_INLINE uint32_t __get_IPSR(void)
 106:Drivers/CMSIS/Include/cmsis_gcc.h **** {
 107:Drivers/CMSIS/Include/cmsis_gcc.h ****   uint32_t result;
 108:Drivers/CMSIS/Include/cmsis_gcc.h **** 
 109:Drivers/CMSIS/Include/cmsis_gcc.h ****   __ASM volatile ("MRS %0, ipsr" : "=r" (result) );
 110:Drivers/CMSIS/Include/cmsis_gcc.h ****   return(result);
 111:Drivers/CMSIS/Include/cmsis_gcc.h **** }
 112:Drivers/CMSIS/Include/cmsis_gcc.h **** 
 113:Drivers/CMSIS/Include/cmsis_gcc.h **** 
 114:Drivers/CMSIS/Include/cmsis_gcc.h **** /**
 115:Drivers/CMSIS/Include/cmsis_gcc.h ****   \brief   Get APSR Register
 116:Drivers/CMSIS/Include/cmsis_gcc.h ****   \details Returns the content of the APSR Register.
 117:Drivers/CMSIS/Include/cmsis_gcc.h ****   \return               APSR Register value
 118:Drivers/CMSIS/Include/cmsis_gcc.h ****  */
 119:Drivers/CMSIS/Include/cmsis_gcc.h **** __attribute__( ( always_inline ) ) __STATIC_INLINE uint32_t __get_APSR(void)
 120:Drivers/CMSIS/Include/cmsis_gcc.h **** {
 121:Drivers/CMSIS/Include/cmsis_gcc.h ****   uint32_t result;
 122:Drivers/CMSIS/Include/cmsis_gcc.h **** 
 123:Drivers/CMSIS/Include/cmsis_gcc.h ****   __ASM volatile ("MRS %0, apsr" : "=r" (result) );
 124:Drivers/CMSIS/Include/cmsis_gcc.h ****   return(result);
 125:Drivers/CMSIS/Include/cmsis_gcc.h **** }
 126:Drivers/CMSIS/Include/cmsis_gcc.h **** 
 127:Drivers/CMSIS/Include/cmsis_gcc.h **** 
 128:Drivers/CMSIS/Include/cmsis_gcc.h **** /**
 129:Drivers/CMSIS/Include/cmsis_gcc.h ****   \brief   Get xPSR Register
 130:Drivers/CMSIS/Include/cmsis_gcc.h ****   \details Returns the content of the xPSR Register.
 131:Drivers/CMSIS/Include/cmsis_gcc.h **** 
 132:Drivers/CMSIS/Include/cmsis_gcc.h ****     \return               xPSR Register value
ARM GAS  /tmp/ccoHk3kV.s 			page 20


 133:Drivers/CMSIS/Include/cmsis_gcc.h ****  */
 134:Drivers/CMSIS/Include/cmsis_gcc.h **** __attribute__( ( always_inline ) ) __STATIC_INLINE uint32_t __get_xPSR(void)
 135:Drivers/CMSIS/Include/cmsis_gcc.h **** {
 136:Drivers/CMSIS/Include/cmsis_gcc.h ****   uint32_t result;
 137:Drivers/CMSIS/Include/cmsis_gcc.h **** 
 138:Drivers/CMSIS/Include/cmsis_gcc.h ****   __ASM volatile ("MRS %0, xpsr" : "=r" (result) );
 139:Drivers/CMSIS/Include/cmsis_gcc.h ****   return(result);
 140:Drivers/CMSIS/Include/cmsis_gcc.h **** }
 141:Drivers/CMSIS/Include/cmsis_gcc.h **** 
 142:Drivers/CMSIS/Include/cmsis_gcc.h **** 
 143:Drivers/CMSIS/Include/cmsis_gcc.h **** /**
 144:Drivers/CMSIS/Include/cmsis_gcc.h ****   \brief   Get Process Stack Pointer
 145:Drivers/CMSIS/Include/cmsis_gcc.h ****   \details Returns the current value of the Process Stack Pointer (PSP).
 146:Drivers/CMSIS/Include/cmsis_gcc.h ****   \return               PSP Register value
 147:Drivers/CMSIS/Include/cmsis_gcc.h ****  */
 148:Drivers/CMSIS/Include/cmsis_gcc.h **** __attribute__( ( always_inline ) ) __STATIC_INLINE uint32_t __get_PSP(void)
 149:Drivers/CMSIS/Include/cmsis_gcc.h **** {
 150:Drivers/CMSIS/Include/cmsis_gcc.h ****   register uint32_t result;
 151:Drivers/CMSIS/Include/cmsis_gcc.h **** 
 152:Drivers/CMSIS/Include/cmsis_gcc.h ****   __ASM volatile ("MRS %0, psp\n"  : "=r" (result) );
 153:Drivers/CMSIS/Include/cmsis_gcc.h ****   return(result);
 154:Drivers/CMSIS/Include/cmsis_gcc.h **** }
 155:Drivers/CMSIS/Include/cmsis_gcc.h **** 
 156:Drivers/CMSIS/Include/cmsis_gcc.h **** 
 157:Drivers/CMSIS/Include/cmsis_gcc.h **** /**
 158:Drivers/CMSIS/Include/cmsis_gcc.h ****   \brief   Set Process Stack Pointer
 159:Drivers/CMSIS/Include/cmsis_gcc.h ****   \details Assigns the given value to the Process Stack Pointer (PSP).
 160:Drivers/CMSIS/Include/cmsis_gcc.h ****   \param [in]    topOfProcStack  Process Stack Pointer value to set
 161:Drivers/CMSIS/Include/cmsis_gcc.h ****  */
 162:Drivers/CMSIS/Include/cmsis_gcc.h **** __attribute__( ( always_inline ) ) __STATIC_INLINE void __set_PSP(uint32_t topOfProcStack)
 163:Drivers/CMSIS/Include/cmsis_gcc.h **** {
 164:Drivers/CMSIS/Include/cmsis_gcc.h ****   __ASM volatile ("MSR psp, %0\n" : : "r" (topOfProcStack) : "sp");
 165:Drivers/CMSIS/Include/cmsis_gcc.h **** }
 166:Drivers/CMSIS/Include/cmsis_gcc.h **** 
 167:Drivers/CMSIS/Include/cmsis_gcc.h **** 
 168:Drivers/CMSIS/Include/cmsis_gcc.h **** /**
 169:Drivers/CMSIS/Include/cmsis_gcc.h ****   \brief   Get Main Stack Pointer
 170:Drivers/CMSIS/Include/cmsis_gcc.h ****   \details Returns the current value of the Main Stack Pointer (MSP).
 171:Drivers/CMSIS/Include/cmsis_gcc.h ****   \return               MSP Register value
 172:Drivers/CMSIS/Include/cmsis_gcc.h ****  */
 173:Drivers/CMSIS/Include/cmsis_gcc.h **** __attribute__( ( always_inline ) ) __STATIC_INLINE uint32_t __get_MSP(void)
 174:Drivers/CMSIS/Include/cmsis_gcc.h **** {
 175:Drivers/CMSIS/Include/cmsis_gcc.h ****   register uint32_t result;
 176:Drivers/CMSIS/Include/cmsis_gcc.h **** 
 177:Drivers/CMSIS/Include/cmsis_gcc.h ****   __ASM volatile ("MRS %0, msp\n" : "=r" (result) );
 178:Drivers/CMSIS/Include/cmsis_gcc.h ****   return(result);
 179:Drivers/CMSIS/Include/cmsis_gcc.h **** }
 180:Drivers/CMSIS/Include/cmsis_gcc.h **** 
 181:Drivers/CMSIS/Include/cmsis_gcc.h **** 
 182:Drivers/CMSIS/Include/cmsis_gcc.h **** /**
 183:Drivers/CMSIS/Include/cmsis_gcc.h ****   \brief   Set Main Stack Pointer
 184:Drivers/CMSIS/Include/cmsis_gcc.h ****   \details Assigns the given value to the Main Stack Pointer (MSP).
 185:Drivers/CMSIS/Include/cmsis_gcc.h **** 
 186:Drivers/CMSIS/Include/cmsis_gcc.h ****     \param [in]    topOfMainStack  Main Stack Pointer value to set
 187:Drivers/CMSIS/Include/cmsis_gcc.h ****  */
 188:Drivers/CMSIS/Include/cmsis_gcc.h **** __attribute__( ( always_inline ) ) __STATIC_INLINE void __set_MSP(uint32_t topOfMainStack)
 189:Drivers/CMSIS/Include/cmsis_gcc.h **** {
ARM GAS  /tmp/ccoHk3kV.s 			page 21


 190:Drivers/CMSIS/Include/cmsis_gcc.h ****   __ASM volatile ("MSR msp, %0\n" : : "r" (topOfMainStack) : "sp");
 191:Drivers/CMSIS/Include/cmsis_gcc.h **** }
 192:Drivers/CMSIS/Include/cmsis_gcc.h **** 
 193:Drivers/CMSIS/Include/cmsis_gcc.h **** 
 194:Drivers/CMSIS/Include/cmsis_gcc.h **** /**
 195:Drivers/CMSIS/Include/cmsis_gcc.h ****   \brief   Get Priority Mask
 196:Drivers/CMSIS/Include/cmsis_gcc.h ****   \details Returns the current state of the priority mask bit from the Priority Mask Register.
 197:Drivers/CMSIS/Include/cmsis_gcc.h ****   \return               Priority Mask value
 198:Drivers/CMSIS/Include/cmsis_gcc.h ****  */
 199:Drivers/CMSIS/Include/cmsis_gcc.h **** __attribute__( ( always_inline ) ) __STATIC_INLINE uint32_t __get_PRIMASK(void)
 200:Drivers/CMSIS/Include/cmsis_gcc.h **** {
 201:Drivers/CMSIS/Include/cmsis_gcc.h ****   uint32_t result;
 202:Drivers/CMSIS/Include/cmsis_gcc.h **** 
 203:Drivers/CMSIS/Include/cmsis_gcc.h ****   __ASM volatile ("MRS %0, primask" : "=r" (result) );
 204:Drivers/CMSIS/Include/cmsis_gcc.h ****   return(result);
 205:Drivers/CMSIS/Include/cmsis_gcc.h **** }
 206:Drivers/CMSIS/Include/cmsis_gcc.h **** 
 207:Drivers/CMSIS/Include/cmsis_gcc.h **** 
 208:Drivers/CMSIS/Include/cmsis_gcc.h **** /**
 209:Drivers/CMSIS/Include/cmsis_gcc.h ****   \brief   Set Priority Mask
 210:Drivers/CMSIS/Include/cmsis_gcc.h ****   \details Assigns the given value to the Priority Mask Register.
 211:Drivers/CMSIS/Include/cmsis_gcc.h ****   \param [in]    priMask  Priority Mask
 212:Drivers/CMSIS/Include/cmsis_gcc.h ****  */
 213:Drivers/CMSIS/Include/cmsis_gcc.h **** __attribute__( ( always_inline ) ) __STATIC_INLINE void __set_PRIMASK(uint32_t priMask)
 214:Drivers/CMSIS/Include/cmsis_gcc.h **** {
 215:Drivers/CMSIS/Include/cmsis_gcc.h ****   __ASM volatile ("MSR primask, %0" : : "r" (priMask) : "memory");
 216:Drivers/CMSIS/Include/cmsis_gcc.h **** }
 217:Drivers/CMSIS/Include/cmsis_gcc.h **** 
 218:Drivers/CMSIS/Include/cmsis_gcc.h **** 
 219:Drivers/CMSIS/Include/cmsis_gcc.h **** #if       (__CORTEX_M >= 0x03U)
 220:Drivers/CMSIS/Include/cmsis_gcc.h **** 
 221:Drivers/CMSIS/Include/cmsis_gcc.h **** /**
 222:Drivers/CMSIS/Include/cmsis_gcc.h ****   \brief   Enable FIQ
 223:Drivers/CMSIS/Include/cmsis_gcc.h ****   \details Enables FIQ interrupts by clearing the F-bit in the CPSR.
 224:Drivers/CMSIS/Include/cmsis_gcc.h ****            Can only be executed in Privileged modes.
 225:Drivers/CMSIS/Include/cmsis_gcc.h ****  */
 226:Drivers/CMSIS/Include/cmsis_gcc.h **** __attribute__( ( always_inline ) ) __STATIC_INLINE void __enable_fault_irq(void)
 227:Drivers/CMSIS/Include/cmsis_gcc.h **** {
 228:Drivers/CMSIS/Include/cmsis_gcc.h ****   __ASM volatile ("cpsie f" : : : "memory");
 229:Drivers/CMSIS/Include/cmsis_gcc.h **** }
 230:Drivers/CMSIS/Include/cmsis_gcc.h **** 
 231:Drivers/CMSIS/Include/cmsis_gcc.h **** 
 232:Drivers/CMSIS/Include/cmsis_gcc.h **** /**
 233:Drivers/CMSIS/Include/cmsis_gcc.h ****   \brief   Disable FIQ
 234:Drivers/CMSIS/Include/cmsis_gcc.h ****   \details Disables FIQ interrupts by setting the F-bit in the CPSR.
 235:Drivers/CMSIS/Include/cmsis_gcc.h ****            Can only be executed in Privileged modes.
 236:Drivers/CMSIS/Include/cmsis_gcc.h ****  */
 237:Drivers/CMSIS/Include/cmsis_gcc.h **** __attribute__( ( always_inline ) ) __STATIC_INLINE void __disable_fault_irq(void)
 238:Drivers/CMSIS/Include/cmsis_gcc.h **** {
 239:Drivers/CMSIS/Include/cmsis_gcc.h ****   __ASM volatile ("cpsid f" : : : "memory");
 240:Drivers/CMSIS/Include/cmsis_gcc.h **** }
 241:Drivers/CMSIS/Include/cmsis_gcc.h **** 
 242:Drivers/CMSIS/Include/cmsis_gcc.h **** 
 243:Drivers/CMSIS/Include/cmsis_gcc.h **** /**
 244:Drivers/CMSIS/Include/cmsis_gcc.h ****   \brief   Get Base Priority
 245:Drivers/CMSIS/Include/cmsis_gcc.h ****   \details Returns the current value of the Base Priority register.
 246:Drivers/CMSIS/Include/cmsis_gcc.h ****   \return               Base Priority register value
ARM GAS  /tmp/ccoHk3kV.s 			page 22


 247:Drivers/CMSIS/Include/cmsis_gcc.h ****  */
 248:Drivers/CMSIS/Include/cmsis_gcc.h **** __attribute__( ( always_inline ) ) __STATIC_INLINE uint32_t __get_BASEPRI(void)
 249:Drivers/CMSIS/Include/cmsis_gcc.h **** {
 250:Drivers/CMSIS/Include/cmsis_gcc.h ****   uint32_t result;
 251:Drivers/CMSIS/Include/cmsis_gcc.h **** 
 252:Drivers/CMSIS/Include/cmsis_gcc.h ****   __ASM volatile ("MRS %0, basepri" : "=r" (result) );
 253:Drivers/CMSIS/Include/cmsis_gcc.h ****   return(result);
 254:Drivers/CMSIS/Include/cmsis_gcc.h **** }
 255:Drivers/CMSIS/Include/cmsis_gcc.h **** 
 256:Drivers/CMSIS/Include/cmsis_gcc.h **** 
 257:Drivers/CMSIS/Include/cmsis_gcc.h **** /**
 258:Drivers/CMSIS/Include/cmsis_gcc.h ****   \brief   Set Base Priority
 259:Drivers/CMSIS/Include/cmsis_gcc.h ****   \details Assigns the given value to the Base Priority register.
 260:Drivers/CMSIS/Include/cmsis_gcc.h ****   \param [in]    basePri  Base Priority value to set
 261:Drivers/CMSIS/Include/cmsis_gcc.h ****  */
 262:Drivers/CMSIS/Include/cmsis_gcc.h **** __attribute__( ( always_inline ) ) __STATIC_INLINE void __set_BASEPRI(uint32_t value)
 263:Drivers/CMSIS/Include/cmsis_gcc.h **** {
 264:Drivers/CMSIS/Include/cmsis_gcc.h ****   __ASM volatile ("MSR basepri, %0" : : "r" (value) : "memory");
 265:Drivers/CMSIS/Include/cmsis_gcc.h **** }
 266:Drivers/CMSIS/Include/cmsis_gcc.h **** 
 267:Drivers/CMSIS/Include/cmsis_gcc.h **** 
 268:Drivers/CMSIS/Include/cmsis_gcc.h **** /**
 269:Drivers/CMSIS/Include/cmsis_gcc.h ****   \brief   Set Base Priority with condition
 270:Drivers/CMSIS/Include/cmsis_gcc.h ****   \details Assigns the given value to the Base Priority register only if BASEPRI masking is disable
 271:Drivers/CMSIS/Include/cmsis_gcc.h ****            or the new value increases the BASEPRI priority level.
 272:Drivers/CMSIS/Include/cmsis_gcc.h ****   \param [in]    basePri  Base Priority value to set
 273:Drivers/CMSIS/Include/cmsis_gcc.h ****  */
 274:Drivers/CMSIS/Include/cmsis_gcc.h **** __attribute__( ( always_inline ) ) __STATIC_INLINE void __set_BASEPRI_MAX(uint32_t value)
 275:Drivers/CMSIS/Include/cmsis_gcc.h **** {
 276:Drivers/CMSIS/Include/cmsis_gcc.h ****   __ASM volatile ("MSR basepri_max, %0" : : "r" (value) : "memory");
 277:Drivers/CMSIS/Include/cmsis_gcc.h **** }
 278:Drivers/CMSIS/Include/cmsis_gcc.h **** 
 279:Drivers/CMSIS/Include/cmsis_gcc.h **** 
 280:Drivers/CMSIS/Include/cmsis_gcc.h **** /**
 281:Drivers/CMSIS/Include/cmsis_gcc.h ****   \brief   Get Fault Mask
 282:Drivers/CMSIS/Include/cmsis_gcc.h ****   \details Returns the current value of the Fault Mask register.
 283:Drivers/CMSIS/Include/cmsis_gcc.h ****   \return               Fault Mask register value
 284:Drivers/CMSIS/Include/cmsis_gcc.h ****  */
 285:Drivers/CMSIS/Include/cmsis_gcc.h **** __attribute__( ( always_inline ) ) __STATIC_INLINE uint32_t __get_FAULTMASK(void)
 286:Drivers/CMSIS/Include/cmsis_gcc.h **** {
 287:Drivers/CMSIS/Include/cmsis_gcc.h ****   uint32_t result;
 288:Drivers/CMSIS/Include/cmsis_gcc.h **** 
 289:Drivers/CMSIS/Include/cmsis_gcc.h ****   __ASM volatile ("MRS %0, faultmask" : "=r" (result) );
 290:Drivers/CMSIS/Include/cmsis_gcc.h ****   return(result);
 291:Drivers/CMSIS/Include/cmsis_gcc.h **** }
 292:Drivers/CMSIS/Include/cmsis_gcc.h **** 
 293:Drivers/CMSIS/Include/cmsis_gcc.h **** 
 294:Drivers/CMSIS/Include/cmsis_gcc.h **** /**
 295:Drivers/CMSIS/Include/cmsis_gcc.h ****   \brief   Set Fault Mask
 296:Drivers/CMSIS/Include/cmsis_gcc.h ****   \details Assigns the given value to the Fault Mask register.
 297:Drivers/CMSIS/Include/cmsis_gcc.h ****   \param [in]    faultMask  Fault Mask value to set
 298:Drivers/CMSIS/Include/cmsis_gcc.h ****  */
 299:Drivers/CMSIS/Include/cmsis_gcc.h **** __attribute__( ( always_inline ) ) __STATIC_INLINE void __set_FAULTMASK(uint32_t faultMask)
 300:Drivers/CMSIS/Include/cmsis_gcc.h **** {
 301:Drivers/CMSIS/Include/cmsis_gcc.h ****   __ASM volatile ("MSR faultmask, %0" : : "r" (faultMask) : "memory");
 302:Drivers/CMSIS/Include/cmsis_gcc.h **** }
 303:Drivers/CMSIS/Include/cmsis_gcc.h **** 
ARM GAS  /tmp/ccoHk3kV.s 			page 23


 304:Drivers/CMSIS/Include/cmsis_gcc.h **** #endif /* (__CORTEX_M >= 0x03U) */
 305:Drivers/CMSIS/Include/cmsis_gcc.h **** 
 306:Drivers/CMSIS/Include/cmsis_gcc.h **** 
 307:Drivers/CMSIS/Include/cmsis_gcc.h **** #if       (__CORTEX_M == 0x04U) || (__CORTEX_M == 0x07U)
 308:Drivers/CMSIS/Include/cmsis_gcc.h **** 
 309:Drivers/CMSIS/Include/cmsis_gcc.h **** /**
 310:Drivers/CMSIS/Include/cmsis_gcc.h ****   \brief   Get FPSCR
 311:Drivers/CMSIS/Include/cmsis_gcc.h ****   \details Returns the current value of the Floating Point Status/Control register.
 312:Drivers/CMSIS/Include/cmsis_gcc.h ****   \return               Floating Point Status/Control register value
 313:Drivers/CMSIS/Include/cmsis_gcc.h ****  */
 314:Drivers/CMSIS/Include/cmsis_gcc.h **** __attribute__( ( always_inline ) ) __STATIC_INLINE uint32_t __get_FPSCR(void)
 315:Drivers/CMSIS/Include/cmsis_gcc.h **** {
 316:Drivers/CMSIS/Include/cmsis_gcc.h **** #if (__FPU_PRESENT == 1U) && (__FPU_USED == 1U)
 317:Drivers/CMSIS/Include/cmsis_gcc.h ****   uint32_t result;
 318:Drivers/CMSIS/Include/cmsis_gcc.h **** 
 319:Drivers/CMSIS/Include/cmsis_gcc.h ****   /* Empty asm statement works as a scheduling barrier */
 320:Drivers/CMSIS/Include/cmsis_gcc.h ****   __ASM volatile ("");
 321:Drivers/CMSIS/Include/cmsis_gcc.h ****   __ASM volatile ("VMRS %0, fpscr" : "=r" (result) );
 322:Drivers/CMSIS/Include/cmsis_gcc.h ****   __ASM volatile ("");
 323:Drivers/CMSIS/Include/cmsis_gcc.h ****   return(result);
 324:Drivers/CMSIS/Include/cmsis_gcc.h **** #else
 325:Drivers/CMSIS/Include/cmsis_gcc.h ****    return(0);
 326:Drivers/CMSIS/Include/cmsis_gcc.h **** #endif
 327:Drivers/CMSIS/Include/cmsis_gcc.h **** }
 328:Drivers/CMSIS/Include/cmsis_gcc.h **** 
 329:Drivers/CMSIS/Include/cmsis_gcc.h **** 
 330:Drivers/CMSIS/Include/cmsis_gcc.h **** /**
 331:Drivers/CMSIS/Include/cmsis_gcc.h ****   \brief   Set FPSCR
 332:Drivers/CMSIS/Include/cmsis_gcc.h ****   \details Assigns the given value to the Floating Point Status/Control register.
 333:Drivers/CMSIS/Include/cmsis_gcc.h ****   \param [in]    fpscr  Floating Point Status/Control value to set
 334:Drivers/CMSIS/Include/cmsis_gcc.h ****  */
 335:Drivers/CMSIS/Include/cmsis_gcc.h **** __attribute__( ( always_inline ) ) __STATIC_INLINE void __set_FPSCR(uint32_t fpscr)
 336:Drivers/CMSIS/Include/cmsis_gcc.h **** {
 337:Drivers/CMSIS/Include/cmsis_gcc.h **** #if (__FPU_PRESENT == 1U) && (__FPU_USED == 1U)
 338:Drivers/CMSIS/Include/cmsis_gcc.h ****   /* Empty asm statement works as a scheduling barrier */
 339:Drivers/CMSIS/Include/cmsis_gcc.h ****   __ASM volatile ("");
 340:Drivers/CMSIS/Include/cmsis_gcc.h ****   __ASM volatile ("VMSR fpscr, %0" : : "r" (fpscr) : "vfpcc");
 341:Drivers/CMSIS/Include/cmsis_gcc.h ****   __ASM volatile ("");
 342:Drivers/CMSIS/Include/cmsis_gcc.h **** #endif
 343:Drivers/CMSIS/Include/cmsis_gcc.h **** }
 344:Drivers/CMSIS/Include/cmsis_gcc.h **** 
 345:Drivers/CMSIS/Include/cmsis_gcc.h **** #endif /* (__CORTEX_M == 0x04U) || (__CORTEX_M == 0x07U) */
 346:Drivers/CMSIS/Include/cmsis_gcc.h **** 
 347:Drivers/CMSIS/Include/cmsis_gcc.h **** 
 348:Drivers/CMSIS/Include/cmsis_gcc.h **** 
 349:Drivers/CMSIS/Include/cmsis_gcc.h **** /*@} end of CMSIS_Core_RegAccFunctions */
 350:Drivers/CMSIS/Include/cmsis_gcc.h **** 
 351:Drivers/CMSIS/Include/cmsis_gcc.h **** 
 352:Drivers/CMSIS/Include/cmsis_gcc.h **** /* ##########################  Core Instruction Access  ######################### */
 353:Drivers/CMSIS/Include/cmsis_gcc.h **** /** \defgroup CMSIS_Core_InstructionInterface CMSIS Core Instruction Interface
 354:Drivers/CMSIS/Include/cmsis_gcc.h ****   Access to dedicated instructions
 355:Drivers/CMSIS/Include/cmsis_gcc.h ****   @{
 356:Drivers/CMSIS/Include/cmsis_gcc.h **** */
 357:Drivers/CMSIS/Include/cmsis_gcc.h **** 
 358:Drivers/CMSIS/Include/cmsis_gcc.h **** /* Define macros for porting to both thumb1 and thumb2.
 359:Drivers/CMSIS/Include/cmsis_gcc.h ****  * For thumb1, use low register (r0-r7), specified by constraint "l"
 360:Drivers/CMSIS/Include/cmsis_gcc.h ****  * Otherwise, use general registers, specified by constraint "r" */
ARM GAS  /tmp/ccoHk3kV.s 			page 24


 361:Drivers/CMSIS/Include/cmsis_gcc.h **** #if defined (__thumb__) && !defined (__thumb2__)
 362:Drivers/CMSIS/Include/cmsis_gcc.h **** #define __CMSIS_GCC_OUT_REG(r) "=l" (r)
 363:Drivers/CMSIS/Include/cmsis_gcc.h **** #define __CMSIS_GCC_USE_REG(r) "l" (r)
 364:Drivers/CMSIS/Include/cmsis_gcc.h **** #else
 365:Drivers/CMSIS/Include/cmsis_gcc.h **** #define __CMSIS_GCC_OUT_REG(r) "=r" (r)
 366:Drivers/CMSIS/Include/cmsis_gcc.h **** #define __CMSIS_GCC_USE_REG(r) "r" (r)
 367:Drivers/CMSIS/Include/cmsis_gcc.h **** #endif
 368:Drivers/CMSIS/Include/cmsis_gcc.h **** 
 369:Drivers/CMSIS/Include/cmsis_gcc.h **** /**
 370:Drivers/CMSIS/Include/cmsis_gcc.h ****   \brief   No Operation
 371:Drivers/CMSIS/Include/cmsis_gcc.h ****   \details No Operation does nothing. This instruction can be used for code alignment purposes.
 372:Drivers/CMSIS/Include/cmsis_gcc.h ****  */
 373:Drivers/CMSIS/Include/cmsis_gcc.h **** __attribute__((always_inline)) __STATIC_INLINE void __NOP(void)
 374:Drivers/CMSIS/Include/cmsis_gcc.h **** {
 375:Drivers/CMSIS/Include/cmsis_gcc.h ****   __ASM volatile ("nop");
 376:Drivers/CMSIS/Include/cmsis_gcc.h **** }
 377:Drivers/CMSIS/Include/cmsis_gcc.h **** 
 378:Drivers/CMSIS/Include/cmsis_gcc.h **** 
 379:Drivers/CMSIS/Include/cmsis_gcc.h **** /**
 380:Drivers/CMSIS/Include/cmsis_gcc.h ****   \brief   Wait For Interrupt
 381:Drivers/CMSIS/Include/cmsis_gcc.h ****   \details Wait For Interrupt is a hint instruction that suspends execution until one of a number o
 382:Drivers/CMSIS/Include/cmsis_gcc.h ****  */
 383:Drivers/CMSIS/Include/cmsis_gcc.h **** __attribute__((always_inline)) __STATIC_INLINE void __WFI(void)
 384:Drivers/CMSIS/Include/cmsis_gcc.h **** {
 385:Drivers/CMSIS/Include/cmsis_gcc.h ****   __ASM volatile ("wfi");
 386:Drivers/CMSIS/Include/cmsis_gcc.h **** }
 387:Drivers/CMSIS/Include/cmsis_gcc.h **** 
 388:Drivers/CMSIS/Include/cmsis_gcc.h **** 
 389:Drivers/CMSIS/Include/cmsis_gcc.h **** /**
 390:Drivers/CMSIS/Include/cmsis_gcc.h ****   \brief   Wait For Event
 391:Drivers/CMSIS/Include/cmsis_gcc.h ****   \details Wait For Event is a hint instruction that permits the processor to enter
 392:Drivers/CMSIS/Include/cmsis_gcc.h ****     a low-power state until one of a number of events occurs.
 393:Drivers/CMSIS/Include/cmsis_gcc.h ****  */
 394:Drivers/CMSIS/Include/cmsis_gcc.h **** __attribute__((always_inline)) __STATIC_INLINE void __WFE(void)
 395:Drivers/CMSIS/Include/cmsis_gcc.h **** {
 396:Drivers/CMSIS/Include/cmsis_gcc.h ****   __ASM volatile ("wfe");
 397:Drivers/CMSIS/Include/cmsis_gcc.h **** }
 398:Drivers/CMSIS/Include/cmsis_gcc.h **** 
 399:Drivers/CMSIS/Include/cmsis_gcc.h **** 
 400:Drivers/CMSIS/Include/cmsis_gcc.h **** /**
 401:Drivers/CMSIS/Include/cmsis_gcc.h ****   \brief   Send Event
 402:Drivers/CMSIS/Include/cmsis_gcc.h ****   \details Send Event is a hint instruction. It causes an event to be signaled to the CPU.
 403:Drivers/CMSIS/Include/cmsis_gcc.h ****  */
 404:Drivers/CMSIS/Include/cmsis_gcc.h **** __attribute__((always_inline)) __STATIC_INLINE void __SEV(void)
 405:Drivers/CMSIS/Include/cmsis_gcc.h **** {
 406:Drivers/CMSIS/Include/cmsis_gcc.h ****   __ASM volatile ("sev");
 407:Drivers/CMSIS/Include/cmsis_gcc.h **** }
 408:Drivers/CMSIS/Include/cmsis_gcc.h **** 
 409:Drivers/CMSIS/Include/cmsis_gcc.h **** 
 410:Drivers/CMSIS/Include/cmsis_gcc.h **** /**
 411:Drivers/CMSIS/Include/cmsis_gcc.h ****   \brief   Instruction Synchronization Barrier
 412:Drivers/CMSIS/Include/cmsis_gcc.h ****   \details Instruction Synchronization Barrier flushes the pipeline in the processor,
 413:Drivers/CMSIS/Include/cmsis_gcc.h ****            so that all instructions following the ISB are fetched from cache or memory,
 414:Drivers/CMSIS/Include/cmsis_gcc.h ****            after the instruction has been completed.
 415:Drivers/CMSIS/Include/cmsis_gcc.h ****  */
 416:Drivers/CMSIS/Include/cmsis_gcc.h **** __attribute__((always_inline)) __STATIC_INLINE void __ISB(void)
 417:Drivers/CMSIS/Include/cmsis_gcc.h **** {
ARM GAS  /tmp/ccoHk3kV.s 			page 25


 418:Drivers/CMSIS/Include/cmsis_gcc.h ****   __ASM volatile ("isb 0xF":::"memory");
 419:Drivers/CMSIS/Include/cmsis_gcc.h **** }
 420:Drivers/CMSIS/Include/cmsis_gcc.h **** 
 421:Drivers/CMSIS/Include/cmsis_gcc.h **** 
 422:Drivers/CMSIS/Include/cmsis_gcc.h **** /**
 423:Drivers/CMSIS/Include/cmsis_gcc.h ****   \brief   Data Synchronization Barrier
 424:Drivers/CMSIS/Include/cmsis_gcc.h ****   \details Acts as a special kind of Data Memory Barrier.
 425:Drivers/CMSIS/Include/cmsis_gcc.h ****            It completes when all explicit memory accesses before this instruction complete.
 426:Drivers/CMSIS/Include/cmsis_gcc.h ****  */
 427:Drivers/CMSIS/Include/cmsis_gcc.h **** __attribute__((always_inline)) __STATIC_INLINE void __DSB(void)
 428:Drivers/CMSIS/Include/cmsis_gcc.h **** {
 429:Drivers/CMSIS/Include/cmsis_gcc.h ****   __ASM volatile ("dsb 0xF":::"memory");
 430:Drivers/CMSIS/Include/cmsis_gcc.h **** }
 431:Drivers/CMSIS/Include/cmsis_gcc.h **** 
 432:Drivers/CMSIS/Include/cmsis_gcc.h **** 
 433:Drivers/CMSIS/Include/cmsis_gcc.h **** /**
 434:Drivers/CMSIS/Include/cmsis_gcc.h ****   \brief   Data Memory Barrier
 435:Drivers/CMSIS/Include/cmsis_gcc.h ****   \details Ensures the apparent order of the explicit memory operations before
 436:Drivers/CMSIS/Include/cmsis_gcc.h ****            and after the instruction, without ensuring their completion.
 437:Drivers/CMSIS/Include/cmsis_gcc.h ****  */
 438:Drivers/CMSIS/Include/cmsis_gcc.h **** __attribute__((always_inline)) __STATIC_INLINE void __DMB(void)
 439:Drivers/CMSIS/Include/cmsis_gcc.h **** {
 440:Drivers/CMSIS/Include/cmsis_gcc.h ****   __ASM volatile ("dmb 0xF":::"memory");
 441:Drivers/CMSIS/Include/cmsis_gcc.h **** }
 442:Drivers/CMSIS/Include/cmsis_gcc.h **** 
 443:Drivers/CMSIS/Include/cmsis_gcc.h **** 
 444:Drivers/CMSIS/Include/cmsis_gcc.h **** /**
 445:Drivers/CMSIS/Include/cmsis_gcc.h ****   \brief   Reverse byte order (32 bit)
 446:Drivers/CMSIS/Include/cmsis_gcc.h ****   \details Reverses the byte order in integer value.
 447:Drivers/CMSIS/Include/cmsis_gcc.h ****   \param [in]    value  Value to reverse
 448:Drivers/CMSIS/Include/cmsis_gcc.h ****   \return               Reversed value
 449:Drivers/CMSIS/Include/cmsis_gcc.h ****  */
 450:Drivers/CMSIS/Include/cmsis_gcc.h **** __attribute__((always_inline)) __STATIC_INLINE uint32_t __REV(uint32_t value)
 451:Drivers/CMSIS/Include/cmsis_gcc.h **** {
 452:Drivers/CMSIS/Include/cmsis_gcc.h **** #if (__GNUC__ > 4) || (__GNUC__ == 4 && __GNUC_MINOR__ >= 5)
 453:Drivers/CMSIS/Include/cmsis_gcc.h ****   return __builtin_bswap32(value);
 454:Drivers/CMSIS/Include/cmsis_gcc.h **** #else
 455:Drivers/CMSIS/Include/cmsis_gcc.h ****   uint32_t result;
 456:Drivers/CMSIS/Include/cmsis_gcc.h **** 
 457:Drivers/CMSIS/Include/cmsis_gcc.h ****   __ASM volatile ("rev %0, %1" : __CMSIS_GCC_OUT_REG (result) : __CMSIS_GCC_USE_REG (value) );
 458:Drivers/CMSIS/Include/cmsis_gcc.h ****   return(result);
 459:Drivers/CMSIS/Include/cmsis_gcc.h **** #endif
 460:Drivers/CMSIS/Include/cmsis_gcc.h **** }
 461:Drivers/CMSIS/Include/cmsis_gcc.h **** 
 462:Drivers/CMSIS/Include/cmsis_gcc.h **** 
 463:Drivers/CMSIS/Include/cmsis_gcc.h **** /**
 464:Drivers/CMSIS/Include/cmsis_gcc.h ****   \brief   Reverse byte order (16 bit)
 465:Drivers/CMSIS/Include/cmsis_gcc.h ****   \details Reverses the byte order in two unsigned short values.
 466:Drivers/CMSIS/Include/cmsis_gcc.h ****   \param [in]    value  Value to reverse
 467:Drivers/CMSIS/Include/cmsis_gcc.h ****   \return               Reversed value
 468:Drivers/CMSIS/Include/cmsis_gcc.h ****  */
 469:Drivers/CMSIS/Include/cmsis_gcc.h **** __attribute__((always_inline)) __STATIC_INLINE uint32_t __REV16(uint32_t value)
 470:Drivers/CMSIS/Include/cmsis_gcc.h **** {
 471:Drivers/CMSIS/Include/cmsis_gcc.h ****   uint32_t result;
 472:Drivers/CMSIS/Include/cmsis_gcc.h **** 
 473:Drivers/CMSIS/Include/cmsis_gcc.h ****   __ASM volatile ("rev16 %0, %1" : __CMSIS_GCC_OUT_REG (result) : __CMSIS_GCC_USE_REG (value) );
 474:Drivers/CMSIS/Include/cmsis_gcc.h ****   return(result);
ARM GAS  /tmp/ccoHk3kV.s 			page 26


 475:Drivers/CMSIS/Include/cmsis_gcc.h **** }
 476:Drivers/CMSIS/Include/cmsis_gcc.h **** 
 477:Drivers/CMSIS/Include/cmsis_gcc.h **** 
 478:Drivers/CMSIS/Include/cmsis_gcc.h **** /**
 479:Drivers/CMSIS/Include/cmsis_gcc.h ****   \brief   Reverse byte order in signed short value
 480:Drivers/CMSIS/Include/cmsis_gcc.h ****   \details Reverses the byte order in a signed short value with sign extension to integer.
 481:Drivers/CMSIS/Include/cmsis_gcc.h ****   \param [in]    value  Value to reverse
 482:Drivers/CMSIS/Include/cmsis_gcc.h ****   \return               Reversed value
 483:Drivers/CMSIS/Include/cmsis_gcc.h ****  */
 484:Drivers/CMSIS/Include/cmsis_gcc.h **** __attribute__((always_inline)) __STATIC_INLINE int32_t __REVSH(int32_t value)
 485:Drivers/CMSIS/Include/cmsis_gcc.h **** {
 486:Drivers/CMSIS/Include/cmsis_gcc.h **** #if (__GNUC__ > 4) || (__GNUC__ == 4 && __GNUC_MINOR__ >= 8)
 487:Drivers/CMSIS/Include/cmsis_gcc.h ****   return (short)__builtin_bswap16(value);
 488:Drivers/CMSIS/Include/cmsis_gcc.h **** #else
 489:Drivers/CMSIS/Include/cmsis_gcc.h ****   int32_t result;
 490:Drivers/CMSIS/Include/cmsis_gcc.h **** 
 491:Drivers/CMSIS/Include/cmsis_gcc.h ****   __ASM volatile ("revsh %0, %1" : __CMSIS_GCC_OUT_REG (result) : __CMSIS_GCC_USE_REG (value) );
 492:Drivers/CMSIS/Include/cmsis_gcc.h ****   return(result);
 493:Drivers/CMSIS/Include/cmsis_gcc.h **** #endif
 494:Drivers/CMSIS/Include/cmsis_gcc.h **** }
 495:Drivers/CMSIS/Include/cmsis_gcc.h **** 
 496:Drivers/CMSIS/Include/cmsis_gcc.h **** 
 497:Drivers/CMSIS/Include/cmsis_gcc.h **** /**
 498:Drivers/CMSIS/Include/cmsis_gcc.h ****   \brief   Rotate Right in unsigned value (32 bit)
 499:Drivers/CMSIS/Include/cmsis_gcc.h ****   \details Rotate Right (immediate) provides the value of the contents of a register rotated by a v
 500:Drivers/CMSIS/Include/cmsis_gcc.h ****   \param [in]    value  Value to rotate
 501:Drivers/CMSIS/Include/cmsis_gcc.h ****   \param [in]    value  Number of Bits to rotate
 502:Drivers/CMSIS/Include/cmsis_gcc.h ****   \return               Rotated value
 503:Drivers/CMSIS/Include/cmsis_gcc.h ****  */
 504:Drivers/CMSIS/Include/cmsis_gcc.h **** __attribute__((always_inline)) __STATIC_INLINE uint32_t __ROR(uint32_t op1, uint32_t op2)
 505:Drivers/CMSIS/Include/cmsis_gcc.h **** {
 506:Drivers/CMSIS/Include/cmsis_gcc.h ****   return (op1 >> op2) | (op1 << (32U - op2));
 507:Drivers/CMSIS/Include/cmsis_gcc.h **** }
 508:Drivers/CMSIS/Include/cmsis_gcc.h **** 
 509:Drivers/CMSIS/Include/cmsis_gcc.h **** 
 510:Drivers/CMSIS/Include/cmsis_gcc.h **** /**
 511:Drivers/CMSIS/Include/cmsis_gcc.h ****   \brief   Breakpoint
 512:Drivers/CMSIS/Include/cmsis_gcc.h ****   \details Causes the processor to enter Debug state.
 513:Drivers/CMSIS/Include/cmsis_gcc.h ****            Debug tools can use this to investigate system state when the instruction at a particula
 514:Drivers/CMSIS/Include/cmsis_gcc.h ****   \param [in]    value  is ignored by the processor.
 515:Drivers/CMSIS/Include/cmsis_gcc.h ****                  If required, a debugger can use it to store additional information about the break
 516:Drivers/CMSIS/Include/cmsis_gcc.h ****  */
 517:Drivers/CMSIS/Include/cmsis_gcc.h **** #define __BKPT(value)                       __ASM volatile ("bkpt "#value)
 518:Drivers/CMSIS/Include/cmsis_gcc.h **** 
 519:Drivers/CMSIS/Include/cmsis_gcc.h **** 
 520:Drivers/CMSIS/Include/cmsis_gcc.h **** /**
 521:Drivers/CMSIS/Include/cmsis_gcc.h ****   \brief   Reverse bit order of value
 522:Drivers/CMSIS/Include/cmsis_gcc.h ****   \details Reverses the bit order of the given value.
 523:Drivers/CMSIS/Include/cmsis_gcc.h ****   \param [in]    value  Value to reverse
 524:Drivers/CMSIS/Include/cmsis_gcc.h ****   \return               Reversed value
 525:Drivers/CMSIS/Include/cmsis_gcc.h ****  */
 526:Drivers/CMSIS/Include/cmsis_gcc.h **** __attribute__((always_inline)) __STATIC_INLINE uint32_t __RBIT(uint32_t value)
 527:Drivers/CMSIS/Include/cmsis_gcc.h **** {
 528:Drivers/CMSIS/Include/cmsis_gcc.h ****   uint32_t result;
 529:Drivers/CMSIS/Include/cmsis_gcc.h **** 
 530:Drivers/CMSIS/Include/cmsis_gcc.h **** #if       (__CORTEX_M >= 0x03U) || (__CORTEX_SC >= 300U)
 531:Drivers/CMSIS/Include/cmsis_gcc.h ****    __ASM volatile ("rbit %0, %1" : "=r" (result) : "r" (value) );
ARM GAS  /tmp/ccoHk3kV.s 			page 27


 254              		.loc 3 531 0
 255              		.syntax unified
 256              	@ 531 "Drivers/CMSIS/Include/cmsis_gcc.h" 1
 257 0004 92FAA2F2 		rbit r2, r2
 258              	@ 0 "" 2
 259              	.LVL23:
 260              		.thumb
 261              		.syntax unified
 262              	.LBE111:
 263              	.LBE110:
 264              		.loc 1 207 0
 265 0008 B2FA82F2 		clz	r2, r2
 266              	.LVL24:
 208:Drivers/STM32F3xx_HAL_Driver/Src/stm32f3xx_ll_gpio.c **** 
 209:Drivers/STM32F3xx_HAL_Driver/Src/stm32f3xx_ll_gpio.c ****   /* Configure the port pins */
 210:Drivers/STM32F3xx_HAL_Driver/Src/stm32f3xx_ll_gpio.c ****   while (((GPIO_InitStruct->Pin) >> pinpos) != 0x00000000U)
 267              		.loc 1 210 0
 268 000c 18E0     		b	.L18
 269              	.LVL25:
 270              	.L20:
 211:Drivers/STM32F3xx_HAL_Driver/Src/stm32f3xx_ll_gpio.c ****   {
 212:Drivers/STM32F3xx_HAL_Driver/Src/stm32f3xx_ll_gpio.c ****     /* Get current io position */
 213:Drivers/STM32F3xx_HAL_Driver/Src/stm32f3xx_ll_gpio.c ****     currentpin = (GPIO_InitStruct->Pin) & (0x00000001U << pinpos);
 214:Drivers/STM32F3xx_HAL_Driver/Src/stm32f3xx_ll_gpio.c **** 
 215:Drivers/STM32F3xx_HAL_Driver/Src/stm32f3xx_ll_gpio.c ****     if (currentpin)
 216:Drivers/STM32F3xx_HAL_Driver/Src/stm32f3xx_ll_gpio.c ****     {
 217:Drivers/STM32F3xx_HAL_Driver/Src/stm32f3xx_ll_gpio.c ****       /* Pin Mode configuration */
 218:Drivers/STM32F3xx_HAL_Driver/Src/stm32f3xx_ll_gpio.c ****       LL_GPIO_SetPinMode(GPIOx, currentpin, GPIO_InitStruct->Mode);
 219:Drivers/STM32F3xx_HAL_Driver/Src/stm32f3xx_ll_gpio.c **** 
 220:Drivers/STM32F3xx_HAL_Driver/Src/stm32f3xx_ll_gpio.c ****       if ((GPIO_InitStruct->Mode == LL_GPIO_MODE_OUTPUT) || (GPIO_InitStruct->Mode == LL_GPIO_MODE_
 221:Drivers/STM32F3xx_HAL_Driver/Src/stm32f3xx_ll_gpio.c ****       {
 222:Drivers/STM32F3xx_HAL_Driver/Src/stm32f3xx_ll_gpio.c ****         /* Check Speed mode parameters */
 223:Drivers/STM32F3xx_HAL_Driver/Src/stm32f3xx_ll_gpio.c ****         assert_param(IS_LL_GPIO_SPEED(GPIO_InitStruct->Speed));
 224:Drivers/STM32F3xx_HAL_Driver/Src/stm32f3xx_ll_gpio.c **** 
 225:Drivers/STM32F3xx_HAL_Driver/Src/stm32f3xx_ll_gpio.c ****         /* Speed mode configuration */
 226:Drivers/STM32F3xx_HAL_Driver/Src/stm32f3xx_ll_gpio.c ****         LL_GPIO_SetPinSpeed(GPIOx, currentpin, GPIO_InitStruct->Speed);
 227:Drivers/STM32F3xx_HAL_Driver/Src/stm32f3xx_ll_gpio.c ****       }
 228:Drivers/STM32F3xx_HAL_Driver/Src/stm32f3xx_ll_gpio.c **** 
 229:Drivers/STM32F3xx_HAL_Driver/Src/stm32f3xx_ll_gpio.c ****       /* Pull-up Pull down resistor configuration*/
 230:Drivers/STM32F3xx_HAL_Driver/Src/stm32f3xx_ll_gpio.c ****       LL_GPIO_SetPinPull(GPIOx, currentpin, GPIO_InitStruct->Pull);
 271              		.loc 1 230 0
 272 000e 0E69     		ldr	r6, [r1, #16]
 273              	.LVL26:
 274              	.LBB112:
 275              	.LBB113:
 276              		.file 4 "Drivers/STM32F3xx_HAL_Driver/Inc/stm32f3xx_ll_gpio.h"
   1:Drivers/STM32F3xx_HAL_Driver/Inc/stm32f3xx_ll_gpio.h **** /**
   2:Drivers/STM32F3xx_HAL_Driver/Inc/stm32f3xx_ll_gpio.h ****   ******************************************************************************
   3:Drivers/STM32F3xx_HAL_Driver/Inc/stm32f3xx_ll_gpio.h ****   * @file    stm32f3xx_ll_gpio.h
   4:Drivers/STM32F3xx_HAL_Driver/Inc/stm32f3xx_ll_gpio.h ****   * @author  MCD Application Team
   5:Drivers/STM32F3xx_HAL_Driver/Inc/stm32f3xx_ll_gpio.h ****   * @brief   Header file of GPIO LL module.
   6:Drivers/STM32F3xx_HAL_Driver/Inc/stm32f3xx_ll_gpio.h ****   ******************************************************************************
   7:Drivers/STM32F3xx_HAL_Driver/Inc/stm32f3xx_ll_gpio.h ****   * @attention
   8:Drivers/STM32F3xx_HAL_Driver/Inc/stm32f3xx_ll_gpio.h ****   *
   9:Drivers/STM32F3xx_HAL_Driver/Inc/stm32f3xx_ll_gpio.h ****   * <h2><center>&copy; COPYRIGHT(c) 2016 STMicroelectronics</center></h2>
  10:Drivers/STM32F3xx_HAL_Driver/Inc/stm32f3xx_ll_gpio.h ****   *
  11:Drivers/STM32F3xx_HAL_Driver/Inc/stm32f3xx_ll_gpio.h ****   * Redistribution and use in source and binary forms, with or without modification,
ARM GAS  /tmp/ccoHk3kV.s 			page 28


  12:Drivers/STM32F3xx_HAL_Driver/Inc/stm32f3xx_ll_gpio.h ****   * are permitted provided that the following conditions are met:
  13:Drivers/STM32F3xx_HAL_Driver/Inc/stm32f3xx_ll_gpio.h ****   *   1. Redistributions of source code must retain the above copyright notice,
  14:Drivers/STM32F3xx_HAL_Driver/Inc/stm32f3xx_ll_gpio.h ****   *      this list of conditions and the following disclaimer.
  15:Drivers/STM32F3xx_HAL_Driver/Inc/stm32f3xx_ll_gpio.h ****   *   2. Redistributions in binary form must reproduce the above copyright notice,
  16:Drivers/STM32F3xx_HAL_Driver/Inc/stm32f3xx_ll_gpio.h ****   *      this list of conditions and the following disclaimer in the documentation
  17:Drivers/STM32F3xx_HAL_Driver/Inc/stm32f3xx_ll_gpio.h ****   *      and/or other materials provided with the distribution.
  18:Drivers/STM32F3xx_HAL_Driver/Inc/stm32f3xx_ll_gpio.h ****   *   3. Neither the name of STMicroelectronics nor the names of its contributors
  19:Drivers/STM32F3xx_HAL_Driver/Inc/stm32f3xx_ll_gpio.h ****   *      may be used to endorse or promote products derived from this software
  20:Drivers/STM32F3xx_HAL_Driver/Inc/stm32f3xx_ll_gpio.h ****   *      without specific prior written permission.
  21:Drivers/STM32F3xx_HAL_Driver/Inc/stm32f3xx_ll_gpio.h ****   *
  22:Drivers/STM32F3xx_HAL_Driver/Inc/stm32f3xx_ll_gpio.h ****   * THIS SOFTWARE IS PROVIDED BY THE COPYRIGHT HOLDERS AND CONTRIBUTORS "AS IS"
  23:Drivers/STM32F3xx_HAL_Driver/Inc/stm32f3xx_ll_gpio.h ****   * AND ANY EXPRESS OR IMPLIED WARRANTIES, INCLUDING, BUT NOT LIMITED TO, THE
  24:Drivers/STM32F3xx_HAL_Driver/Inc/stm32f3xx_ll_gpio.h ****   * IMPLIED WARRANTIES OF MERCHANTABILITY AND FITNESS FOR A PARTICULAR PURPOSE ARE
  25:Drivers/STM32F3xx_HAL_Driver/Inc/stm32f3xx_ll_gpio.h ****   * DISCLAIMED. IN NO EVENT SHALL THE COPYRIGHT HOLDER OR CONTRIBUTORS BE LIABLE
  26:Drivers/STM32F3xx_HAL_Driver/Inc/stm32f3xx_ll_gpio.h ****   * FOR ANY DIRECT, INDIRECT, INCIDENTAL, SPECIAL, EXEMPLARY, OR CONSEQUENTIAL
  27:Drivers/STM32F3xx_HAL_Driver/Inc/stm32f3xx_ll_gpio.h ****   * DAMAGES (INCLUDING, BUT NOT LIMITED TO, PROCUREMENT OF SUBSTITUTE GOODS OR
  28:Drivers/STM32F3xx_HAL_Driver/Inc/stm32f3xx_ll_gpio.h ****   * SERVICES; LOSS OF USE, DATA, OR PROFITS; OR BUSINESS INTERRUPTION) HOWEVER
  29:Drivers/STM32F3xx_HAL_Driver/Inc/stm32f3xx_ll_gpio.h ****   * CAUSED AND ON ANY THEORY OF LIABILITY, WHETHER IN CONTRACT, STRICT LIABILITY,
  30:Drivers/STM32F3xx_HAL_Driver/Inc/stm32f3xx_ll_gpio.h ****   * OR TORT (INCLUDING NEGLIGENCE OR OTHERWISE) ARISING IN ANY WAY OUT OF THE USE
  31:Drivers/STM32F3xx_HAL_Driver/Inc/stm32f3xx_ll_gpio.h ****   * OF THIS SOFTWARE, EVEN IF ADVISED OF THE POSSIBILITY OF SUCH DAMAGE.
  32:Drivers/STM32F3xx_HAL_Driver/Inc/stm32f3xx_ll_gpio.h ****   *
  33:Drivers/STM32F3xx_HAL_Driver/Inc/stm32f3xx_ll_gpio.h ****   ******************************************************************************
  34:Drivers/STM32F3xx_HAL_Driver/Inc/stm32f3xx_ll_gpio.h ****   */
  35:Drivers/STM32F3xx_HAL_Driver/Inc/stm32f3xx_ll_gpio.h **** 
  36:Drivers/STM32F3xx_HAL_Driver/Inc/stm32f3xx_ll_gpio.h **** /* Define to prevent recursive inclusion -------------------------------------*/
  37:Drivers/STM32F3xx_HAL_Driver/Inc/stm32f3xx_ll_gpio.h **** #ifndef __STM32F3xx_LL_GPIO_H
  38:Drivers/STM32F3xx_HAL_Driver/Inc/stm32f3xx_ll_gpio.h **** #define __STM32F3xx_LL_GPIO_H
  39:Drivers/STM32F3xx_HAL_Driver/Inc/stm32f3xx_ll_gpio.h **** 
  40:Drivers/STM32F3xx_HAL_Driver/Inc/stm32f3xx_ll_gpio.h **** #ifdef __cplusplus
  41:Drivers/STM32F3xx_HAL_Driver/Inc/stm32f3xx_ll_gpio.h **** extern "C" {
  42:Drivers/STM32F3xx_HAL_Driver/Inc/stm32f3xx_ll_gpio.h **** #endif
  43:Drivers/STM32F3xx_HAL_Driver/Inc/stm32f3xx_ll_gpio.h **** 
  44:Drivers/STM32F3xx_HAL_Driver/Inc/stm32f3xx_ll_gpio.h **** /* Includes ------------------------------------------------------------------*/
  45:Drivers/STM32F3xx_HAL_Driver/Inc/stm32f3xx_ll_gpio.h **** #include "stm32f3xx.h"
  46:Drivers/STM32F3xx_HAL_Driver/Inc/stm32f3xx_ll_gpio.h **** 
  47:Drivers/STM32F3xx_HAL_Driver/Inc/stm32f3xx_ll_gpio.h **** /** @addtogroup STM32F3xx_LL_Driver
  48:Drivers/STM32F3xx_HAL_Driver/Inc/stm32f3xx_ll_gpio.h ****   * @{
  49:Drivers/STM32F3xx_HAL_Driver/Inc/stm32f3xx_ll_gpio.h ****   */
  50:Drivers/STM32F3xx_HAL_Driver/Inc/stm32f3xx_ll_gpio.h **** 
  51:Drivers/STM32F3xx_HAL_Driver/Inc/stm32f3xx_ll_gpio.h **** #if defined (GPIOA) || defined (GPIOB) || defined (GPIOC) || defined (GPIOD) || defined (GPIOE) || 
  52:Drivers/STM32F3xx_HAL_Driver/Inc/stm32f3xx_ll_gpio.h **** 
  53:Drivers/STM32F3xx_HAL_Driver/Inc/stm32f3xx_ll_gpio.h **** /** @defgroup GPIO_LL GPIO
  54:Drivers/STM32F3xx_HAL_Driver/Inc/stm32f3xx_ll_gpio.h ****   * @{
  55:Drivers/STM32F3xx_HAL_Driver/Inc/stm32f3xx_ll_gpio.h ****   */
  56:Drivers/STM32F3xx_HAL_Driver/Inc/stm32f3xx_ll_gpio.h **** 
  57:Drivers/STM32F3xx_HAL_Driver/Inc/stm32f3xx_ll_gpio.h **** /* Private types -------------------------------------------------------------*/
  58:Drivers/STM32F3xx_HAL_Driver/Inc/stm32f3xx_ll_gpio.h **** /* Private variables ---------------------------------------------------------*/
  59:Drivers/STM32F3xx_HAL_Driver/Inc/stm32f3xx_ll_gpio.h **** /* Private constants ---------------------------------------------------------*/
  60:Drivers/STM32F3xx_HAL_Driver/Inc/stm32f3xx_ll_gpio.h **** /* Private macros ------------------------------------------------------------*/
  61:Drivers/STM32F3xx_HAL_Driver/Inc/stm32f3xx_ll_gpio.h **** #if defined(USE_FULL_LL_DRIVER)
  62:Drivers/STM32F3xx_HAL_Driver/Inc/stm32f3xx_ll_gpio.h **** /** @defgroup GPIO_LL_Private_Macros GPIO Private Macros
  63:Drivers/STM32F3xx_HAL_Driver/Inc/stm32f3xx_ll_gpio.h ****   * @{
  64:Drivers/STM32F3xx_HAL_Driver/Inc/stm32f3xx_ll_gpio.h ****   */
  65:Drivers/STM32F3xx_HAL_Driver/Inc/stm32f3xx_ll_gpio.h **** 
  66:Drivers/STM32F3xx_HAL_Driver/Inc/stm32f3xx_ll_gpio.h **** /**
  67:Drivers/STM32F3xx_HAL_Driver/Inc/stm32f3xx_ll_gpio.h ****   * @}
  68:Drivers/STM32F3xx_HAL_Driver/Inc/stm32f3xx_ll_gpio.h ****   */
ARM GAS  /tmp/ccoHk3kV.s 			page 29


  69:Drivers/STM32F3xx_HAL_Driver/Inc/stm32f3xx_ll_gpio.h **** #endif /*USE_FULL_LL_DRIVER*/
  70:Drivers/STM32F3xx_HAL_Driver/Inc/stm32f3xx_ll_gpio.h **** 
  71:Drivers/STM32F3xx_HAL_Driver/Inc/stm32f3xx_ll_gpio.h **** /* Exported types ------------------------------------------------------------*/
  72:Drivers/STM32F3xx_HAL_Driver/Inc/stm32f3xx_ll_gpio.h **** #if defined(USE_FULL_LL_DRIVER)
  73:Drivers/STM32F3xx_HAL_Driver/Inc/stm32f3xx_ll_gpio.h **** /** @defgroup GPIO_LL_ES_INIT GPIO Exported Init structures
  74:Drivers/STM32F3xx_HAL_Driver/Inc/stm32f3xx_ll_gpio.h ****   * @{
  75:Drivers/STM32F3xx_HAL_Driver/Inc/stm32f3xx_ll_gpio.h ****   */
  76:Drivers/STM32F3xx_HAL_Driver/Inc/stm32f3xx_ll_gpio.h **** 
  77:Drivers/STM32F3xx_HAL_Driver/Inc/stm32f3xx_ll_gpio.h **** /**
  78:Drivers/STM32F3xx_HAL_Driver/Inc/stm32f3xx_ll_gpio.h ****   * @brief LL GPIO Init Structure definition
  79:Drivers/STM32F3xx_HAL_Driver/Inc/stm32f3xx_ll_gpio.h ****   */
  80:Drivers/STM32F3xx_HAL_Driver/Inc/stm32f3xx_ll_gpio.h **** typedef struct
  81:Drivers/STM32F3xx_HAL_Driver/Inc/stm32f3xx_ll_gpio.h **** {
  82:Drivers/STM32F3xx_HAL_Driver/Inc/stm32f3xx_ll_gpio.h ****   uint32_t Pin;          /*!< Specifies the GPIO pins to be configured.
  83:Drivers/STM32F3xx_HAL_Driver/Inc/stm32f3xx_ll_gpio.h ****                               This parameter can be any value of @ref GPIO_LL_EC_PIN */
  84:Drivers/STM32F3xx_HAL_Driver/Inc/stm32f3xx_ll_gpio.h **** 
  85:Drivers/STM32F3xx_HAL_Driver/Inc/stm32f3xx_ll_gpio.h ****   uint32_t Mode;         /*!< Specifies the operating mode for the selected pins.
  86:Drivers/STM32F3xx_HAL_Driver/Inc/stm32f3xx_ll_gpio.h ****                               This parameter can be a value of @ref GPIO_LL_EC_MODE.
  87:Drivers/STM32F3xx_HAL_Driver/Inc/stm32f3xx_ll_gpio.h **** 
  88:Drivers/STM32F3xx_HAL_Driver/Inc/stm32f3xx_ll_gpio.h ****                               GPIO HW configuration can be modified afterwards using unitary functi
  89:Drivers/STM32F3xx_HAL_Driver/Inc/stm32f3xx_ll_gpio.h **** 
  90:Drivers/STM32F3xx_HAL_Driver/Inc/stm32f3xx_ll_gpio.h ****   uint32_t Speed;        /*!< Specifies the speed for the selected pins.
  91:Drivers/STM32F3xx_HAL_Driver/Inc/stm32f3xx_ll_gpio.h ****                               This parameter can be a value of @ref GPIO_LL_EC_SPEED.
  92:Drivers/STM32F3xx_HAL_Driver/Inc/stm32f3xx_ll_gpio.h **** 
  93:Drivers/STM32F3xx_HAL_Driver/Inc/stm32f3xx_ll_gpio.h ****                               GPIO HW configuration can be modified afterwards using unitary functi
  94:Drivers/STM32F3xx_HAL_Driver/Inc/stm32f3xx_ll_gpio.h **** 
  95:Drivers/STM32F3xx_HAL_Driver/Inc/stm32f3xx_ll_gpio.h ****   uint32_t OutputType;   /*!< Specifies the operating output type for the selected pins.
  96:Drivers/STM32F3xx_HAL_Driver/Inc/stm32f3xx_ll_gpio.h ****                               This parameter can be a value of @ref GPIO_LL_EC_OUTPUT.
  97:Drivers/STM32F3xx_HAL_Driver/Inc/stm32f3xx_ll_gpio.h **** 
  98:Drivers/STM32F3xx_HAL_Driver/Inc/stm32f3xx_ll_gpio.h ****                               GPIO HW configuration can be modified afterwards using unitary functi
  99:Drivers/STM32F3xx_HAL_Driver/Inc/stm32f3xx_ll_gpio.h **** 
 100:Drivers/STM32F3xx_HAL_Driver/Inc/stm32f3xx_ll_gpio.h ****   uint32_t Pull;         /*!< Specifies the operating Pull-up/Pull down for the selected pins.
 101:Drivers/STM32F3xx_HAL_Driver/Inc/stm32f3xx_ll_gpio.h ****                               This parameter can be a value of @ref GPIO_LL_EC_PULL.
 102:Drivers/STM32F3xx_HAL_Driver/Inc/stm32f3xx_ll_gpio.h **** 
 103:Drivers/STM32F3xx_HAL_Driver/Inc/stm32f3xx_ll_gpio.h ****                               GPIO HW configuration can be modified afterwards using unitary functi
 104:Drivers/STM32F3xx_HAL_Driver/Inc/stm32f3xx_ll_gpio.h **** 
 105:Drivers/STM32F3xx_HAL_Driver/Inc/stm32f3xx_ll_gpio.h ****   uint32_t Alternate;    /*!< Specifies the Peripheral to be connected to the selected pins.
 106:Drivers/STM32F3xx_HAL_Driver/Inc/stm32f3xx_ll_gpio.h ****                               This parameter can be a value of @ref GPIO_LL_EC_AF.
 107:Drivers/STM32F3xx_HAL_Driver/Inc/stm32f3xx_ll_gpio.h **** 
 108:Drivers/STM32F3xx_HAL_Driver/Inc/stm32f3xx_ll_gpio.h ****                               GPIO HW configuration can be modified afterwards using unitary functi
 109:Drivers/STM32F3xx_HAL_Driver/Inc/stm32f3xx_ll_gpio.h **** } LL_GPIO_InitTypeDef;
 110:Drivers/STM32F3xx_HAL_Driver/Inc/stm32f3xx_ll_gpio.h **** 
 111:Drivers/STM32F3xx_HAL_Driver/Inc/stm32f3xx_ll_gpio.h **** /**
 112:Drivers/STM32F3xx_HAL_Driver/Inc/stm32f3xx_ll_gpio.h ****   * @}
 113:Drivers/STM32F3xx_HAL_Driver/Inc/stm32f3xx_ll_gpio.h ****   */
 114:Drivers/STM32F3xx_HAL_Driver/Inc/stm32f3xx_ll_gpio.h **** #endif /* USE_FULL_LL_DRIVER */
 115:Drivers/STM32F3xx_HAL_Driver/Inc/stm32f3xx_ll_gpio.h **** 
 116:Drivers/STM32F3xx_HAL_Driver/Inc/stm32f3xx_ll_gpio.h **** /* Exported constants --------------------------------------------------------*/
 117:Drivers/STM32F3xx_HAL_Driver/Inc/stm32f3xx_ll_gpio.h **** /** @defgroup GPIO_LL_Exported_Constants GPIO Exported Constants
 118:Drivers/STM32F3xx_HAL_Driver/Inc/stm32f3xx_ll_gpio.h ****   * @{
 119:Drivers/STM32F3xx_HAL_Driver/Inc/stm32f3xx_ll_gpio.h ****   */
 120:Drivers/STM32F3xx_HAL_Driver/Inc/stm32f3xx_ll_gpio.h **** 
 121:Drivers/STM32F3xx_HAL_Driver/Inc/stm32f3xx_ll_gpio.h **** /** @defgroup GPIO_LL_EC_PIN PIN
 122:Drivers/STM32F3xx_HAL_Driver/Inc/stm32f3xx_ll_gpio.h ****   * @{
 123:Drivers/STM32F3xx_HAL_Driver/Inc/stm32f3xx_ll_gpio.h ****   */
 124:Drivers/STM32F3xx_HAL_Driver/Inc/stm32f3xx_ll_gpio.h **** #define LL_GPIO_PIN_0                      GPIO_BSRR_BS_0 /*!< Select pin 0 */
 125:Drivers/STM32F3xx_HAL_Driver/Inc/stm32f3xx_ll_gpio.h **** #define LL_GPIO_PIN_1                      GPIO_BSRR_BS_1 /*!< Select pin 1 */
ARM GAS  /tmp/ccoHk3kV.s 			page 30


 126:Drivers/STM32F3xx_HAL_Driver/Inc/stm32f3xx_ll_gpio.h **** #define LL_GPIO_PIN_2                      GPIO_BSRR_BS_2 /*!< Select pin 2 */
 127:Drivers/STM32F3xx_HAL_Driver/Inc/stm32f3xx_ll_gpio.h **** #define LL_GPIO_PIN_3                      GPIO_BSRR_BS_3 /*!< Select pin 3 */
 128:Drivers/STM32F3xx_HAL_Driver/Inc/stm32f3xx_ll_gpio.h **** #define LL_GPIO_PIN_4                      GPIO_BSRR_BS_4 /*!< Select pin 4 */
 129:Drivers/STM32F3xx_HAL_Driver/Inc/stm32f3xx_ll_gpio.h **** #define LL_GPIO_PIN_5                      GPIO_BSRR_BS_5 /*!< Select pin 5 */
 130:Drivers/STM32F3xx_HAL_Driver/Inc/stm32f3xx_ll_gpio.h **** #define LL_GPIO_PIN_6                      GPIO_BSRR_BS_6 /*!< Select pin 6 */
 131:Drivers/STM32F3xx_HAL_Driver/Inc/stm32f3xx_ll_gpio.h **** #define LL_GPIO_PIN_7                      GPIO_BSRR_BS_7 /*!< Select pin 7 */
 132:Drivers/STM32F3xx_HAL_Driver/Inc/stm32f3xx_ll_gpio.h **** #define LL_GPIO_PIN_8                      GPIO_BSRR_BS_8 /*!< Select pin 8 */
 133:Drivers/STM32F3xx_HAL_Driver/Inc/stm32f3xx_ll_gpio.h **** #define LL_GPIO_PIN_9                      GPIO_BSRR_BS_9 /*!< Select pin 9 */
 134:Drivers/STM32F3xx_HAL_Driver/Inc/stm32f3xx_ll_gpio.h **** #define LL_GPIO_PIN_10                     GPIO_BSRR_BS_10 /*!< Select pin 10 */
 135:Drivers/STM32F3xx_HAL_Driver/Inc/stm32f3xx_ll_gpio.h **** #define LL_GPIO_PIN_11                     GPIO_BSRR_BS_11 /*!< Select pin 11 */
 136:Drivers/STM32F3xx_HAL_Driver/Inc/stm32f3xx_ll_gpio.h **** #define LL_GPIO_PIN_12                     GPIO_BSRR_BS_12 /*!< Select pin 12 */
 137:Drivers/STM32F3xx_HAL_Driver/Inc/stm32f3xx_ll_gpio.h **** #define LL_GPIO_PIN_13                     GPIO_BSRR_BS_13 /*!< Select pin 13 */
 138:Drivers/STM32F3xx_HAL_Driver/Inc/stm32f3xx_ll_gpio.h **** #define LL_GPIO_PIN_14                     GPIO_BSRR_BS_14 /*!< Select pin 14 */
 139:Drivers/STM32F3xx_HAL_Driver/Inc/stm32f3xx_ll_gpio.h **** #define LL_GPIO_PIN_15                     GPIO_BSRR_BS_15 /*!< Select pin 15 */
 140:Drivers/STM32F3xx_HAL_Driver/Inc/stm32f3xx_ll_gpio.h **** #define LL_GPIO_PIN_ALL                    (GPIO_BSRR_BS_0 | GPIO_BSRR_BS_1  | GPIO_BSRR_BS_2  | \
 141:Drivers/STM32F3xx_HAL_Driver/Inc/stm32f3xx_ll_gpio.h ****                                            GPIO_BSRR_BS_3  | GPIO_BSRR_BS_4  | GPIO_BSRR_BS_5  | \
 142:Drivers/STM32F3xx_HAL_Driver/Inc/stm32f3xx_ll_gpio.h ****                                            GPIO_BSRR_BS_6  | GPIO_BSRR_BS_7  | GPIO_BSRR_BS_8  | \
 143:Drivers/STM32F3xx_HAL_Driver/Inc/stm32f3xx_ll_gpio.h ****                                            GPIO_BSRR_BS_9  | GPIO_BSRR_BS_10 | GPIO_BSRR_BS_11 | \
 144:Drivers/STM32F3xx_HAL_Driver/Inc/stm32f3xx_ll_gpio.h ****                                            GPIO_BSRR_BS_12 | GPIO_BSRR_BS_13 | GPIO_BSRR_BS_14 | \
 145:Drivers/STM32F3xx_HAL_Driver/Inc/stm32f3xx_ll_gpio.h ****                                            GPIO_BSRR_BS_15) /*!< Select all pins */
 146:Drivers/STM32F3xx_HAL_Driver/Inc/stm32f3xx_ll_gpio.h **** /**
 147:Drivers/STM32F3xx_HAL_Driver/Inc/stm32f3xx_ll_gpio.h ****   * @}
 148:Drivers/STM32F3xx_HAL_Driver/Inc/stm32f3xx_ll_gpio.h ****   */
 149:Drivers/STM32F3xx_HAL_Driver/Inc/stm32f3xx_ll_gpio.h **** 
 150:Drivers/STM32F3xx_HAL_Driver/Inc/stm32f3xx_ll_gpio.h **** /** @defgroup GPIO_LL_EC_MODE Mode
 151:Drivers/STM32F3xx_HAL_Driver/Inc/stm32f3xx_ll_gpio.h ****   * @{
 152:Drivers/STM32F3xx_HAL_Driver/Inc/stm32f3xx_ll_gpio.h ****   */
 153:Drivers/STM32F3xx_HAL_Driver/Inc/stm32f3xx_ll_gpio.h **** #define LL_GPIO_MODE_INPUT                 (0x00000000U) /*!< Select input mode */
 154:Drivers/STM32F3xx_HAL_Driver/Inc/stm32f3xx_ll_gpio.h **** #define LL_GPIO_MODE_OUTPUT                GPIO_MODER_MODER0_0  /*!< Select output mode */
 155:Drivers/STM32F3xx_HAL_Driver/Inc/stm32f3xx_ll_gpio.h **** #define LL_GPIO_MODE_ALTERNATE             GPIO_MODER_MODER0_1  /*!< Select alternate function mode
 156:Drivers/STM32F3xx_HAL_Driver/Inc/stm32f3xx_ll_gpio.h **** #define LL_GPIO_MODE_ANALOG                GPIO_MODER_MODER0    /*!< Select analog mode */
 157:Drivers/STM32F3xx_HAL_Driver/Inc/stm32f3xx_ll_gpio.h **** /**
 158:Drivers/STM32F3xx_HAL_Driver/Inc/stm32f3xx_ll_gpio.h ****   * @}
 159:Drivers/STM32F3xx_HAL_Driver/Inc/stm32f3xx_ll_gpio.h ****   */
 160:Drivers/STM32F3xx_HAL_Driver/Inc/stm32f3xx_ll_gpio.h **** 
 161:Drivers/STM32F3xx_HAL_Driver/Inc/stm32f3xx_ll_gpio.h **** /** @defgroup GPIO_LL_EC_OUTPUT Output Type
 162:Drivers/STM32F3xx_HAL_Driver/Inc/stm32f3xx_ll_gpio.h ****   * @{
 163:Drivers/STM32F3xx_HAL_Driver/Inc/stm32f3xx_ll_gpio.h ****   */
 164:Drivers/STM32F3xx_HAL_Driver/Inc/stm32f3xx_ll_gpio.h **** #define LL_GPIO_OUTPUT_PUSHPULL            (0x00000000U) /*!< Select push-pull as output type */
 165:Drivers/STM32F3xx_HAL_Driver/Inc/stm32f3xx_ll_gpio.h **** #define LL_GPIO_OUTPUT_OPENDRAIN           GPIO_OTYPER_OT_0 /*!< Select open-drain as output type *
 166:Drivers/STM32F3xx_HAL_Driver/Inc/stm32f3xx_ll_gpio.h **** /**
 167:Drivers/STM32F3xx_HAL_Driver/Inc/stm32f3xx_ll_gpio.h ****   * @}
 168:Drivers/STM32F3xx_HAL_Driver/Inc/stm32f3xx_ll_gpio.h ****   */
 169:Drivers/STM32F3xx_HAL_Driver/Inc/stm32f3xx_ll_gpio.h **** 
 170:Drivers/STM32F3xx_HAL_Driver/Inc/stm32f3xx_ll_gpio.h **** /** @defgroup GPIO_LL_EC_SPEED Output Speed
 171:Drivers/STM32F3xx_HAL_Driver/Inc/stm32f3xx_ll_gpio.h ****   * @{
 172:Drivers/STM32F3xx_HAL_Driver/Inc/stm32f3xx_ll_gpio.h ****   */
 173:Drivers/STM32F3xx_HAL_Driver/Inc/stm32f3xx_ll_gpio.h **** #define LL_GPIO_SPEED_FREQ_LOW             (0x00000000U) /*!< Select I/O low output speed    */
 174:Drivers/STM32F3xx_HAL_Driver/Inc/stm32f3xx_ll_gpio.h **** #define LL_GPIO_SPEED_FREQ_MEDIUM          GPIO_OSPEEDER_OSPEEDR0_0 /*!< Select I/O medium output s
 175:Drivers/STM32F3xx_HAL_Driver/Inc/stm32f3xx_ll_gpio.h **** #define LL_GPIO_SPEED_FREQ_HIGH            GPIO_OSPEEDER_OSPEEDR0   /*!< Select I/O high output spe
 176:Drivers/STM32F3xx_HAL_Driver/Inc/stm32f3xx_ll_gpio.h **** /**
 177:Drivers/STM32F3xx_HAL_Driver/Inc/stm32f3xx_ll_gpio.h ****   * @}
 178:Drivers/STM32F3xx_HAL_Driver/Inc/stm32f3xx_ll_gpio.h ****   */
 179:Drivers/STM32F3xx_HAL_Driver/Inc/stm32f3xx_ll_gpio.h **** 
 180:Drivers/STM32F3xx_HAL_Driver/Inc/stm32f3xx_ll_gpio.h **** /** @defgroup GPIO_LL_EC_PULL Pull Up Pull Down
 181:Drivers/STM32F3xx_HAL_Driver/Inc/stm32f3xx_ll_gpio.h ****   * @{
 182:Drivers/STM32F3xx_HAL_Driver/Inc/stm32f3xx_ll_gpio.h ****   */
ARM GAS  /tmp/ccoHk3kV.s 			page 31


 183:Drivers/STM32F3xx_HAL_Driver/Inc/stm32f3xx_ll_gpio.h **** #define LL_GPIO_PULL_NO                    (0x00000000U) /*!< Select I/O no pull */
 184:Drivers/STM32F3xx_HAL_Driver/Inc/stm32f3xx_ll_gpio.h **** #define LL_GPIO_PULL_UP                    GPIO_PUPDR_PUPDR0_0 /*!< Select I/O pull up */
 185:Drivers/STM32F3xx_HAL_Driver/Inc/stm32f3xx_ll_gpio.h **** #define LL_GPIO_PULL_DOWN                  GPIO_PUPDR_PUPDR0_1 /*!< Select I/O pull down */
 186:Drivers/STM32F3xx_HAL_Driver/Inc/stm32f3xx_ll_gpio.h **** /**
 187:Drivers/STM32F3xx_HAL_Driver/Inc/stm32f3xx_ll_gpio.h ****   * @}
 188:Drivers/STM32F3xx_HAL_Driver/Inc/stm32f3xx_ll_gpio.h ****   */
 189:Drivers/STM32F3xx_HAL_Driver/Inc/stm32f3xx_ll_gpio.h **** 
 190:Drivers/STM32F3xx_HAL_Driver/Inc/stm32f3xx_ll_gpio.h **** /** @defgroup GPIO_LL_EC_AF Alternate Function
 191:Drivers/STM32F3xx_HAL_Driver/Inc/stm32f3xx_ll_gpio.h ****   * @{
 192:Drivers/STM32F3xx_HAL_Driver/Inc/stm32f3xx_ll_gpio.h ****   */
 193:Drivers/STM32F3xx_HAL_Driver/Inc/stm32f3xx_ll_gpio.h **** #define LL_GPIO_AF_0                       (0x0000000U) /*!< Select alternate function 0 */
 194:Drivers/STM32F3xx_HAL_Driver/Inc/stm32f3xx_ll_gpio.h **** #define LL_GPIO_AF_1                       (0x0000001U) /*!< Select alternate function 1 */
 195:Drivers/STM32F3xx_HAL_Driver/Inc/stm32f3xx_ll_gpio.h **** #define LL_GPIO_AF_2                       (0x0000002U) /*!< Select alternate function 2 */
 196:Drivers/STM32F3xx_HAL_Driver/Inc/stm32f3xx_ll_gpio.h **** #define LL_GPIO_AF_3                       (0x0000003U) /*!< Select alternate function 3 */
 197:Drivers/STM32F3xx_HAL_Driver/Inc/stm32f3xx_ll_gpio.h **** #define LL_GPIO_AF_4                       (0x0000004U) /*!< Select alternate function 4 */
 198:Drivers/STM32F3xx_HAL_Driver/Inc/stm32f3xx_ll_gpio.h **** #define LL_GPIO_AF_5                       (0x0000005U) /*!< Select alternate function 5 */
 199:Drivers/STM32F3xx_HAL_Driver/Inc/stm32f3xx_ll_gpio.h **** #define LL_GPIO_AF_6                       (0x0000006U) /*!< Select alternate function 6 */
 200:Drivers/STM32F3xx_HAL_Driver/Inc/stm32f3xx_ll_gpio.h **** #define LL_GPIO_AF_7                       (0x0000007U) /*!< Select alternate function 7 */
 201:Drivers/STM32F3xx_HAL_Driver/Inc/stm32f3xx_ll_gpio.h **** #define LL_GPIO_AF_8                       (0x0000008U) /*!< Select alternate function 8 */
 202:Drivers/STM32F3xx_HAL_Driver/Inc/stm32f3xx_ll_gpio.h **** #define LL_GPIO_AF_9                       (0x0000009U) /*!< Select alternate function 9 */
 203:Drivers/STM32F3xx_HAL_Driver/Inc/stm32f3xx_ll_gpio.h **** #define LL_GPIO_AF_10                      (0x000000AU) /*!< Select alternate function 10 */
 204:Drivers/STM32F3xx_HAL_Driver/Inc/stm32f3xx_ll_gpio.h **** #define LL_GPIO_AF_11                      (0x000000BU) /*!< Select alternate function 11 */
 205:Drivers/STM32F3xx_HAL_Driver/Inc/stm32f3xx_ll_gpio.h **** #define LL_GPIO_AF_12                      (0x000000CU) /*!< Select alternate function 12 */
 206:Drivers/STM32F3xx_HAL_Driver/Inc/stm32f3xx_ll_gpio.h **** #define LL_GPIO_AF_13                      (0x000000DU) /*!< Select alternate function 13 */
 207:Drivers/STM32F3xx_HAL_Driver/Inc/stm32f3xx_ll_gpio.h **** #define LL_GPIO_AF_14                      (0x000000EU) /*!< Select alternate function 14 */
 208:Drivers/STM32F3xx_HAL_Driver/Inc/stm32f3xx_ll_gpio.h **** #define LL_GPIO_AF_15                      (0x000000FU) /*!< Select alternate function 15 */
 209:Drivers/STM32F3xx_HAL_Driver/Inc/stm32f3xx_ll_gpio.h **** /**
 210:Drivers/STM32F3xx_HAL_Driver/Inc/stm32f3xx_ll_gpio.h ****   * @}
 211:Drivers/STM32F3xx_HAL_Driver/Inc/stm32f3xx_ll_gpio.h ****   */
 212:Drivers/STM32F3xx_HAL_Driver/Inc/stm32f3xx_ll_gpio.h **** 
 213:Drivers/STM32F3xx_HAL_Driver/Inc/stm32f3xx_ll_gpio.h **** /**
 214:Drivers/STM32F3xx_HAL_Driver/Inc/stm32f3xx_ll_gpio.h ****   * @}
 215:Drivers/STM32F3xx_HAL_Driver/Inc/stm32f3xx_ll_gpio.h ****   */
 216:Drivers/STM32F3xx_HAL_Driver/Inc/stm32f3xx_ll_gpio.h **** 
 217:Drivers/STM32F3xx_HAL_Driver/Inc/stm32f3xx_ll_gpio.h **** /* Exported macro ------------------------------------------------------------*/
 218:Drivers/STM32F3xx_HAL_Driver/Inc/stm32f3xx_ll_gpio.h **** /** @defgroup GPIO_LL_Exported_Macros GPIO Exported Macros
 219:Drivers/STM32F3xx_HAL_Driver/Inc/stm32f3xx_ll_gpio.h ****   * @{
 220:Drivers/STM32F3xx_HAL_Driver/Inc/stm32f3xx_ll_gpio.h ****   */
 221:Drivers/STM32F3xx_HAL_Driver/Inc/stm32f3xx_ll_gpio.h **** 
 222:Drivers/STM32F3xx_HAL_Driver/Inc/stm32f3xx_ll_gpio.h **** /** @defgroup GPIO_LL_EM_WRITE_READ Common Write and read registers Macros
 223:Drivers/STM32F3xx_HAL_Driver/Inc/stm32f3xx_ll_gpio.h ****   * @{
 224:Drivers/STM32F3xx_HAL_Driver/Inc/stm32f3xx_ll_gpio.h ****   */
 225:Drivers/STM32F3xx_HAL_Driver/Inc/stm32f3xx_ll_gpio.h **** 
 226:Drivers/STM32F3xx_HAL_Driver/Inc/stm32f3xx_ll_gpio.h **** /**
 227:Drivers/STM32F3xx_HAL_Driver/Inc/stm32f3xx_ll_gpio.h ****   * @brief  Write a value in GPIO register
 228:Drivers/STM32F3xx_HAL_Driver/Inc/stm32f3xx_ll_gpio.h ****   * @param  __INSTANCE__ GPIO Instance
 229:Drivers/STM32F3xx_HAL_Driver/Inc/stm32f3xx_ll_gpio.h ****   * @param  __REG__ Register to be written
 230:Drivers/STM32F3xx_HAL_Driver/Inc/stm32f3xx_ll_gpio.h ****   * @param  __VALUE__ Value to be written in the register
 231:Drivers/STM32F3xx_HAL_Driver/Inc/stm32f3xx_ll_gpio.h ****   * @retval None
 232:Drivers/STM32F3xx_HAL_Driver/Inc/stm32f3xx_ll_gpio.h ****   */
 233:Drivers/STM32F3xx_HAL_Driver/Inc/stm32f3xx_ll_gpio.h **** #define LL_GPIO_WriteReg(__INSTANCE__, __REG__, __VALUE__) WRITE_REG(__INSTANCE__->__REG__, (__VALU
 234:Drivers/STM32F3xx_HAL_Driver/Inc/stm32f3xx_ll_gpio.h **** 
 235:Drivers/STM32F3xx_HAL_Driver/Inc/stm32f3xx_ll_gpio.h **** /**
 236:Drivers/STM32F3xx_HAL_Driver/Inc/stm32f3xx_ll_gpio.h ****   * @brief  Read a value in GPIO register
 237:Drivers/STM32F3xx_HAL_Driver/Inc/stm32f3xx_ll_gpio.h ****   * @param  __INSTANCE__ GPIO Instance
 238:Drivers/STM32F3xx_HAL_Driver/Inc/stm32f3xx_ll_gpio.h ****   * @param  __REG__ Register to be read
 239:Drivers/STM32F3xx_HAL_Driver/Inc/stm32f3xx_ll_gpio.h ****   * @retval Register value
ARM GAS  /tmp/ccoHk3kV.s 			page 32


 240:Drivers/STM32F3xx_HAL_Driver/Inc/stm32f3xx_ll_gpio.h ****   */
 241:Drivers/STM32F3xx_HAL_Driver/Inc/stm32f3xx_ll_gpio.h **** #define LL_GPIO_ReadReg(__INSTANCE__, __REG__) READ_REG(__INSTANCE__->__REG__)
 242:Drivers/STM32F3xx_HAL_Driver/Inc/stm32f3xx_ll_gpio.h **** /**
 243:Drivers/STM32F3xx_HAL_Driver/Inc/stm32f3xx_ll_gpio.h ****   * @}
 244:Drivers/STM32F3xx_HAL_Driver/Inc/stm32f3xx_ll_gpio.h ****   */
 245:Drivers/STM32F3xx_HAL_Driver/Inc/stm32f3xx_ll_gpio.h **** 
 246:Drivers/STM32F3xx_HAL_Driver/Inc/stm32f3xx_ll_gpio.h **** /**
 247:Drivers/STM32F3xx_HAL_Driver/Inc/stm32f3xx_ll_gpio.h ****   * @}
 248:Drivers/STM32F3xx_HAL_Driver/Inc/stm32f3xx_ll_gpio.h ****   */
 249:Drivers/STM32F3xx_HAL_Driver/Inc/stm32f3xx_ll_gpio.h **** 
 250:Drivers/STM32F3xx_HAL_Driver/Inc/stm32f3xx_ll_gpio.h **** /* Exported functions --------------------------------------------------------*/
 251:Drivers/STM32F3xx_HAL_Driver/Inc/stm32f3xx_ll_gpio.h **** /** @defgroup GPIO_LL_Exported_Functions GPIO Exported Functions
 252:Drivers/STM32F3xx_HAL_Driver/Inc/stm32f3xx_ll_gpio.h ****   * @{
 253:Drivers/STM32F3xx_HAL_Driver/Inc/stm32f3xx_ll_gpio.h ****   */
 254:Drivers/STM32F3xx_HAL_Driver/Inc/stm32f3xx_ll_gpio.h **** 
 255:Drivers/STM32F3xx_HAL_Driver/Inc/stm32f3xx_ll_gpio.h **** /** @defgroup GPIO_LL_EF_Port_Configuration Port Configuration
 256:Drivers/STM32F3xx_HAL_Driver/Inc/stm32f3xx_ll_gpio.h ****   * @{
 257:Drivers/STM32F3xx_HAL_Driver/Inc/stm32f3xx_ll_gpio.h ****   */
 258:Drivers/STM32F3xx_HAL_Driver/Inc/stm32f3xx_ll_gpio.h **** 
 259:Drivers/STM32F3xx_HAL_Driver/Inc/stm32f3xx_ll_gpio.h **** /**
 260:Drivers/STM32F3xx_HAL_Driver/Inc/stm32f3xx_ll_gpio.h ****   * @brief  Configure gpio mode for a dedicated pin on dedicated port.
 261:Drivers/STM32F3xx_HAL_Driver/Inc/stm32f3xx_ll_gpio.h ****   * @note   I/O mode can be Input mode, General purpose output, Alternate function mode or Analog.
 262:Drivers/STM32F3xx_HAL_Driver/Inc/stm32f3xx_ll_gpio.h ****   * @note   Warning: only one pin can be passed as parameter.
 263:Drivers/STM32F3xx_HAL_Driver/Inc/stm32f3xx_ll_gpio.h ****   * @rmtoll MODER        MODEy         LL_GPIO_SetPinMode
 264:Drivers/STM32F3xx_HAL_Driver/Inc/stm32f3xx_ll_gpio.h ****   * @param  GPIOx GPIO Port
 265:Drivers/STM32F3xx_HAL_Driver/Inc/stm32f3xx_ll_gpio.h ****   * @param  Pin This parameter can be one of the following values:
 266:Drivers/STM32F3xx_HAL_Driver/Inc/stm32f3xx_ll_gpio.h ****   *         @arg @ref LL_GPIO_PIN_0
 267:Drivers/STM32F3xx_HAL_Driver/Inc/stm32f3xx_ll_gpio.h ****   *         @arg @ref LL_GPIO_PIN_1
 268:Drivers/STM32F3xx_HAL_Driver/Inc/stm32f3xx_ll_gpio.h ****   *         @arg @ref LL_GPIO_PIN_2
 269:Drivers/STM32F3xx_HAL_Driver/Inc/stm32f3xx_ll_gpio.h ****   *         @arg @ref LL_GPIO_PIN_3
 270:Drivers/STM32F3xx_HAL_Driver/Inc/stm32f3xx_ll_gpio.h ****   *         @arg @ref LL_GPIO_PIN_4
 271:Drivers/STM32F3xx_HAL_Driver/Inc/stm32f3xx_ll_gpio.h ****   *         @arg @ref LL_GPIO_PIN_5
 272:Drivers/STM32F3xx_HAL_Driver/Inc/stm32f3xx_ll_gpio.h ****   *         @arg @ref LL_GPIO_PIN_6
 273:Drivers/STM32F3xx_HAL_Driver/Inc/stm32f3xx_ll_gpio.h ****   *         @arg @ref LL_GPIO_PIN_7
 274:Drivers/STM32F3xx_HAL_Driver/Inc/stm32f3xx_ll_gpio.h ****   *         @arg @ref LL_GPIO_PIN_8
 275:Drivers/STM32F3xx_HAL_Driver/Inc/stm32f3xx_ll_gpio.h ****   *         @arg @ref LL_GPIO_PIN_9
 276:Drivers/STM32F3xx_HAL_Driver/Inc/stm32f3xx_ll_gpio.h ****   *         @arg @ref LL_GPIO_PIN_10
 277:Drivers/STM32F3xx_HAL_Driver/Inc/stm32f3xx_ll_gpio.h ****   *         @arg @ref LL_GPIO_PIN_11
 278:Drivers/STM32F3xx_HAL_Driver/Inc/stm32f3xx_ll_gpio.h ****   *         @arg @ref LL_GPIO_PIN_12
 279:Drivers/STM32F3xx_HAL_Driver/Inc/stm32f3xx_ll_gpio.h ****   *         @arg @ref LL_GPIO_PIN_13
 280:Drivers/STM32F3xx_HAL_Driver/Inc/stm32f3xx_ll_gpio.h ****   *         @arg @ref LL_GPIO_PIN_14
 281:Drivers/STM32F3xx_HAL_Driver/Inc/stm32f3xx_ll_gpio.h ****   *         @arg @ref LL_GPIO_PIN_15
 282:Drivers/STM32F3xx_HAL_Driver/Inc/stm32f3xx_ll_gpio.h ****   * @param  Mode This parameter can be one of the following values:
 283:Drivers/STM32F3xx_HAL_Driver/Inc/stm32f3xx_ll_gpio.h ****   *         @arg @ref LL_GPIO_MODE_INPUT
 284:Drivers/STM32F3xx_HAL_Driver/Inc/stm32f3xx_ll_gpio.h ****   *         @arg @ref LL_GPIO_MODE_OUTPUT
 285:Drivers/STM32F3xx_HAL_Driver/Inc/stm32f3xx_ll_gpio.h ****   *         @arg @ref LL_GPIO_MODE_ALTERNATE
 286:Drivers/STM32F3xx_HAL_Driver/Inc/stm32f3xx_ll_gpio.h ****   *         @arg @ref LL_GPIO_MODE_ANALOG
 287:Drivers/STM32F3xx_HAL_Driver/Inc/stm32f3xx_ll_gpio.h ****   * @retval None
 288:Drivers/STM32F3xx_HAL_Driver/Inc/stm32f3xx_ll_gpio.h ****   */
 289:Drivers/STM32F3xx_HAL_Driver/Inc/stm32f3xx_ll_gpio.h **** __STATIC_INLINE void LL_GPIO_SetPinMode(GPIO_TypeDef *GPIOx, uint32_t Pin, uint32_t Mode)
 290:Drivers/STM32F3xx_HAL_Driver/Inc/stm32f3xx_ll_gpio.h **** {
 291:Drivers/STM32F3xx_HAL_Driver/Inc/stm32f3xx_ll_gpio.h ****   MODIFY_REG(GPIOx->MODER, (GPIO_MODER_MODER0 << (POSITION_VAL(Pin) * 2U)), (Mode << (POSITION_VAL(
 292:Drivers/STM32F3xx_HAL_Driver/Inc/stm32f3xx_ll_gpio.h **** }
 293:Drivers/STM32F3xx_HAL_Driver/Inc/stm32f3xx_ll_gpio.h **** 
 294:Drivers/STM32F3xx_HAL_Driver/Inc/stm32f3xx_ll_gpio.h **** /**
 295:Drivers/STM32F3xx_HAL_Driver/Inc/stm32f3xx_ll_gpio.h ****   * @brief  Return gpio mode for a dedicated pin on dedicated port.
 296:Drivers/STM32F3xx_HAL_Driver/Inc/stm32f3xx_ll_gpio.h ****   * @note   I/O mode can be Input mode, General purpose output, Alternate function mode or Analog.
ARM GAS  /tmp/ccoHk3kV.s 			page 33


 297:Drivers/STM32F3xx_HAL_Driver/Inc/stm32f3xx_ll_gpio.h ****   * @note   Warning: only one pin can be passed as parameter.
 298:Drivers/STM32F3xx_HAL_Driver/Inc/stm32f3xx_ll_gpio.h ****   * @rmtoll MODER        MODEy         LL_GPIO_GetPinMode
 299:Drivers/STM32F3xx_HAL_Driver/Inc/stm32f3xx_ll_gpio.h ****   * @param  GPIOx GPIO Port
 300:Drivers/STM32F3xx_HAL_Driver/Inc/stm32f3xx_ll_gpio.h ****   * @param  Pin This parameter can be one of the following values:
 301:Drivers/STM32F3xx_HAL_Driver/Inc/stm32f3xx_ll_gpio.h ****   *         @arg @ref LL_GPIO_PIN_0
 302:Drivers/STM32F3xx_HAL_Driver/Inc/stm32f3xx_ll_gpio.h ****   *         @arg @ref LL_GPIO_PIN_1
 303:Drivers/STM32F3xx_HAL_Driver/Inc/stm32f3xx_ll_gpio.h ****   *         @arg @ref LL_GPIO_PIN_2
 304:Drivers/STM32F3xx_HAL_Driver/Inc/stm32f3xx_ll_gpio.h ****   *         @arg @ref LL_GPIO_PIN_3
 305:Drivers/STM32F3xx_HAL_Driver/Inc/stm32f3xx_ll_gpio.h ****   *         @arg @ref LL_GPIO_PIN_4
 306:Drivers/STM32F3xx_HAL_Driver/Inc/stm32f3xx_ll_gpio.h ****   *         @arg @ref LL_GPIO_PIN_5
 307:Drivers/STM32F3xx_HAL_Driver/Inc/stm32f3xx_ll_gpio.h ****   *         @arg @ref LL_GPIO_PIN_6
 308:Drivers/STM32F3xx_HAL_Driver/Inc/stm32f3xx_ll_gpio.h ****   *         @arg @ref LL_GPIO_PIN_7
 309:Drivers/STM32F3xx_HAL_Driver/Inc/stm32f3xx_ll_gpio.h ****   *         @arg @ref LL_GPIO_PIN_8
 310:Drivers/STM32F3xx_HAL_Driver/Inc/stm32f3xx_ll_gpio.h ****   *         @arg @ref LL_GPIO_PIN_9
 311:Drivers/STM32F3xx_HAL_Driver/Inc/stm32f3xx_ll_gpio.h ****   *         @arg @ref LL_GPIO_PIN_10
 312:Drivers/STM32F3xx_HAL_Driver/Inc/stm32f3xx_ll_gpio.h ****   *         @arg @ref LL_GPIO_PIN_11
 313:Drivers/STM32F3xx_HAL_Driver/Inc/stm32f3xx_ll_gpio.h ****   *         @arg @ref LL_GPIO_PIN_12
 314:Drivers/STM32F3xx_HAL_Driver/Inc/stm32f3xx_ll_gpio.h ****   *         @arg @ref LL_GPIO_PIN_13
 315:Drivers/STM32F3xx_HAL_Driver/Inc/stm32f3xx_ll_gpio.h ****   *         @arg @ref LL_GPIO_PIN_14
 316:Drivers/STM32F3xx_HAL_Driver/Inc/stm32f3xx_ll_gpio.h ****   *         @arg @ref LL_GPIO_PIN_15
 317:Drivers/STM32F3xx_HAL_Driver/Inc/stm32f3xx_ll_gpio.h ****   * @retval Returned value can be one of the following values:
 318:Drivers/STM32F3xx_HAL_Driver/Inc/stm32f3xx_ll_gpio.h ****   *         @arg @ref LL_GPIO_MODE_INPUT
 319:Drivers/STM32F3xx_HAL_Driver/Inc/stm32f3xx_ll_gpio.h ****   *         @arg @ref LL_GPIO_MODE_OUTPUT
 320:Drivers/STM32F3xx_HAL_Driver/Inc/stm32f3xx_ll_gpio.h ****   *         @arg @ref LL_GPIO_MODE_ALTERNATE
 321:Drivers/STM32F3xx_HAL_Driver/Inc/stm32f3xx_ll_gpio.h ****   *         @arg @ref LL_GPIO_MODE_ANALOG
 322:Drivers/STM32F3xx_HAL_Driver/Inc/stm32f3xx_ll_gpio.h ****   */
 323:Drivers/STM32F3xx_HAL_Driver/Inc/stm32f3xx_ll_gpio.h **** __STATIC_INLINE uint32_t LL_GPIO_GetPinMode(GPIO_TypeDef *GPIOx, uint32_t Pin)
 324:Drivers/STM32F3xx_HAL_Driver/Inc/stm32f3xx_ll_gpio.h **** {
 325:Drivers/STM32F3xx_HAL_Driver/Inc/stm32f3xx_ll_gpio.h ****   return (uint32_t)(READ_BIT(GPIOx->MODER,
 326:Drivers/STM32F3xx_HAL_Driver/Inc/stm32f3xx_ll_gpio.h ****                              (GPIO_MODER_MODER0 << (POSITION_VAL(Pin) * 2U))) >> (POSITION_VAL(Pin)
 327:Drivers/STM32F3xx_HAL_Driver/Inc/stm32f3xx_ll_gpio.h **** }
 328:Drivers/STM32F3xx_HAL_Driver/Inc/stm32f3xx_ll_gpio.h **** 
 329:Drivers/STM32F3xx_HAL_Driver/Inc/stm32f3xx_ll_gpio.h **** /**
 330:Drivers/STM32F3xx_HAL_Driver/Inc/stm32f3xx_ll_gpio.h ****   * @brief  Configure gpio output type for several pins on dedicated port.
 331:Drivers/STM32F3xx_HAL_Driver/Inc/stm32f3xx_ll_gpio.h ****   * @note   Output type as to be set when gpio pin is in output or
 332:Drivers/STM32F3xx_HAL_Driver/Inc/stm32f3xx_ll_gpio.h ****   *         alternate modes. Possible type are Push-pull or Open-drain.
 333:Drivers/STM32F3xx_HAL_Driver/Inc/stm32f3xx_ll_gpio.h ****   * @rmtoll OTYPER       OTy           LL_GPIO_SetPinOutputType
 334:Drivers/STM32F3xx_HAL_Driver/Inc/stm32f3xx_ll_gpio.h ****   * @param  GPIOx GPIO Port
 335:Drivers/STM32F3xx_HAL_Driver/Inc/stm32f3xx_ll_gpio.h ****   * @param  PinMask This parameter can be a combination of the following values:
 336:Drivers/STM32F3xx_HAL_Driver/Inc/stm32f3xx_ll_gpio.h ****   *         @arg @ref LL_GPIO_PIN_0
 337:Drivers/STM32F3xx_HAL_Driver/Inc/stm32f3xx_ll_gpio.h ****   *         @arg @ref LL_GPIO_PIN_1
 338:Drivers/STM32F3xx_HAL_Driver/Inc/stm32f3xx_ll_gpio.h ****   *         @arg @ref LL_GPIO_PIN_2
 339:Drivers/STM32F3xx_HAL_Driver/Inc/stm32f3xx_ll_gpio.h ****   *         @arg @ref LL_GPIO_PIN_3
 340:Drivers/STM32F3xx_HAL_Driver/Inc/stm32f3xx_ll_gpio.h ****   *         @arg @ref LL_GPIO_PIN_4
 341:Drivers/STM32F3xx_HAL_Driver/Inc/stm32f3xx_ll_gpio.h ****   *         @arg @ref LL_GPIO_PIN_5
 342:Drivers/STM32F3xx_HAL_Driver/Inc/stm32f3xx_ll_gpio.h ****   *         @arg @ref LL_GPIO_PIN_6
 343:Drivers/STM32F3xx_HAL_Driver/Inc/stm32f3xx_ll_gpio.h ****   *         @arg @ref LL_GPIO_PIN_7
 344:Drivers/STM32F3xx_HAL_Driver/Inc/stm32f3xx_ll_gpio.h ****   *         @arg @ref LL_GPIO_PIN_8
 345:Drivers/STM32F3xx_HAL_Driver/Inc/stm32f3xx_ll_gpio.h ****   *         @arg @ref LL_GPIO_PIN_9
 346:Drivers/STM32F3xx_HAL_Driver/Inc/stm32f3xx_ll_gpio.h ****   *         @arg @ref LL_GPIO_PIN_10
 347:Drivers/STM32F3xx_HAL_Driver/Inc/stm32f3xx_ll_gpio.h ****   *         @arg @ref LL_GPIO_PIN_11
 348:Drivers/STM32F3xx_HAL_Driver/Inc/stm32f3xx_ll_gpio.h ****   *         @arg @ref LL_GPIO_PIN_12
 349:Drivers/STM32F3xx_HAL_Driver/Inc/stm32f3xx_ll_gpio.h ****   *         @arg @ref LL_GPIO_PIN_13
 350:Drivers/STM32F3xx_HAL_Driver/Inc/stm32f3xx_ll_gpio.h ****   *         @arg @ref LL_GPIO_PIN_14
 351:Drivers/STM32F3xx_HAL_Driver/Inc/stm32f3xx_ll_gpio.h ****   *         @arg @ref LL_GPIO_PIN_15
 352:Drivers/STM32F3xx_HAL_Driver/Inc/stm32f3xx_ll_gpio.h ****   *         @arg @ref LL_GPIO_PIN_ALL
 353:Drivers/STM32F3xx_HAL_Driver/Inc/stm32f3xx_ll_gpio.h ****   * @param  OutputType This parameter can be one of the following values:
ARM GAS  /tmp/ccoHk3kV.s 			page 34


 354:Drivers/STM32F3xx_HAL_Driver/Inc/stm32f3xx_ll_gpio.h ****   *         @arg @ref LL_GPIO_OUTPUT_PUSHPULL
 355:Drivers/STM32F3xx_HAL_Driver/Inc/stm32f3xx_ll_gpio.h ****   *         @arg @ref LL_GPIO_OUTPUT_OPENDRAIN
 356:Drivers/STM32F3xx_HAL_Driver/Inc/stm32f3xx_ll_gpio.h ****   * @retval None
 357:Drivers/STM32F3xx_HAL_Driver/Inc/stm32f3xx_ll_gpio.h ****   */
 358:Drivers/STM32F3xx_HAL_Driver/Inc/stm32f3xx_ll_gpio.h **** __STATIC_INLINE void LL_GPIO_SetPinOutputType(GPIO_TypeDef *GPIOx, uint32_t PinMask, uint32_t Outpu
 359:Drivers/STM32F3xx_HAL_Driver/Inc/stm32f3xx_ll_gpio.h **** {
 360:Drivers/STM32F3xx_HAL_Driver/Inc/stm32f3xx_ll_gpio.h ****   MODIFY_REG(GPIOx->OTYPER, PinMask, (PinMask * OutputType));
 361:Drivers/STM32F3xx_HAL_Driver/Inc/stm32f3xx_ll_gpio.h **** }
 362:Drivers/STM32F3xx_HAL_Driver/Inc/stm32f3xx_ll_gpio.h **** 
 363:Drivers/STM32F3xx_HAL_Driver/Inc/stm32f3xx_ll_gpio.h **** /**
 364:Drivers/STM32F3xx_HAL_Driver/Inc/stm32f3xx_ll_gpio.h ****   * @brief  Return gpio output type for several pins on dedicated port.
 365:Drivers/STM32F3xx_HAL_Driver/Inc/stm32f3xx_ll_gpio.h ****   * @note   Output type as to be set when gpio pin is in output or
 366:Drivers/STM32F3xx_HAL_Driver/Inc/stm32f3xx_ll_gpio.h ****   *         alternate modes. Possible type are Push-pull or Open-drain.
 367:Drivers/STM32F3xx_HAL_Driver/Inc/stm32f3xx_ll_gpio.h ****   * @note   Warning: only one pin can be passed as parameter.
 368:Drivers/STM32F3xx_HAL_Driver/Inc/stm32f3xx_ll_gpio.h ****   * @rmtoll OTYPER       OTy           LL_GPIO_GetPinOutputType
 369:Drivers/STM32F3xx_HAL_Driver/Inc/stm32f3xx_ll_gpio.h ****   * @param  GPIOx GPIO Port
 370:Drivers/STM32F3xx_HAL_Driver/Inc/stm32f3xx_ll_gpio.h ****   * @param  Pin This parameter can be one of the following values:
 371:Drivers/STM32F3xx_HAL_Driver/Inc/stm32f3xx_ll_gpio.h ****   *         @arg @ref LL_GPIO_PIN_0
 372:Drivers/STM32F3xx_HAL_Driver/Inc/stm32f3xx_ll_gpio.h ****   *         @arg @ref LL_GPIO_PIN_1
 373:Drivers/STM32F3xx_HAL_Driver/Inc/stm32f3xx_ll_gpio.h ****   *         @arg @ref LL_GPIO_PIN_2
 374:Drivers/STM32F3xx_HAL_Driver/Inc/stm32f3xx_ll_gpio.h ****   *         @arg @ref LL_GPIO_PIN_3
 375:Drivers/STM32F3xx_HAL_Driver/Inc/stm32f3xx_ll_gpio.h ****   *         @arg @ref LL_GPIO_PIN_4
 376:Drivers/STM32F3xx_HAL_Driver/Inc/stm32f3xx_ll_gpio.h ****   *         @arg @ref LL_GPIO_PIN_5
 377:Drivers/STM32F3xx_HAL_Driver/Inc/stm32f3xx_ll_gpio.h ****   *         @arg @ref LL_GPIO_PIN_6
 378:Drivers/STM32F3xx_HAL_Driver/Inc/stm32f3xx_ll_gpio.h ****   *         @arg @ref LL_GPIO_PIN_7
 379:Drivers/STM32F3xx_HAL_Driver/Inc/stm32f3xx_ll_gpio.h ****   *         @arg @ref LL_GPIO_PIN_8
 380:Drivers/STM32F3xx_HAL_Driver/Inc/stm32f3xx_ll_gpio.h ****   *         @arg @ref LL_GPIO_PIN_9
 381:Drivers/STM32F3xx_HAL_Driver/Inc/stm32f3xx_ll_gpio.h ****   *         @arg @ref LL_GPIO_PIN_10
 382:Drivers/STM32F3xx_HAL_Driver/Inc/stm32f3xx_ll_gpio.h ****   *         @arg @ref LL_GPIO_PIN_11
 383:Drivers/STM32F3xx_HAL_Driver/Inc/stm32f3xx_ll_gpio.h ****   *         @arg @ref LL_GPIO_PIN_12
 384:Drivers/STM32F3xx_HAL_Driver/Inc/stm32f3xx_ll_gpio.h ****   *         @arg @ref LL_GPIO_PIN_13
 385:Drivers/STM32F3xx_HAL_Driver/Inc/stm32f3xx_ll_gpio.h ****   *         @arg @ref LL_GPIO_PIN_14
 386:Drivers/STM32F3xx_HAL_Driver/Inc/stm32f3xx_ll_gpio.h ****   *         @arg @ref LL_GPIO_PIN_15
 387:Drivers/STM32F3xx_HAL_Driver/Inc/stm32f3xx_ll_gpio.h ****   *         @arg @ref LL_GPIO_PIN_ALL
 388:Drivers/STM32F3xx_HAL_Driver/Inc/stm32f3xx_ll_gpio.h ****   * @retval Returned value can be one of the following values:
 389:Drivers/STM32F3xx_HAL_Driver/Inc/stm32f3xx_ll_gpio.h ****   *         @arg @ref LL_GPIO_OUTPUT_PUSHPULL
 390:Drivers/STM32F3xx_HAL_Driver/Inc/stm32f3xx_ll_gpio.h ****   *         @arg @ref LL_GPIO_OUTPUT_OPENDRAIN
 391:Drivers/STM32F3xx_HAL_Driver/Inc/stm32f3xx_ll_gpio.h ****   */
 392:Drivers/STM32F3xx_HAL_Driver/Inc/stm32f3xx_ll_gpio.h **** __STATIC_INLINE uint32_t LL_GPIO_GetPinOutputType(GPIO_TypeDef *GPIOx, uint32_t Pin)
 393:Drivers/STM32F3xx_HAL_Driver/Inc/stm32f3xx_ll_gpio.h **** {
 394:Drivers/STM32F3xx_HAL_Driver/Inc/stm32f3xx_ll_gpio.h ****   return (uint32_t)(READ_BIT(GPIOx->OTYPER, Pin) >> POSITION_VAL(Pin));
 395:Drivers/STM32F3xx_HAL_Driver/Inc/stm32f3xx_ll_gpio.h **** }
 396:Drivers/STM32F3xx_HAL_Driver/Inc/stm32f3xx_ll_gpio.h **** 
 397:Drivers/STM32F3xx_HAL_Driver/Inc/stm32f3xx_ll_gpio.h **** /**
 398:Drivers/STM32F3xx_HAL_Driver/Inc/stm32f3xx_ll_gpio.h ****   * @brief  Configure gpio speed for a dedicated pin on dedicated port.
 399:Drivers/STM32F3xx_HAL_Driver/Inc/stm32f3xx_ll_gpio.h ****   * @note   I/O speed can be Low, Medium, Fast or High speed.
 400:Drivers/STM32F3xx_HAL_Driver/Inc/stm32f3xx_ll_gpio.h ****   * @note   Warning: only one pin can be passed as parameter.
 401:Drivers/STM32F3xx_HAL_Driver/Inc/stm32f3xx_ll_gpio.h ****   * @note   Refer to datasheet for frequency specifications and the power
 402:Drivers/STM32F3xx_HAL_Driver/Inc/stm32f3xx_ll_gpio.h ****   *         supply and load conditions for each speed.
 403:Drivers/STM32F3xx_HAL_Driver/Inc/stm32f3xx_ll_gpio.h ****   * @rmtoll OSPEEDR      OSPEEDy       LL_GPIO_SetPinSpeed
 404:Drivers/STM32F3xx_HAL_Driver/Inc/stm32f3xx_ll_gpio.h ****   * @param  GPIOx GPIO Port
 405:Drivers/STM32F3xx_HAL_Driver/Inc/stm32f3xx_ll_gpio.h ****   * @param  Pin This parameter can be one of the following values:
 406:Drivers/STM32F3xx_HAL_Driver/Inc/stm32f3xx_ll_gpio.h ****   *         @arg @ref LL_GPIO_PIN_0
 407:Drivers/STM32F3xx_HAL_Driver/Inc/stm32f3xx_ll_gpio.h ****   *         @arg @ref LL_GPIO_PIN_1
 408:Drivers/STM32F3xx_HAL_Driver/Inc/stm32f3xx_ll_gpio.h ****   *         @arg @ref LL_GPIO_PIN_2
 409:Drivers/STM32F3xx_HAL_Driver/Inc/stm32f3xx_ll_gpio.h ****   *         @arg @ref LL_GPIO_PIN_3
 410:Drivers/STM32F3xx_HAL_Driver/Inc/stm32f3xx_ll_gpio.h ****   *         @arg @ref LL_GPIO_PIN_4
ARM GAS  /tmp/ccoHk3kV.s 			page 35


 411:Drivers/STM32F3xx_HAL_Driver/Inc/stm32f3xx_ll_gpio.h ****   *         @arg @ref LL_GPIO_PIN_5
 412:Drivers/STM32F3xx_HAL_Driver/Inc/stm32f3xx_ll_gpio.h ****   *         @arg @ref LL_GPIO_PIN_6
 413:Drivers/STM32F3xx_HAL_Driver/Inc/stm32f3xx_ll_gpio.h ****   *         @arg @ref LL_GPIO_PIN_7
 414:Drivers/STM32F3xx_HAL_Driver/Inc/stm32f3xx_ll_gpio.h ****   *         @arg @ref LL_GPIO_PIN_8
 415:Drivers/STM32F3xx_HAL_Driver/Inc/stm32f3xx_ll_gpio.h ****   *         @arg @ref LL_GPIO_PIN_9
 416:Drivers/STM32F3xx_HAL_Driver/Inc/stm32f3xx_ll_gpio.h ****   *         @arg @ref LL_GPIO_PIN_10
 417:Drivers/STM32F3xx_HAL_Driver/Inc/stm32f3xx_ll_gpio.h ****   *         @arg @ref LL_GPIO_PIN_11
 418:Drivers/STM32F3xx_HAL_Driver/Inc/stm32f3xx_ll_gpio.h ****   *         @arg @ref LL_GPIO_PIN_12
 419:Drivers/STM32F3xx_HAL_Driver/Inc/stm32f3xx_ll_gpio.h ****   *         @arg @ref LL_GPIO_PIN_13
 420:Drivers/STM32F3xx_HAL_Driver/Inc/stm32f3xx_ll_gpio.h ****   *         @arg @ref LL_GPIO_PIN_14
 421:Drivers/STM32F3xx_HAL_Driver/Inc/stm32f3xx_ll_gpio.h ****   *         @arg @ref LL_GPIO_PIN_15
 422:Drivers/STM32F3xx_HAL_Driver/Inc/stm32f3xx_ll_gpio.h ****   * @param  Speed This parameter can be one of the following values:
 423:Drivers/STM32F3xx_HAL_Driver/Inc/stm32f3xx_ll_gpio.h ****   *         @arg @ref LL_GPIO_SPEED_FREQ_LOW
 424:Drivers/STM32F3xx_HAL_Driver/Inc/stm32f3xx_ll_gpio.h ****   *         @arg @ref LL_GPIO_SPEED_FREQ_MEDIUM
 425:Drivers/STM32F3xx_HAL_Driver/Inc/stm32f3xx_ll_gpio.h ****   *         @arg @ref LL_GPIO_SPEED_FREQ_HIGH
 426:Drivers/STM32F3xx_HAL_Driver/Inc/stm32f3xx_ll_gpio.h ****   * @retval None
 427:Drivers/STM32F3xx_HAL_Driver/Inc/stm32f3xx_ll_gpio.h ****   */
 428:Drivers/STM32F3xx_HAL_Driver/Inc/stm32f3xx_ll_gpio.h **** __STATIC_INLINE void LL_GPIO_SetPinSpeed(GPIO_TypeDef *GPIOx, uint32_t Pin, uint32_t  Speed)
 429:Drivers/STM32F3xx_HAL_Driver/Inc/stm32f3xx_ll_gpio.h **** {
 430:Drivers/STM32F3xx_HAL_Driver/Inc/stm32f3xx_ll_gpio.h ****   MODIFY_REG(GPIOx->OSPEEDR, (GPIO_OSPEEDER_OSPEEDR0 << (POSITION_VAL(Pin) * 2U)),
 431:Drivers/STM32F3xx_HAL_Driver/Inc/stm32f3xx_ll_gpio.h ****              (Speed << (POSITION_VAL(Pin) * 2U)));
 432:Drivers/STM32F3xx_HAL_Driver/Inc/stm32f3xx_ll_gpio.h **** }
 433:Drivers/STM32F3xx_HAL_Driver/Inc/stm32f3xx_ll_gpio.h **** 
 434:Drivers/STM32F3xx_HAL_Driver/Inc/stm32f3xx_ll_gpio.h **** /**
 435:Drivers/STM32F3xx_HAL_Driver/Inc/stm32f3xx_ll_gpio.h ****   * @brief  Return gpio speed for a dedicated pin on dedicated port.
 436:Drivers/STM32F3xx_HAL_Driver/Inc/stm32f3xx_ll_gpio.h ****   * @note   I/O speed can be Low, Medium, Fast or High speed.
 437:Drivers/STM32F3xx_HAL_Driver/Inc/stm32f3xx_ll_gpio.h ****   * @note   Warning: only one pin can be passed as parameter.
 438:Drivers/STM32F3xx_HAL_Driver/Inc/stm32f3xx_ll_gpio.h ****   * @note   Refer to datasheet for frequency specifications and the power
 439:Drivers/STM32F3xx_HAL_Driver/Inc/stm32f3xx_ll_gpio.h ****   *         supply and load conditions for each speed.
 440:Drivers/STM32F3xx_HAL_Driver/Inc/stm32f3xx_ll_gpio.h ****   * @rmtoll OSPEEDR      OSPEEDy       LL_GPIO_GetPinSpeed
 441:Drivers/STM32F3xx_HAL_Driver/Inc/stm32f3xx_ll_gpio.h ****   * @param  GPIOx GPIO Port
 442:Drivers/STM32F3xx_HAL_Driver/Inc/stm32f3xx_ll_gpio.h ****   * @param  Pin This parameter can be one of the following values:
 443:Drivers/STM32F3xx_HAL_Driver/Inc/stm32f3xx_ll_gpio.h ****   *         @arg @ref LL_GPIO_PIN_0
 444:Drivers/STM32F3xx_HAL_Driver/Inc/stm32f3xx_ll_gpio.h ****   *         @arg @ref LL_GPIO_PIN_1
 445:Drivers/STM32F3xx_HAL_Driver/Inc/stm32f3xx_ll_gpio.h ****   *         @arg @ref LL_GPIO_PIN_2
 446:Drivers/STM32F3xx_HAL_Driver/Inc/stm32f3xx_ll_gpio.h ****   *         @arg @ref LL_GPIO_PIN_3
 447:Drivers/STM32F3xx_HAL_Driver/Inc/stm32f3xx_ll_gpio.h ****   *         @arg @ref LL_GPIO_PIN_4
 448:Drivers/STM32F3xx_HAL_Driver/Inc/stm32f3xx_ll_gpio.h ****   *         @arg @ref LL_GPIO_PIN_5
 449:Drivers/STM32F3xx_HAL_Driver/Inc/stm32f3xx_ll_gpio.h ****   *         @arg @ref LL_GPIO_PIN_6
 450:Drivers/STM32F3xx_HAL_Driver/Inc/stm32f3xx_ll_gpio.h ****   *         @arg @ref LL_GPIO_PIN_7
 451:Drivers/STM32F3xx_HAL_Driver/Inc/stm32f3xx_ll_gpio.h ****   *         @arg @ref LL_GPIO_PIN_8
 452:Drivers/STM32F3xx_HAL_Driver/Inc/stm32f3xx_ll_gpio.h ****   *         @arg @ref LL_GPIO_PIN_9
 453:Drivers/STM32F3xx_HAL_Driver/Inc/stm32f3xx_ll_gpio.h ****   *         @arg @ref LL_GPIO_PIN_10
 454:Drivers/STM32F3xx_HAL_Driver/Inc/stm32f3xx_ll_gpio.h ****   *         @arg @ref LL_GPIO_PIN_11
 455:Drivers/STM32F3xx_HAL_Driver/Inc/stm32f3xx_ll_gpio.h ****   *         @arg @ref LL_GPIO_PIN_12
 456:Drivers/STM32F3xx_HAL_Driver/Inc/stm32f3xx_ll_gpio.h ****   *         @arg @ref LL_GPIO_PIN_13
 457:Drivers/STM32F3xx_HAL_Driver/Inc/stm32f3xx_ll_gpio.h ****   *         @arg @ref LL_GPIO_PIN_14
 458:Drivers/STM32F3xx_HAL_Driver/Inc/stm32f3xx_ll_gpio.h ****   *         @arg @ref LL_GPIO_PIN_15
 459:Drivers/STM32F3xx_HAL_Driver/Inc/stm32f3xx_ll_gpio.h ****   * @retval Returned value can be one of the following values:
 460:Drivers/STM32F3xx_HAL_Driver/Inc/stm32f3xx_ll_gpio.h ****   *         @arg @ref LL_GPIO_SPEED_FREQ_LOW
 461:Drivers/STM32F3xx_HAL_Driver/Inc/stm32f3xx_ll_gpio.h ****   *         @arg @ref LL_GPIO_SPEED_FREQ_MEDIUM
 462:Drivers/STM32F3xx_HAL_Driver/Inc/stm32f3xx_ll_gpio.h ****   *         @arg @ref LL_GPIO_SPEED_FREQ_HIGH
 463:Drivers/STM32F3xx_HAL_Driver/Inc/stm32f3xx_ll_gpio.h ****   */
 464:Drivers/STM32F3xx_HAL_Driver/Inc/stm32f3xx_ll_gpio.h **** __STATIC_INLINE uint32_t LL_GPIO_GetPinSpeed(GPIO_TypeDef *GPIOx, uint32_t Pin)
 465:Drivers/STM32F3xx_HAL_Driver/Inc/stm32f3xx_ll_gpio.h **** {
 466:Drivers/STM32F3xx_HAL_Driver/Inc/stm32f3xx_ll_gpio.h ****   return (uint32_t)(READ_BIT(GPIOx->OSPEEDR,
 467:Drivers/STM32F3xx_HAL_Driver/Inc/stm32f3xx_ll_gpio.h ****                              (GPIO_OSPEEDER_OSPEEDR0 << (POSITION_VAL(Pin) * 2U))) >> (POSITION_VAL
ARM GAS  /tmp/ccoHk3kV.s 			page 36


 468:Drivers/STM32F3xx_HAL_Driver/Inc/stm32f3xx_ll_gpio.h **** }
 469:Drivers/STM32F3xx_HAL_Driver/Inc/stm32f3xx_ll_gpio.h **** 
 470:Drivers/STM32F3xx_HAL_Driver/Inc/stm32f3xx_ll_gpio.h **** /**
 471:Drivers/STM32F3xx_HAL_Driver/Inc/stm32f3xx_ll_gpio.h ****   * @brief  Configure gpio pull-up or pull-down for a dedicated pin on a dedicated port.
 472:Drivers/STM32F3xx_HAL_Driver/Inc/stm32f3xx_ll_gpio.h ****   * @note   Warning: only one pin can be passed as parameter.
 473:Drivers/STM32F3xx_HAL_Driver/Inc/stm32f3xx_ll_gpio.h ****   * @rmtoll PUPDR        PUPDy         LL_GPIO_SetPinPull
 474:Drivers/STM32F3xx_HAL_Driver/Inc/stm32f3xx_ll_gpio.h ****   * @param  GPIOx GPIO Port
 475:Drivers/STM32F3xx_HAL_Driver/Inc/stm32f3xx_ll_gpio.h ****   * @param  Pin This parameter can be one of the following values:
 476:Drivers/STM32F3xx_HAL_Driver/Inc/stm32f3xx_ll_gpio.h ****   *         @arg @ref LL_GPIO_PIN_0
 477:Drivers/STM32F3xx_HAL_Driver/Inc/stm32f3xx_ll_gpio.h ****   *         @arg @ref LL_GPIO_PIN_1
 478:Drivers/STM32F3xx_HAL_Driver/Inc/stm32f3xx_ll_gpio.h ****   *         @arg @ref LL_GPIO_PIN_2
 479:Drivers/STM32F3xx_HAL_Driver/Inc/stm32f3xx_ll_gpio.h ****   *         @arg @ref LL_GPIO_PIN_3
 480:Drivers/STM32F3xx_HAL_Driver/Inc/stm32f3xx_ll_gpio.h ****   *         @arg @ref LL_GPIO_PIN_4
 481:Drivers/STM32F3xx_HAL_Driver/Inc/stm32f3xx_ll_gpio.h ****   *         @arg @ref LL_GPIO_PIN_5
 482:Drivers/STM32F3xx_HAL_Driver/Inc/stm32f3xx_ll_gpio.h ****   *         @arg @ref LL_GPIO_PIN_6
 483:Drivers/STM32F3xx_HAL_Driver/Inc/stm32f3xx_ll_gpio.h ****   *         @arg @ref LL_GPIO_PIN_7
 484:Drivers/STM32F3xx_HAL_Driver/Inc/stm32f3xx_ll_gpio.h ****   *         @arg @ref LL_GPIO_PIN_8
 485:Drivers/STM32F3xx_HAL_Driver/Inc/stm32f3xx_ll_gpio.h ****   *         @arg @ref LL_GPIO_PIN_9
 486:Drivers/STM32F3xx_HAL_Driver/Inc/stm32f3xx_ll_gpio.h ****   *         @arg @ref LL_GPIO_PIN_10
 487:Drivers/STM32F3xx_HAL_Driver/Inc/stm32f3xx_ll_gpio.h ****   *         @arg @ref LL_GPIO_PIN_11
 488:Drivers/STM32F3xx_HAL_Driver/Inc/stm32f3xx_ll_gpio.h ****   *         @arg @ref LL_GPIO_PIN_12
 489:Drivers/STM32F3xx_HAL_Driver/Inc/stm32f3xx_ll_gpio.h ****   *         @arg @ref LL_GPIO_PIN_13
 490:Drivers/STM32F3xx_HAL_Driver/Inc/stm32f3xx_ll_gpio.h ****   *         @arg @ref LL_GPIO_PIN_14
 491:Drivers/STM32F3xx_HAL_Driver/Inc/stm32f3xx_ll_gpio.h ****   *         @arg @ref LL_GPIO_PIN_15
 492:Drivers/STM32F3xx_HAL_Driver/Inc/stm32f3xx_ll_gpio.h ****   * @param  Pull This parameter can be one of the following values:
 493:Drivers/STM32F3xx_HAL_Driver/Inc/stm32f3xx_ll_gpio.h ****   *         @arg @ref LL_GPIO_PULL_NO
 494:Drivers/STM32F3xx_HAL_Driver/Inc/stm32f3xx_ll_gpio.h ****   *         @arg @ref LL_GPIO_PULL_UP
 495:Drivers/STM32F3xx_HAL_Driver/Inc/stm32f3xx_ll_gpio.h ****   *         @arg @ref LL_GPIO_PULL_DOWN
 496:Drivers/STM32F3xx_HAL_Driver/Inc/stm32f3xx_ll_gpio.h ****   * @retval None
 497:Drivers/STM32F3xx_HAL_Driver/Inc/stm32f3xx_ll_gpio.h ****   */
 498:Drivers/STM32F3xx_HAL_Driver/Inc/stm32f3xx_ll_gpio.h **** __STATIC_INLINE void LL_GPIO_SetPinPull(GPIO_TypeDef *GPIOx, uint32_t Pin, uint32_t Pull)
 499:Drivers/STM32F3xx_HAL_Driver/Inc/stm32f3xx_ll_gpio.h **** {
 500:Drivers/STM32F3xx_HAL_Driver/Inc/stm32f3xx_ll_gpio.h ****   MODIFY_REG(GPIOx->PUPDR, (GPIO_PUPDR_PUPDR0 << (POSITION_VAL(Pin) * 2U)), (Pull << (POSITION_VAL(
 277              		.loc 4 500 0
 278 0010 C468     		ldr	r4, [r0, #12]
 279              	.LVL27:
 280              	.LBB114:
 281              	.LBB115:
 282              		.loc 3 531 0
 283              		.syntax unified
 284              	@ 531 "Drivers/CMSIS/Include/cmsis_gcc.h" 1
 285 0012 93FAA3F5 		rbit r5, r3
 286              	@ 0 "" 2
 287              	.LVL28:
 288              		.thumb
 289              		.syntax unified
 290              	.LBE115:
 291              	.LBE114:
 292              		.loc 4 500 0
 293 0016 B5FA85F5 		clz	r5, r5
 294 001a 6D00     		lsls	r5, r5, #1
 295 001c 0327     		movs	r7, #3
 296 001e 07FA05F5 		lsl	r5, r7, r5
 297 0022 24EA0504 		bic	r4, r4, r5
 298              	.LVL29:
 299              	.LBB116:
 300              	.LBB117:
ARM GAS  /tmp/ccoHk3kV.s 			page 37


 301              		.loc 3 531 0
 302              		.syntax unified
 303              	@ 531 "Drivers/CMSIS/Include/cmsis_gcc.h" 1
 304 0026 93FAA3F5 		rbit r5, r3
 305              	@ 0 "" 2
 306              	.LVL30:
 307              		.thumb
 308              		.syntax unified
 309              	.LBE117:
 310              	.LBE116:
 311              		.loc 4 500 0
 312 002a B5FA85F5 		clz	r5, r5
 313 002e 6D00     		lsls	r5, r5, #1
 314 0030 06FA05F5 		lsl	r5, r6, r5
 315 0034 2C43     		orrs	r4, r4, r5
 316 0036 C460     		str	r4, [r0, #12]
 317              	.LVL31:
 318              	.LBE113:
 319              	.LBE112:
 231:Drivers/STM32F3xx_HAL_Driver/Src/stm32f3xx_ll_gpio.c **** 
 232:Drivers/STM32F3xx_HAL_Driver/Src/stm32f3xx_ll_gpio.c ****       if (GPIO_InitStruct->Mode == LL_GPIO_MODE_ALTERNATE)
 320              		.loc 1 232 0
 321 0038 4C68     		ldr	r4, [r1, #4]
 322 003a 022C     		cmp	r4, #2
 323 003c 36D0     		beq	.L25
 324              	.LVL32:
 325              	.L19:
 233:Drivers/STM32F3xx_HAL_Driver/Src/stm32f3xx_ll_gpio.c ****       {
 234:Drivers/STM32F3xx_HAL_Driver/Src/stm32f3xx_ll_gpio.c ****         /* Check Alternate parameter */
 235:Drivers/STM32F3xx_HAL_Driver/Src/stm32f3xx_ll_gpio.c ****         assert_param(IS_LL_GPIO_ALTERNATE(GPIO_InitStruct->Alternate));
 236:Drivers/STM32F3xx_HAL_Driver/Src/stm32f3xx_ll_gpio.c **** 
 237:Drivers/STM32F3xx_HAL_Driver/Src/stm32f3xx_ll_gpio.c ****         /* Speed mode configuration */
 238:Drivers/STM32F3xx_HAL_Driver/Src/stm32f3xx_ll_gpio.c ****         if (POSITION_VAL(currentpin) < 0x00000008U)
 239:Drivers/STM32F3xx_HAL_Driver/Src/stm32f3xx_ll_gpio.c ****         {
 240:Drivers/STM32F3xx_HAL_Driver/Src/stm32f3xx_ll_gpio.c ****           LL_GPIO_SetAFPin_0_7(GPIOx, currentpin, GPIO_InitStruct->Alternate);
 241:Drivers/STM32F3xx_HAL_Driver/Src/stm32f3xx_ll_gpio.c ****         }
 242:Drivers/STM32F3xx_HAL_Driver/Src/stm32f3xx_ll_gpio.c ****         else
 243:Drivers/STM32F3xx_HAL_Driver/Src/stm32f3xx_ll_gpio.c ****         {
 244:Drivers/STM32F3xx_HAL_Driver/Src/stm32f3xx_ll_gpio.c ****           LL_GPIO_SetAFPin_8_15(GPIOx, currentpin, GPIO_InitStruct->Alternate);
 245:Drivers/STM32F3xx_HAL_Driver/Src/stm32f3xx_ll_gpio.c ****         }
 246:Drivers/STM32F3xx_HAL_Driver/Src/stm32f3xx_ll_gpio.c ****       }
 247:Drivers/STM32F3xx_HAL_Driver/Src/stm32f3xx_ll_gpio.c ****     }
 248:Drivers/STM32F3xx_HAL_Driver/Src/stm32f3xx_ll_gpio.c ****     pinpos++;
 326              		.loc 1 248 0
 327 003e 0132     		adds	r2, r2, #1
 328              	.LVL33:
 329              	.L18:
 210:Drivers/STM32F3xx_HAL_Driver/Src/stm32f3xx_ll_gpio.c ****   {
 330              		.loc 1 210 0
 331 0040 0B68     		ldr	r3, [r1]
 332 0042 33FA02F4 		lsrs	r4, r3, r2
 333 0046 64D0     		beq	.L26
 213:Drivers/STM32F3xx_HAL_Driver/Src/stm32f3xx_ll_gpio.c **** 
 334              		.loc 1 213 0
 335 0048 0124     		movs	r4, #1
 336 004a 9440     		lsls	r4, r4, r2
 337              	.LVL34:
ARM GAS  /tmp/ccoHk3kV.s 			page 38


 215:Drivers/STM32F3xx_HAL_Driver/Src/stm32f3xx_ll_gpio.c ****     {
 338              		.loc 1 215 0
 339 004c 2340     		ands	r3, r4, r3
 340              	.LVL35:
 341 004e F6D0     		beq	.L19
 218:Drivers/STM32F3xx_HAL_Driver/Src/stm32f3xx_ll_gpio.c **** 
 342              		.loc 1 218 0
 343 0050 4E68     		ldr	r6, [r1, #4]
 344              	.LVL36:
 345              	.LBB118:
 346              	.LBB119:
 291:Drivers/STM32F3xx_HAL_Driver/Inc/stm32f3xx_ll_gpio.h **** }
 347              		.loc 4 291 0
 348 0052 0468     		ldr	r4, [r0]
 349              	.LVL37:
 350              	.LBB120:
 351              	.LBB121:
 352              		.loc 3 531 0
 353              		.syntax unified
 354              	@ 531 "Drivers/CMSIS/Include/cmsis_gcc.h" 1
 355 0054 93FAA3F5 		rbit r5, r3
 356              	@ 0 "" 2
 357              	.LVL38:
 358              		.thumb
 359              		.syntax unified
 360              	.LBE121:
 361              	.LBE120:
 291:Drivers/STM32F3xx_HAL_Driver/Inc/stm32f3xx_ll_gpio.h **** }
 362              		.loc 4 291 0
 363 0058 B5FA85F5 		clz	r5, r5
 364 005c 6D00     		lsls	r5, r5, #1
 365 005e 0327     		movs	r7, #3
 366 0060 07FA05F5 		lsl	r5, r7, r5
 367 0064 24EA0504 		bic	r4, r4, r5
 368              	.LVL39:
 369              	.LBB122:
 370              	.LBB123:
 371              		.loc 3 531 0
 372              		.syntax unified
 373              	@ 531 "Drivers/CMSIS/Include/cmsis_gcc.h" 1
 374 0068 93FAA3F5 		rbit r5, r3
 375              	@ 0 "" 2
 376              	.LVL40:
 377              		.thumb
 378              		.syntax unified
 379              	.LBE123:
 380              	.LBE122:
 291:Drivers/STM32F3xx_HAL_Driver/Inc/stm32f3xx_ll_gpio.h **** }
 381              		.loc 4 291 0
 382 006c B5FA85F5 		clz	r5, r5
 383 0070 6D00     		lsls	r5, r5, #1
 384 0072 06FA05F5 		lsl	r5, r6, r5
 385 0076 2C43     		orrs	r4, r4, r5
 386 0078 0460     		str	r4, [r0]
 387              	.LVL41:
 388              	.LBE119:
 389              	.LBE118:
ARM GAS  /tmp/ccoHk3kV.s 			page 39


 220:Drivers/STM32F3xx_HAL_Driver/Src/stm32f3xx_ll_gpio.c ****       {
 390              		.loc 1 220 0
 391 007a 4C68     		ldr	r4, [r1, #4]
 392 007c 013C     		subs	r4, r4, #1
 393 007e 012C     		cmp	r4, #1
 394 0080 C5D8     		bhi	.L20
 226:Drivers/STM32F3xx_HAL_Driver/Src/stm32f3xx_ll_gpio.c ****       }
 395              		.loc 1 226 0
 396 0082 8E68     		ldr	r6, [r1, #8]
 397              	.LVL42:
 398              	.LBB124:
 399              	.LBB125:
 430:Drivers/STM32F3xx_HAL_Driver/Inc/stm32f3xx_ll_gpio.h ****              (Speed << (POSITION_VAL(Pin) * 2U)));
 400              		.loc 4 430 0
 401 0084 8468     		ldr	r4, [r0, #8]
 402              	.LVL43:
 403              	.LBB126:
 404              	.LBB127:
 405              		.loc 3 531 0
 406              		.syntax unified
 407              	@ 531 "Drivers/CMSIS/Include/cmsis_gcc.h" 1
 408 0086 93FAA3F5 		rbit r5, r3
 409              	@ 0 "" 2
 410              	.LVL44:
 411              		.thumb
 412              		.syntax unified
 413              	.LBE127:
 414              	.LBE126:
 430:Drivers/STM32F3xx_HAL_Driver/Inc/stm32f3xx_ll_gpio.h ****              (Speed << (POSITION_VAL(Pin) * 2U)));
 415              		.loc 4 430 0
 416 008a B5FA85F5 		clz	r5, r5
 417 008e 6D00     		lsls	r5, r5, #1
 418 0090 07FA05F5 		lsl	r5, r7, r5
 419 0094 24EA0504 		bic	r4, r4, r5
 420              	.LVL45:
 421              	.LBB128:
 422              	.LBB129:
 423              		.loc 3 531 0
 424              		.syntax unified
 425              	@ 531 "Drivers/CMSIS/Include/cmsis_gcc.h" 1
 426 0098 93FAA3F5 		rbit r5, r3
 427              	@ 0 "" 2
 428              	.LVL46:
 429              		.thumb
 430              		.syntax unified
 431              	.LBE129:
 432              	.LBE128:
 430:Drivers/STM32F3xx_HAL_Driver/Inc/stm32f3xx_ll_gpio.h ****              (Speed << (POSITION_VAL(Pin) * 2U)));
 433              		.loc 4 430 0
 434 009c B5FA85F5 		clz	r5, r5
 435 00a0 6D00     		lsls	r5, r5, #1
 436 00a2 06FA05F5 		lsl	r5, r6, r5
 437 00a6 2C43     		orrs	r4, r4, r5
 438 00a8 8460     		str	r4, [r0, #8]
 439 00aa B0E7     		b	.L20
 440              	.LVL47:
 441              	.L25:
ARM GAS  /tmp/ccoHk3kV.s 			page 40


 442              	.LBE125:
 443              	.LBE124:
 444              	.LBB130:
 445              	.LBB131:
 446              		.loc 3 531 0
 447              		.syntax unified
 448              	@ 531 "Drivers/CMSIS/Include/cmsis_gcc.h" 1
 449 00ac 93FAA3F4 		rbit r4, r3
 450              	@ 0 "" 2
 451              	.LVL48:
 452              		.thumb
 453              		.syntax unified
 454              	.LBE131:
 455              	.LBE130:
 238:Drivers/STM32F3xx_HAL_Driver/Src/stm32f3xx_ll_gpio.c ****         {
 456              		.loc 1 238 0
 457 00b0 B4FA84F4 		clz	r4, r4
 458 00b4 072C     		cmp	r4, #7
 459 00b6 15D8     		bhi	.L21
 240:Drivers/STM32F3xx_HAL_Driver/Src/stm32f3xx_ll_gpio.c ****         }
 460              		.loc 1 240 0
 461 00b8 4D69     		ldr	r5, [r1, #20]
 462              	.LVL49:
 463              	.LBB132:
 464              	.LBB133:
 501:Drivers/STM32F3xx_HAL_Driver/Inc/stm32f3xx_ll_gpio.h **** }
 502:Drivers/STM32F3xx_HAL_Driver/Inc/stm32f3xx_ll_gpio.h **** 
 503:Drivers/STM32F3xx_HAL_Driver/Inc/stm32f3xx_ll_gpio.h **** /**
 504:Drivers/STM32F3xx_HAL_Driver/Inc/stm32f3xx_ll_gpio.h ****   * @brief  Return gpio pull-up or pull-down for a dedicated pin on a dedicated port
 505:Drivers/STM32F3xx_HAL_Driver/Inc/stm32f3xx_ll_gpio.h ****   * @note   Warning: only one pin can be passed as parameter.
 506:Drivers/STM32F3xx_HAL_Driver/Inc/stm32f3xx_ll_gpio.h ****   * @rmtoll PUPDR        PUPDy         LL_GPIO_GetPinPull
 507:Drivers/STM32F3xx_HAL_Driver/Inc/stm32f3xx_ll_gpio.h ****   * @param  GPIOx GPIO Port
 508:Drivers/STM32F3xx_HAL_Driver/Inc/stm32f3xx_ll_gpio.h ****   * @param  Pin This parameter can be one of the following values:
 509:Drivers/STM32F3xx_HAL_Driver/Inc/stm32f3xx_ll_gpio.h ****   *         @arg @ref LL_GPIO_PIN_0
 510:Drivers/STM32F3xx_HAL_Driver/Inc/stm32f3xx_ll_gpio.h ****   *         @arg @ref LL_GPIO_PIN_1
 511:Drivers/STM32F3xx_HAL_Driver/Inc/stm32f3xx_ll_gpio.h ****   *         @arg @ref LL_GPIO_PIN_2
 512:Drivers/STM32F3xx_HAL_Driver/Inc/stm32f3xx_ll_gpio.h ****   *         @arg @ref LL_GPIO_PIN_3
 513:Drivers/STM32F3xx_HAL_Driver/Inc/stm32f3xx_ll_gpio.h ****   *         @arg @ref LL_GPIO_PIN_4
 514:Drivers/STM32F3xx_HAL_Driver/Inc/stm32f3xx_ll_gpio.h ****   *         @arg @ref LL_GPIO_PIN_5
 515:Drivers/STM32F3xx_HAL_Driver/Inc/stm32f3xx_ll_gpio.h ****   *         @arg @ref LL_GPIO_PIN_6
 516:Drivers/STM32F3xx_HAL_Driver/Inc/stm32f3xx_ll_gpio.h ****   *         @arg @ref LL_GPIO_PIN_7
 517:Drivers/STM32F3xx_HAL_Driver/Inc/stm32f3xx_ll_gpio.h ****   *         @arg @ref LL_GPIO_PIN_8
 518:Drivers/STM32F3xx_HAL_Driver/Inc/stm32f3xx_ll_gpio.h ****   *         @arg @ref LL_GPIO_PIN_9
 519:Drivers/STM32F3xx_HAL_Driver/Inc/stm32f3xx_ll_gpio.h ****   *         @arg @ref LL_GPIO_PIN_10
 520:Drivers/STM32F3xx_HAL_Driver/Inc/stm32f3xx_ll_gpio.h ****   *         @arg @ref LL_GPIO_PIN_11
 521:Drivers/STM32F3xx_HAL_Driver/Inc/stm32f3xx_ll_gpio.h ****   *         @arg @ref LL_GPIO_PIN_12
 522:Drivers/STM32F3xx_HAL_Driver/Inc/stm32f3xx_ll_gpio.h ****   *         @arg @ref LL_GPIO_PIN_13
 523:Drivers/STM32F3xx_HAL_Driver/Inc/stm32f3xx_ll_gpio.h ****   *         @arg @ref LL_GPIO_PIN_14
 524:Drivers/STM32F3xx_HAL_Driver/Inc/stm32f3xx_ll_gpio.h ****   *         @arg @ref LL_GPIO_PIN_15
 525:Drivers/STM32F3xx_HAL_Driver/Inc/stm32f3xx_ll_gpio.h ****   * @retval Returned value can be one of the following values:
 526:Drivers/STM32F3xx_HAL_Driver/Inc/stm32f3xx_ll_gpio.h ****   *         @arg @ref LL_GPIO_PULL_NO
 527:Drivers/STM32F3xx_HAL_Driver/Inc/stm32f3xx_ll_gpio.h ****   *         @arg @ref LL_GPIO_PULL_UP
 528:Drivers/STM32F3xx_HAL_Driver/Inc/stm32f3xx_ll_gpio.h ****   *         @arg @ref LL_GPIO_PULL_DOWN
 529:Drivers/STM32F3xx_HAL_Driver/Inc/stm32f3xx_ll_gpio.h ****   */
 530:Drivers/STM32F3xx_HAL_Driver/Inc/stm32f3xx_ll_gpio.h **** __STATIC_INLINE uint32_t LL_GPIO_GetPinPull(GPIO_TypeDef *GPIOx, uint32_t Pin)
 531:Drivers/STM32F3xx_HAL_Driver/Inc/stm32f3xx_ll_gpio.h **** {
 532:Drivers/STM32F3xx_HAL_Driver/Inc/stm32f3xx_ll_gpio.h ****   return (uint32_t)(READ_BIT(GPIOx->PUPDR,
ARM GAS  /tmp/ccoHk3kV.s 			page 41


 533:Drivers/STM32F3xx_HAL_Driver/Inc/stm32f3xx_ll_gpio.h ****                              (GPIO_PUPDR_PUPDR0 << (POSITION_VAL(Pin) * 2U))) >> (POSITION_VAL(Pin)
 534:Drivers/STM32F3xx_HAL_Driver/Inc/stm32f3xx_ll_gpio.h **** }
 535:Drivers/STM32F3xx_HAL_Driver/Inc/stm32f3xx_ll_gpio.h **** 
 536:Drivers/STM32F3xx_HAL_Driver/Inc/stm32f3xx_ll_gpio.h **** /**
 537:Drivers/STM32F3xx_HAL_Driver/Inc/stm32f3xx_ll_gpio.h ****   * @brief  Configure gpio alternate function of a dedicated pin from 0 to 7 for a dedicated port.
 538:Drivers/STM32F3xx_HAL_Driver/Inc/stm32f3xx_ll_gpio.h ****   * @note   Possible values are from AF0 to AF15 depending on target.
 539:Drivers/STM32F3xx_HAL_Driver/Inc/stm32f3xx_ll_gpio.h ****   * @note   Warning: only one pin can be passed as parameter.
 540:Drivers/STM32F3xx_HAL_Driver/Inc/stm32f3xx_ll_gpio.h ****   * @rmtoll AFRL         AFSELy        LL_GPIO_SetAFPin_0_7
 541:Drivers/STM32F3xx_HAL_Driver/Inc/stm32f3xx_ll_gpio.h ****   * @param  GPIOx GPIO Port
 542:Drivers/STM32F3xx_HAL_Driver/Inc/stm32f3xx_ll_gpio.h ****   * @param  Pin This parameter can be one of the following values:
 543:Drivers/STM32F3xx_HAL_Driver/Inc/stm32f3xx_ll_gpio.h ****   *         @arg @ref LL_GPIO_PIN_0
 544:Drivers/STM32F3xx_HAL_Driver/Inc/stm32f3xx_ll_gpio.h ****   *         @arg @ref LL_GPIO_PIN_1
 545:Drivers/STM32F3xx_HAL_Driver/Inc/stm32f3xx_ll_gpio.h ****   *         @arg @ref LL_GPIO_PIN_2
 546:Drivers/STM32F3xx_HAL_Driver/Inc/stm32f3xx_ll_gpio.h ****   *         @arg @ref LL_GPIO_PIN_3
 547:Drivers/STM32F3xx_HAL_Driver/Inc/stm32f3xx_ll_gpio.h ****   *         @arg @ref LL_GPIO_PIN_4
 548:Drivers/STM32F3xx_HAL_Driver/Inc/stm32f3xx_ll_gpio.h ****   *         @arg @ref LL_GPIO_PIN_5
 549:Drivers/STM32F3xx_HAL_Driver/Inc/stm32f3xx_ll_gpio.h ****   *         @arg @ref LL_GPIO_PIN_6
 550:Drivers/STM32F3xx_HAL_Driver/Inc/stm32f3xx_ll_gpio.h ****   *         @arg @ref LL_GPIO_PIN_7
 551:Drivers/STM32F3xx_HAL_Driver/Inc/stm32f3xx_ll_gpio.h ****   * @param  Alternate This parameter can be one of the following values:
 552:Drivers/STM32F3xx_HAL_Driver/Inc/stm32f3xx_ll_gpio.h ****   *         @arg @ref LL_GPIO_AF_0
 553:Drivers/STM32F3xx_HAL_Driver/Inc/stm32f3xx_ll_gpio.h ****   *         @arg @ref LL_GPIO_AF_1
 554:Drivers/STM32F3xx_HAL_Driver/Inc/stm32f3xx_ll_gpio.h ****   *         @arg @ref LL_GPIO_AF_2
 555:Drivers/STM32F3xx_HAL_Driver/Inc/stm32f3xx_ll_gpio.h ****   *         @arg @ref LL_GPIO_AF_3
 556:Drivers/STM32F3xx_HAL_Driver/Inc/stm32f3xx_ll_gpio.h ****   *         @arg @ref LL_GPIO_AF_4
 557:Drivers/STM32F3xx_HAL_Driver/Inc/stm32f3xx_ll_gpio.h ****   *         @arg @ref LL_GPIO_AF_5
 558:Drivers/STM32F3xx_HAL_Driver/Inc/stm32f3xx_ll_gpio.h ****   *         @arg @ref LL_GPIO_AF_6
 559:Drivers/STM32F3xx_HAL_Driver/Inc/stm32f3xx_ll_gpio.h ****   *         @arg @ref LL_GPIO_AF_7
 560:Drivers/STM32F3xx_HAL_Driver/Inc/stm32f3xx_ll_gpio.h ****   *         @arg @ref LL_GPIO_AF_8
 561:Drivers/STM32F3xx_HAL_Driver/Inc/stm32f3xx_ll_gpio.h ****   *         @arg @ref LL_GPIO_AF_9
 562:Drivers/STM32F3xx_HAL_Driver/Inc/stm32f3xx_ll_gpio.h ****   *         @arg @ref LL_GPIO_AF_10
 563:Drivers/STM32F3xx_HAL_Driver/Inc/stm32f3xx_ll_gpio.h ****   *         @arg @ref LL_GPIO_AF_11
 564:Drivers/STM32F3xx_HAL_Driver/Inc/stm32f3xx_ll_gpio.h ****   *         @arg @ref LL_GPIO_AF_12
 565:Drivers/STM32F3xx_HAL_Driver/Inc/stm32f3xx_ll_gpio.h ****   *         @arg @ref LL_GPIO_AF_13
 566:Drivers/STM32F3xx_HAL_Driver/Inc/stm32f3xx_ll_gpio.h ****   *         @arg @ref LL_GPIO_AF_14
 567:Drivers/STM32F3xx_HAL_Driver/Inc/stm32f3xx_ll_gpio.h ****   *         @arg @ref LL_GPIO_AF_15
 568:Drivers/STM32F3xx_HAL_Driver/Inc/stm32f3xx_ll_gpio.h ****   * @retval None
 569:Drivers/STM32F3xx_HAL_Driver/Inc/stm32f3xx_ll_gpio.h ****   */
 570:Drivers/STM32F3xx_HAL_Driver/Inc/stm32f3xx_ll_gpio.h **** __STATIC_INLINE void LL_GPIO_SetAFPin_0_7(GPIO_TypeDef *GPIOx, uint32_t Pin, uint32_t Alternate)
 571:Drivers/STM32F3xx_HAL_Driver/Inc/stm32f3xx_ll_gpio.h **** {
 572:Drivers/STM32F3xx_HAL_Driver/Inc/stm32f3xx_ll_gpio.h ****   MODIFY_REG(GPIOx->AFR[0], (GPIO_AFRL_AFRL0 << (POSITION_VAL(Pin) * 4U)),
 465              		.loc 4 572 0
 466 00ba 046A     		ldr	r4, [r0, #32]
 467              	.LVL50:
 468              	.LBB134:
 469              	.LBB135:
 470              		.loc 3 531 0
 471              		.syntax unified
 472              	@ 531 "Drivers/CMSIS/Include/cmsis_gcc.h" 1
 473 00bc 93FAA3F6 		rbit r6, r3
 474              	@ 0 "" 2
 475              	.LVL51:
 476              		.thumb
 477              		.syntax unified
 478              	.LBE135:
 479              	.LBE134:
 480              		.loc 4 572 0
 481 00c0 B6FA86F6 		clz	r6, r6
ARM GAS  /tmp/ccoHk3kV.s 			page 42


 482 00c4 B600     		lsls	r6, r6, #2
 483 00c6 0F27     		movs	r7, #15
 484 00c8 07FA06F6 		lsl	r6, r7, r6
 485 00cc 24EA0604 		bic	r4, r4, r6
 486              	.LVL52:
 487              	.LBB136:
 488              	.LBB137:
 489              		.loc 3 531 0
 490              		.syntax unified
 491              	@ 531 "Drivers/CMSIS/Include/cmsis_gcc.h" 1
 492 00d0 93FAA3F3 		rbit r3, r3
 493              	@ 0 "" 2
 494              	.LVL53:
 495              		.thumb
 496              		.syntax unified
 497              	.LBE137:
 498              	.LBE136:
 499              		.loc 4 572 0
 500 00d4 B3FA83F3 		clz	r3, r3
 501 00d8 9B00     		lsls	r3, r3, #2
 502 00da 05FA03F3 		lsl	r3, r5, r3
 503 00de 2343     		orrs	r3, r3, r4
 504 00e0 0362     		str	r3, [r0, #32]
 505 00e2 ACE7     		b	.L19
 506              	.LVL54:
 507              	.L21:
 508              	.LBE133:
 509              	.LBE132:
 244:Drivers/STM32F3xx_HAL_Driver/Src/stm32f3xx_ll_gpio.c ****         }
 510              		.loc 1 244 0
 511 00e4 4C69     		ldr	r4, [r1, #20]
 512              	.LVL55:
 513              	.LBB138:
 514              	.LBB139:
 573:Drivers/STM32F3xx_HAL_Driver/Inc/stm32f3xx_ll_gpio.h ****              (Alternate << (POSITION_VAL(Pin) * 4U)));
 574:Drivers/STM32F3xx_HAL_Driver/Inc/stm32f3xx_ll_gpio.h **** }
 575:Drivers/STM32F3xx_HAL_Driver/Inc/stm32f3xx_ll_gpio.h **** 
 576:Drivers/STM32F3xx_HAL_Driver/Inc/stm32f3xx_ll_gpio.h **** /**
 577:Drivers/STM32F3xx_HAL_Driver/Inc/stm32f3xx_ll_gpio.h ****   * @brief  Return gpio alternate function of a dedicated pin from 0 to 7 for a dedicated port.
 578:Drivers/STM32F3xx_HAL_Driver/Inc/stm32f3xx_ll_gpio.h ****   * @rmtoll AFRL         AFSELy        LL_GPIO_GetAFPin_0_7
 579:Drivers/STM32F3xx_HAL_Driver/Inc/stm32f3xx_ll_gpio.h ****   * @param  GPIOx GPIO Port
 580:Drivers/STM32F3xx_HAL_Driver/Inc/stm32f3xx_ll_gpio.h ****   * @param  Pin This parameter can be one of the following values:
 581:Drivers/STM32F3xx_HAL_Driver/Inc/stm32f3xx_ll_gpio.h ****   *         @arg @ref LL_GPIO_PIN_0
 582:Drivers/STM32F3xx_HAL_Driver/Inc/stm32f3xx_ll_gpio.h ****   *         @arg @ref LL_GPIO_PIN_1
 583:Drivers/STM32F3xx_HAL_Driver/Inc/stm32f3xx_ll_gpio.h ****   *         @arg @ref LL_GPIO_PIN_2
 584:Drivers/STM32F3xx_HAL_Driver/Inc/stm32f3xx_ll_gpio.h ****   *         @arg @ref LL_GPIO_PIN_3
 585:Drivers/STM32F3xx_HAL_Driver/Inc/stm32f3xx_ll_gpio.h ****   *         @arg @ref LL_GPIO_PIN_4
 586:Drivers/STM32F3xx_HAL_Driver/Inc/stm32f3xx_ll_gpio.h ****   *         @arg @ref LL_GPIO_PIN_5
 587:Drivers/STM32F3xx_HAL_Driver/Inc/stm32f3xx_ll_gpio.h ****   *         @arg @ref LL_GPIO_PIN_6
 588:Drivers/STM32F3xx_HAL_Driver/Inc/stm32f3xx_ll_gpio.h ****   *         @arg @ref LL_GPIO_PIN_7
 589:Drivers/STM32F3xx_HAL_Driver/Inc/stm32f3xx_ll_gpio.h ****   * @retval Returned value can be one of the following values:
 590:Drivers/STM32F3xx_HAL_Driver/Inc/stm32f3xx_ll_gpio.h ****   *         @arg @ref LL_GPIO_AF_0
 591:Drivers/STM32F3xx_HAL_Driver/Inc/stm32f3xx_ll_gpio.h ****   *         @arg @ref LL_GPIO_AF_1
 592:Drivers/STM32F3xx_HAL_Driver/Inc/stm32f3xx_ll_gpio.h ****   *         @arg @ref LL_GPIO_AF_2
 593:Drivers/STM32F3xx_HAL_Driver/Inc/stm32f3xx_ll_gpio.h ****   *         @arg @ref LL_GPIO_AF_3
 594:Drivers/STM32F3xx_HAL_Driver/Inc/stm32f3xx_ll_gpio.h ****   *         @arg @ref LL_GPIO_AF_4
 595:Drivers/STM32F3xx_HAL_Driver/Inc/stm32f3xx_ll_gpio.h ****   *         @arg @ref LL_GPIO_AF_5
ARM GAS  /tmp/ccoHk3kV.s 			page 43


 596:Drivers/STM32F3xx_HAL_Driver/Inc/stm32f3xx_ll_gpio.h ****   *         @arg @ref LL_GPIO_AF_6
 597:Drivers/STM32F3xx_HAL_Driver/Inc/stm32f3xx_ll_gpio.h ****   *         @arg @ref LL_GPIO_AF_7
 598:Drivers/STM32F3xx_HAL_Driver/Inc/stm32f3xx_ll_gpio.h ****   *         @arg @ref LL_GPIO_AF_8
 599:Drivers/STM32F3xx_HAL_Driver/Inc/stm32f3xx_ll_gpio.h ****   *         @arg @ref LL_GPIO_AF_9
 600:Drivers/STM32F3xx_HAL_Driver/Inc/stm32f3xx_ll_gpio.h ****   *         @arg @ref LL_GPIO_AF_10
 601:Drivers/STM32F3xx_HAL_Driver/Inc/stm32f3xx_ll_gpio.h ****   *         @arg @ref LL_GPIO_AF_11
 602:Drivers/STM32F3xx_HAL_Driver/Inc/stm32f3xx_ll_gpio.h ****   *         @arg @ref LL_GPIO_AF_12
 603:Drivers/STM32F3xx_HAL_Driver/Inc/stm32f3xx_ll_gpio.h ****   *         @arg @ref LL_GPIO_AF_13
 604:Drivers/STM32F3xx_HAL_Driver/Inc/stm32f3xx_ll_gpio.h ****   *         @arg @ref LL_GPIO_AF_14
 605:Drivers/STM32F3xx_HAL_Driver/Inc/stm32f3xx_ll_gpio.h ****   *         @arg @ref LL_GPIO_AF_15
 606:Drivers/STM32F3xx_HAL_Driver/Inc/stm32f3xx_ll_gpio.h ****   */
 607:Drivers/STM32F3xx_HAL_Driver/Inc/stm32f3xx_ll_gpio.h **** __STATIC_INLINE uint32_t LL_GPIO_GetAFPin_0_7(GPIO_TypeDef *GPIOx, uint32_t Pin)
 608:Drivers/STM32F3xx_HAL_Driver/Inc/stm32f3xx_ll_gpio.h **** {
 609:Drivers/STM32F3xx_HAL_Driver/Inc/stm32f3xx_ll_gpio.h ****   return (uint32_t)(READ_BIT(GPIOx->AFR[0],
 610:Drivers/STM32F3xx_HAL_Driver/Inc/stm32f3xx_ll_gpio.h ****                              (GPIO_AFRL_AFRL0 << (POSITION_VAL(Pin) * 4U))) >> (POSITION_VAL(Pin) *
 611:Drivers/STM32F3xx_HAL_Driver/Inc/stm32f3xx_ll_gpio.h **** }
 612:Drivers/STM32F3xx_HAL_Driver/Inc/stm32f3xx_ll_gpio.h **** 
 613:Drivers/STM32F3xx_HAL_Driver/Inc/stm32f3xx_ll_gpio.h **** /**
 614:Drivers/STM32F3xx_HAL_Driver/Inc/stm32f3xx_ll_gpio.h ****   * @brief  Configure gpio alternate function of a dedicated pin from 8 to 15 for a dedicated port.
 615:Drivers/STM32F3xx_HAL_Driver/Inc/stm32f3xx_ll_gpio.h ****   * @note   Possible values are from AF0 to AF15 depending on target.
 616:Drivers/STM32F3xx_HAL_Driver/Inc/stm32f3xx_ll_gpio.h ****   * @note   Warning: only one pin can be passed as parameter.
 617:Drivers/STM32F3xx_HAL_Driver/Inc/stm32f3xx_ll_gpio.h ****   * @rmtoll AFRH         AFSELy        LL_GPIO_SetAFPin_8_15
 618:Drivers/STM32F3xx_HAL_Driver/Inc/stm32f3xx_ll_gpio.h ****   * @param  GPIOx GPIO Port
 619:Drivers/STM32F3xx_HAL_Driver/Inc/stm32f3xx_ll_gpio.h ****   * @param  Pin This parameter can be one of the following values:
 620:Drivers/STM32F3xx_HAL_Driver/Inc/stm32f3xx_ll_gpio.h ****   *         @arg @ref LL_GPIO_PIN_8
 621:Drivers/STM32F3xx_HAL_Driver/Inc/stm32f3xx_ll_gpio.h ****   *         @arg @ref LL_GPIO_PIN_9
 622:Drivers/STM32F3xx_HAL_Driver/Inc/stm32f3xx_ll_gpio.h ****   *         @arg @ref LL_GPIO_PIN_10
 623:Drivers/STM32F3xx_HAL_Driver/Inc/stm32f3xx_ll_gpio.h ****   *         @arg @ref LL_GPIO_PIN_11
 624:Drivers/STM32F3xx_HAL_Driver/Inc/stm32f3xx_ll_gpio.h ****   *         @arg @ref LL_GPIO_PIN_12
 625:Drivers/STM32F3xx_HAL_Driver/Inc/stm32f3xx_ll_gpio.h ****   *         @arg @ref LL_GPIO_PIN_13
 626:Drivers/STM32F3xx_HAL_Driver/Inc/stm32f3xx_ll_gpio.h ****   *         @arg @ref LL_GPIO_PIN_14
 627:Drivers/STM32F3xx_HAL_Driver/Inc/stm32f3xx_ll_gpio.h ****   *         @arg @ref LL_GPIO_PIN_15
 628:Drivers/STM32F3xx_HAL_Driver/Inc/stm32f3xx_ll_gpio.h ****   * @param  Alternate This parameter can be one of the following values:
 629:Drivers/STM32F3xx_HAL_Driver/Inc/stm32f3xx_ll_gpio.h ****   *         @arg @ref LL_GPIO_AF_0
 630:Drivers/STM32F3xx_HAL_Driver/Inc/stm32f3xx_ll_gpio.h ****   *         @arg @ref LL_GPIO_AF_1
 631:Drivers/STM32F3xx_HAL_Driver/Inc/stm32f3xx_ll_gpio.h ****   *         @arg @ref LL_GPIO_AF_2
 632:Drivers/STM32F3xx_HAL_Driver/Inc/stm32f3xx_ll_gpio.h ****   *         @arg @ref LL_GPIO_AF_3
 633:Drivers/STM32F3xx_HAL_Driver/Inc/stm32f3xx_ll_gpio.h ****   *         @arg @ref LL_GPIO_AF_4
 634:Drivers/STM32F3xx_HAL_Driver/Inc/stm32f3xx_ll_gpio.h ****   *         @arg @ref LL_GPIO_AF_5
 635:Drivers/STM32F3xx_HAL_Driver/Inc/stm32f3xx_ll_gpio.h ****   *         @arg @ref LL_GPIO_AF_6
 636:Drivers/STM32F3xx_HAL_Driver/Inc/stm32f3xx_ll_gpio.h ****   *         @arg @ref LL_GPIO_AF_7
 637:Drivers/STM32F3xx_HAL_Driver/Inc/stm32f3xx_ll_gpio.h ****   *         @arg @ref LL_GPIO_AF_8
 638:Drivers/STM32F3xx_HAL_Driver/Inc/stm32f3xx_ll_gpio.h ****   *         @arg @ref LL_GPIO_AF_9
 639:Drivers/STM32F3xx_HAL_Driver/Inc/stm32f3xx_ll_gpio.h ****   *         @arg @ref LL_GPIO_AF_10
 640:Drivers/STM32F3xx_HAL_Driver/Inc/stm32f3xx_ll_gpio.h ****   *         @arg @ref LL_GPIO_AF_11
 641:Drivers/STM32F3xx_HAL_Driver/Inc/stm32f3xx_ll_gpio.h ****   *         @arg @ref LL_GPIO_AF_12
 642:Drivers/STM32F3xx_HAL_Driver/Inc/stm32f3xx_ll_gpio.h ****   *         @arg @ref LL_GPIO_AF_13
 643:Drivers/STM32F3xx_HAL_Driver/Inc/stm32f3xx_ll_gpio.h ****   *         @arg @ref LL_GPIO_AF_14
 644:Drivers/STM32F3xx_HAL_Driver/Inc/stm32f3xx_ll_gpio.h ****   *         @arg @ref LL_GPIO_AF_15
 645:Drivers/STM32F3xx_HAL_Driver/Inc/stm32f3xx_ll_gpio.h ****   * @retval None
 646:Drivers/STM32F3xx_HAL_Driver/Inc/stm32f3xx_ll_gpio.h ****   */
 647:Drivers/STM32F3xx_HAL_Driver/Inc/stm32f3xx_ll_gpio.h **** __STATIC_INLINE void LL_GPIO_SetAFPin_8_15(GPIO_TypeDef *GPIOx, uint32_t Pin, uint32_t Alternate)
 648:Drivers/STM32F3xx_HAL_Driver/Inc/stm32f3xx_ll_gpio.h **** {
 649:Drivers/STM32F3xx_HAL_Driver/Inc/stm32f3xx_ll_gpio.h ****   MODIFY_REG(GPIOx->AFR[1], (GPIO_AFRH_AFRH0 << (POSITION_VAL(Pin >> 8U) * 4U)),
 515              		.loc 4 649 0
 516 00e6 456A     		ldr	r5, [r0, #36]
 517 00e8 1B0A     		lsrs	r3, r3, #8
ARM GAS  /tmp/ccoHk3kV.s 			page 44


 518              	.LVL56:
 519              	.LBB140:
 520              	.LBB141:
 521              		.loc 3 531 0
 522              		.syntax unified
 523              	@ 531 "Drivers/CMSIS/Include/cmsis_gcc.h" 1
 524 00ea 93FAA3F6 		rbit r6, r3
 525              	@ 0 "" 2
 526              	.LVL57:
 527              		.thumb
 528              		.syntax unified
 529              	.LBE141:
 530              	.LBE140:
 531              		.loc 4 649 0
 532 00ee B6FA86F6 		clz	r6, r6
 533 00f2 B600     		lsls	r6, r6, #2
 534 00f4 0F27     		movs	r7, #15
 535 00f6 07FA06F6 		lsl	r6, r7, r6
 536 00fa 25EA0605 		bic	r5, r5, r6
 537              	.LVL58:
 538              	.LBB142:
 539              	.LBB143:
 540              		.loc 3 531 0
 541              		.syntax unified
 542              	@ 531 "Drivers/CMSIS/Include/cmsis_gcc.h" 1
 543 00fe 93FAA3F3 		rbit r3, r3
 544              	@ 0 "" 2
 545              	.LVL59:
 546              		.thumb
 547              		.syntax unified
 548              	.LBE143:
 549              	.LBE142:
 550              		.loc 4 649 0
 551 0102 B3FA83F3 		clz	r3, r3
 552 0106 9B00     		lsls	r3, r3, #2
 553 0108 04FA03F3 		lsl	r3, r4, r3
 554 010c 2B43     		orrs	r3, r3, r5
 555 010e 4362     		str	r3, [r0, #36]
 556 0110 95E7     		b	.L19
 557              	.LVL60:
 558              	.L26:
 559              	.LBE139:
 560              	.LBE138:
 249:Drivers/STM32F3xx_HAL_Driver/Src/stm32f3xx_ll_gpio.c ****   }
 250:Drivers/STM32F3xx_HAL_Driver/Src/stm32f3xx_ll_gpio.c **** 
 251:Drivers/STM32F3xx_HAL_Driver/Src/stm32f3xx_ll_gpio.c ****   if ((GPIO_InitStruct->Mode == LL_GPIO_MODE_OUTPUT) || (GPIO_InitStruct->Mode == LL_GPIO_MODE_ALTE
 561              		.loc 1 251 0
 562 0112 4A68     		ldr	r2, [r1, #4]
 563              	.LVL61:
 564 0114 013A     		subs	r2, r2, #1
 565 0116 012A     		cmp	r2, #1
 566 0118 02D9     		bls	.L27
 567              	.LVL62:
 568              	.L23:
 252:Drivers/STM32F3xx_HAL_Driver/Src/stm32f3xx_ll_gpio.c ****   {
 253:Drivers/STM32F3xx_HAL_Driver/Src/stm32f3xx_ll_gpio.c ****     /* Check Output mode parameters */
 254:Drivers/STM32F3xx_HAL_Driver/Src/stm32f3xx_ll_gpio.c ****     assert_param(IS_LL_GPIO_OUTPUT_TYPE(GPIO_InitStruct->OutputType));
ARM GAS  /tmp/ccoHk3kV.s 			page 45


 255:Drivers/STM32F3xx_HAL_Driver/Src/stm32f3xx_ll_gpio.c **** 
 256:Drivers/STM32F3xx_HAL_Driver/Src/stm32f3xx_ll_gpio.c ****     /* Output mode configuration*/
 257:Drivers/STM32F3xx_HAL_Driver/Src/stm32f3xx_ll_gpio.c ****     LL_GPIO_SetPinOutputType(GPIOx, GPIO_InitStruct->Pin, GPIO_InitStruct->OutputType);
 258:Drivers/STM32F3xx_HAL_Driver/Src/stm32f3xx_ll_gpio.c **** 
 259:Drivers/STM32F3xx_HAL_Driver/Src/stm32f3xx_ll_gpio.c ****   }
 260:Drivers/STM32F3xx_HAL_Driver/Src/stm32f3xx_ll_gpio.c ****   return (SUCCESS);
 261:Drivers/STM32F3xx_HAL_Driver/Src/stm32f3xx_ll_gpio.c **** }
 569              		.loc 1 261 0
 570 011a 0020     		movs	r0, #0
 571              	.LVL63:
 572 011c F0BC     		pop	{r4, r5, r6, r7}
 573              	.LCFI1:
 574              		.cfi_remember_state
 575              		.cfi_restore 7
 576              		.cfi_restore 6
 577              		.cfi_restore 5
 578              		.cfi_restore 4
 579              		.cfi_def_cfa_offset 0
 580 011e 7047     		bx	lr
 581              	.LVL64:
 582              	.L27:
 583              	.LCFI2:
 584              		.cfi_restore_state
 257:Drivers/STM32F3xx_HAL_Driver/Src/stm32f3xx_ll_gpio.c **** 
 585              		.loc 1 257 0
 586 0120 C968     		ldr	r1, [r1, #12]
 587              	.LVL65:
 588              	.LBB144:
 589              	.LBB145:
 360:Drivers/STM32F3xx_HAL_Driver/Inc/stm32f3xx_ll_gpio.h **** }
 590              		.loc 4 360 0
 591 0122 4268     		ldr	r2, [r0, #4]
 592 0124 22EA0302 		bic	r2, r2, r3
 593 0128 01FB03F3 		mul	r3, r1, r3
 594              	.LVL66:
 595 012c 1343     		orrs	r3, r3, r2
 596 012e 4360     		str	r3, [r0, #4]
 597              	.LVL67:
 598 0130 F3E7     		b	.L23
 599              	.LBE145:
 600              	.LBE144:
 601              		.cfi_endproc
 602              	.LFE165:
 604              		.section	.text.LL_GPIO_StructInit,"ax",%progbits
 605              		.align	1
 606              		.global	LL_GPIO_StructInit
 607              		.syntax unified
 608              		.thumb
 609              		.thumb_func
 610              		.fpu fpv4-sp-d16
 612              	LL_GPIO_StructInit:
 613              	.LFB166:
 262:Drivers/STM32F3xx_HAL_Driver/Src/stm32f3xx_ll_gpio.c **** 
 263:Drivers/STM32F3xx_HAL_Driver/Src/stm32f3xx_ll_gpio.c **** /**
 264:Drivers/STM32F3xx_HAL_Driver/Src/stm32f3xx_ll_gpio.c ****   * @brief Set each @ref LL_GPIO_InitTypeDef field to default value.
 265:Drivers/STM32F3xx_HAL_Driver/Src/stm32f3xx_ll_gpio.c ****   * @param GPIO_InitStruct pointer to a @ref LL_GPIO_InitTypeDef structure
 266:Drivers/STM32F3xx_HAL_Driver/Src/stm32f3xx_ll_gpio.c ****   *                          whose fields will be set to default values.
ARM GAS  /tmp/ccoHk3kV.s 			page 46


 267:Drivers/STM32F3xx_HAL_Driver/Src/stm32f3xx_ll_gpio.c ****   * @retval None
 268:Drivers/STM32F3xx_HAL_Driver/Src/stm32f3xx_ll_gpio.c ****   */
 269:Drivers/STM32F3xx_HAL_Driver/Src/stm32f3xx_ll_gpio.c **** 
 270:Drivers/STM32F3xx_HAL_Driver/Src/stm32f3xx_ll_gpio.c **** void LL_GPIO_StructInit(LL_GPIO_InitTypeDef *GPIO_InitStruct)
 271:Drivers/STM32F3xx_HAL_Driver/Src/stm32f3xx_ll_gpio.c **** {
 614              		.loc 1 271 0
 615              		.cfi_startproc
 616              		@ args = 0, pretend = 0, frame = 0
 617              		@ frame_needed = 0, uses_anonymous_args = 0
 618              		@ link register save eliminated.
 619              	.LVL68:
 272:Drivers/STM32F3xx_HAL_Driver/Src/stm32f3xx_ll_gpio.c ****   /* Reset GPIO init structure parameters values */
 273:Drivers/STM32F3xx_HAL_Driver/Src/stm32f3xx_ll_gpio.c ****   GPIO_InitStruct->Pin        = LL_GPIO_PIN_ALL;
 620              		.loc 1 273 0
 621 0000 4FF6FF73 		movw	r3, #65535
 622 0004 0360     		str	r3, [r0]
 274:Drivers/STM32F3xx_HAL_Driver/Src/stm32f3xx_ll_gpio.c ****   GPIO_InitStruct->Mode       = LL_GPIO_MODE_ANALOG;
 623              		.loc 1 274 0
 624 0006 0323     		movs	r3, #3
 625 0008 4360     		str	r3, [r0, #4]
 275:Drivers/STM32F3xx_HAL_Driver/Src/stm32f3xx_ll_gpio.c ****   GPIO_InitStruct->Speed      = LL_GPIO_SPEED_FREQ_LOW;
 626              		.loc 1 275 0
 627 000a 0023     		movs	r3, #0
 628 000c 8360     		str	r3, [r0, #8]
 276:Drivers/STM32F3xx_HAL_Driver/Src/stm32f3xx_ll_gpio.c ****   GPIO_InitStruct->OutputType = LL_GPIO_OUTPUT_PUSHPULL;
 629              		.loc 1 276 0
 630 000e C360     		str	r3, [r0, #12]
 277:Drivers/STM32F3xx_HAL_Driver/Src/stm32f3xx_ll_gpio.c ****   GPIO_InitStruct->Pull       = LL_GPIO_PULL_NO;
 631              		.loc 1 277 0
 632 0010 0361     		str	r3, [r0, #16]
 278:Drivers/STM32F3xx_HAL_Driver/Src/stm32f3xx_ll_gpio.c ****   GPIO_InitStruct->Alternate  = LL_GPIO_AF_0;
 633              		.loc 1 278 0
 634 0012 4361     		str	r3, [r0, #20]
 279:Drivers/STM32F3xx_HAL_Driver/Src/stm32f3xx_ll_gpio.c **** }
 635              		.loc 1 279 0
 636 0014 7047     		bx	lr
 637              		.cfi_endproc
 638              	.LFE166:
 640              		.text
 641              	.Letext0:
 642              		.file 5 "/usr/arm-none-eabi/include/machine/_default_types.h"
 643              		.file 6 "/usr/arm-none-eabi/include/sys/_stdint.h"
 644              		.file 7 "Drivers/CMSIS/Include/core_cm4.h"
 645              		.file 8 "Drivers/CMSIS/Device/ST/STM32F3xx/Include/system_stm32f3xx.h"
 646              		.file 9 "Drivers/CMSIS/Device/ST/STM32F3xx/Include/stm32f303xc.h"
 647              		.file 10 "Drivers/CMSIS/Device/ST/STM32F3xx/Include/stm32f3xx.h"
 648              		.file 11 "/usr/arm-none-eabi/include/sys/lock.h"
 649              		.file 12 "/usr/arm-none-eabi/include/sys/_types.h"
 650              		.file 13 "/usr/lib/gcc/arm-none-eabi/7.3.1/include/stddef.h"
 651              		.file 14 "/usr/arm-none-eabi/include/sys/reent.h"
 652              		.file 15 "Drivers/STM32F3xx_HAL_Driver/Inc/stm32f3xx_hal.h"
ARM GAS  /tmp/ccoHk3kV.s 			page 47

