ARM GAS  /tmp/ccheyYaN.s 			page 1


   1              		.cpu cortex-m4
   2              		.eabi_attribute 27, 1
   3              		.eabi_attribute 28, 1
   4              		.eabi_attribute 20, 1
   5              		.eabi_attribute 21, 1
   6              		.eabi_attribute 23, 3
   7              		.eabi_attribute 24, 1
   8              		.eabi_attribute 25, 1
   9              		.eabi_attribute 26, 1
  10              		.eabi_attribute 30, 1
  11              		.eabi_attribute 34, 1
  12              		.eabi_attribute 18, 4
  13              		.file	"stm32f3xx_hal_msp.c"
  14              		.text
  15              	.Ltext0:
  16              		.cfi_sections	.debug_frame
  17              		.section	.text.HAL_MspInit,"ax",%progbits
  18              		.align	1
  19              		.global	HAL_MspInit
  20              		.syntax unified
  21              		.thumb
  22              		.thumb_func
  23              		.fpu fpv4-sp-d16
  25              	HAL_MspInit:
  26              	.LFB752:
  27              		.file 1 "Src/stm32f3xx_hal_msp.c"
   1:Src/stm32f3xx_hal_msp.c **** /* USER CODE BEGIN Header */
   2:Src/stm32f3xx_hal_msp.c **** /**
   3:Src/stm32f3xx_hal_msp.c ****   ******************************************************************************
   4:Src/stm32f3xx_hal_msp.c ****   * File Name          : stm32f3xx_hal_msp.c
   5:Src/stm32f3xx_hal_msp.c ****   * Description        : This file provides code for the MSP Initialization 
   6:Src/stm32f3xx_hal_msp.c ****   *                      and de-Initialization codes.
   7:Src/stm32f3xx_hal_msp.c ****   ******************************************************************************
   8:Src/stm32f3xx_hal_msp.c ****   ** This notice applies to any and all portions of this file
   9:Src/stm32f3xx_hal_msp.c ****   * that are not between comment pairs USER CODE BEGIN and
  10:Src/stm32f3xx_hal_msp.c ****   * USER CODE END. Other portions of this file, whether 
  11:Src/stm32f3xx_hal_msp.c ****   * inserted by the user or by software development tools
  12:Src/stm32f3xx_hal_msp.c ****   * are owned by their respective copyright owners.
  13:Src/stm32f3xx_hal_msp.c ****   *
  14:Src/stm32f3xx_hal_msp.c ****   * COPYRIGHT(c) 2018 STMicroelectronics
  15:Src/stm32f3xx_hal_msp.c ****   *
  16:Src/stm32f3xx_hal_msp.c ****   * Redistribution and use in source and binary forms, with or without modification,
  17:Src/stm32f3xx_hal_msp.c ****   * are permitted provided that the following conditions are met:
  18:Src/stm32f3xx_hal_msp.c ****   *   1. Redistributions of source code must retain the above copyright notice,
  19:Src/stm32f3xx_hal_msp.c ****   *      this list of conditions and the following disclaimer.
  20:Src/stm32f3xx_hal_msp.c ****   *   2. Redistributions in binary form must reproduce the above copyright notice,
  21:Src/stm32f3xx_hal_msp.c ****   *      this list of conditions and the following disclaimer in the documentation
  22:Src/stm32f3xx_hal_msp.c ****   *      and/or other materials provided with the distribution.
  23:Src/stm32f3xx_hal_msp.c ****   *   3. Neither the name of STMicroelectronics nor the names of its contributors
  24:Src/stm32f3xx_hal_msp.c ****   *      may be used to endorse or promote products derived from this software
  25:Src/stm32f3xx_hal_msp.c ****   *      without specific prior written permission.
  26:Src/stm32f3xx_hal_msp.c ****   *
  27:Src/stm32f3xx_hal_msp.c ****   * THIS SOFTWARE IS PROVIDED BY THE COPYRIGHT HOLDERS AND CONTRIBUTORS "AS IS"
  28:Src/stm32f3xx_hal_msp.c ****   * AND ANY EXPRESS OR IMPLIED WARRANTIES, INCLUDING, BUT NOT LIMITED TO, THE
  29:Src/stm32f3xx_hal_msp.c ****   * IMPLIED WARRANTIES OF MERCHANTABILITY AND FITNESS FOR A PARTICULAR PURPOSE ARE
  30:Src/stm32f3xx_hal_msp.c ****   * DISCLAIMED. IN NO EVENT SHALL THE COPYRIGHT HOLDER OR CONTRIBUTORS BE LIABLE
  31:Src/stm32f3xx_hal_msp.c ****   * FOR ANY DIRECT, INDIRECT, INCIDENTAL, SPECIAL, EXEMPLARY, OR CONSEQUENTIAL
ARM GAS  /tmp/ccheyYaN.s 			page 2


  32:Src/stm32f3xx_hal_msp.c ****   * DAMAGES (INCLUDING, BUT NOT LIMITED TO, PROCUREMENT OF SUBSTITUTE GOODS OR
  33:Src/stm32f3xx_hal_msp.c ****   * SERVICES; LOSS OF USE, DATA, OR PROFITS; OR BUSINESS INTERRUPTION) HOWEVER
  34:Src/stm32f3xx_hal_msp.c ****   * CAUSED AND ON ANY THEORY OF LIABILITY, WHETHER IN CONTRACT, STRICT LIABILITY,
  35:Src/stm32f3xx_hal_msp.c ****   * OR TORT (INCLUDING NEGLIGENCE OR OTHERWISE) ARISING IN ANY WAY OUT OF THE USE
  36:Src/stm32f3xx_hal_msp.c ****   * OF THIS SOFTWARE, EVEN IF ADVISED OF THE POSSIBILITY OF SUCH DAMAGE.
  37:Src/stm32f3xx_hal_msp.c ****   *
  38:Src/stm32f3xx_hal_msp.c ****   ******************************************************************************
  39:Src/stm32f3xx_hal_msp.c ****   */
  40:Src/stm32f3xx_hal_msp.c **** /* USER CODE END Header */
  41:Src/stm32f3xx_hal_msp.c **** 
  42:Src/stm32f3xx_hal_msp.c **** /* Includes ------------------------------------------------------------------*/
  43:Src/stm32f3xx_hal_msp.c **** #include "main.h"
  44:Src/stm32f3xx_hal_msp.c **** /* USER CODE BEGIN Includes */
  45:Src/stm32f3xx_hal_msp.c **** 
  46:Src/stm32f3xx_hal_msp.c **** /* USER CODE END Includes */
  47:Src/stm32f3xx_hal_msp.c **** 
  48:Src/stm32f3xx_hal_msp.c **** /* Private typedef -----------------------------------------------------------*/
  49:Src/stm32f3xx_hal_msp.c **** /* USER CODE BEGIN TD */
  50:Src/stm32f3xx_hal_msp.c **** 
  51:Src/stm32f3xx_hal_msp.c **** /* USER CODE END TD */
  52:Src/stm32f3xx_hal_msp.c **** 
  53:Src/stm32f3xx_hal_msp.c **** /* Private define ------------------------------------------------------------*/
  54:Src/stm32f3xx_hal_msp.c **** /* USER CODE BEGIN Define */
  55:Src/stm32f3xx_hal_msp.c ****  
  56:Src/stm32f3xx_hal_msp.c **** /* USER CODE END Define */
  57:Src/stm32f3xx_hal_msp.c **** 
  58:Src/stm32f3xx_hal_msp.c **** /* Private macro -------------------------------------------------------------*/
  59:Src/stm32f3xx_hal_msp.c **** /* USER CODE BEGIN Macro */
  60:Src/stm32f3xx_hal_msp.c **** 
  61:Src/stm32f3xx_hal_msp.c **** /* USER CODE END Macro */
  62:Src/stm32f3xx_hal_msp.c **** 
  63:Src/stm32f3xx_hal_msp.c **** /* Private variables ---------------------------------------------------------*/
  64:Src/stm32f3xx_hal_msp.c **** /* USER CODE BEGIN PV */
  65:Src/stm32f3xx_hal_msp.c **** 
  66:Src/stm32f3xx_hal_msp.c **** /* USER CODE END PV */
  67:Src/stm32f3xx_hal_msp.c **** 
  68:Src/stm32f3xx_hal_msp.c **** /* Private function prototypes -----------------------------------------------*/
  69:Src/stm32f3xx_hal_msp.c **** /* USER CODE BEGIN PFP */
  70:Src/stm32f3xx_hal_msp.c **** 
  71:Src/stm32f3xx_hal_msp.c **** /* USER CODE END PFP */
  72:Src/stm32f3xx_hal_msp.c **** 
  73:Src/stm32f3xx_hal_msp.c **** /* External functions --------------------------------------------------------*/
  74:Src/stm32f3xx_hal_msp.c **** /* USER CODE BEGIN ExternalFunctions */
  75:Src/stm32f3xx_hal_msp.c **** 
  76:Src/stm32f3xx_hal_msp.c **** /* USER CODE END ExternalFunctions */
  77:Src/stm32f3xx_hal_msp.c **** 
  78:Src/stm32f3xx_hal_msp.c **** /* USER CODE BEGIN 0 */
  79:Src/stm32f3xx_hal_msp.c **** 
  80:Src/stm32f3xx_hal_msp.c **** /* USER CODE END 0 */
  81:Src/stm32f3xx_hal_msp.c **** /**
  82:Src/stm32f3xx_hal_msp.c ****   * Initializes the Global MSP.
  83:Src/stm32f3xx_hal_msp.c ****   */
  84:Src/stm32f3xx_hal_msp.c **** void HAL_MspInit(void)
  85:Src/stm32f3xx_hal_msp.c **** {
  28              		.loc 1 85 0
  29              		.cfi_startproc
  30              		@ args = 0, pretend = 0, frame = 8
ARM GAS  /tmp/ccheyYaN.s 			page 3


  31              		@ frame_needed = 0, uses_anonymous_args = 0
  32 0000 00B5     		push	{lr}
  33              	.LCFI0:
  34              		.cfi_def_cfa_offset 4
  35              		.cfi_offset 14, -4
  36 0002 83B0     		sub	sp, sp, #12
  37              	.LCFI1:
  38              		.cfi_def_cfa_offset 16
  39              	.LBB2:
  86:Src/stm32f3xx_hal_msp.c ****   /* USER CODE BEGIN MspInit 0 */
  87:Src/stm32f3xx_hal_msp.c **** 
  88:Src/stm32f3xx_hal_msp.c ****   /* USER CODE END MspInit 0 */
  89:Src/stm32f3xx_hal_msp.c **** 
  90:Src/stm32f3xx_hal_msp.c ****   __HAL_RCC_SYSCFG_CLK_ENABLE();
  40              		.loc 1 90 0
  41 0004 0C4B     		ldr	r3, .L3
  42 0006 9A69     		ldr	r2, [r3, #24]
  43 0008 42F00102 		orr	r2, r2, #1
  44 000c 9A61     		str	r2, [r3, #24]
  45 000e 9A69     		ldr	r2, [r3, #24]
  46 0010 02F00102 		and	r2, r2, #1
  47 0014 0092     		str	r2, [sp]
  48 0016 009A     		ldr	r2, [sp]
  49              	.LBE2:
  50              	.LBB3:
  91:Src/stm32f3xx_hal_msp.c ****   __HAL_RCC_PWR_CLK_ENABLE();
  51              		.loc 1 91 0
  52 0018 DA69     		ldr	r2, [r3, #28]
  53 001a 42F08052 		orr	r2, r2, #268435456
  54 001e DA61     		str	r2, [r3, #28]
  55 0020 DB69     		ldr	r3, [r3, #28]
  56 0022 03F08053 		and	r3, r3, #268435456
  57 0026 0193     		str	r3, [sp, #4]
  58 0028 019B     		ldr	r3, [sp, #4]
  59              	.LBE3:
  92:Src/stm32f3xx_hal_msp.c **** 
  93:Src/stm32f3xx_hal_msp.c ****   HAL_NVIC_SetPriorityGrouping(NVIC_PRIORITYGROUP_0);
  60              		.loc 1 93 0
  61 002a 0720     		movs	r0, #7
  62 002c FFF7FEFF 		bl	HAL_NVIC_SetPriorityGrouping
  63              	.LVL0:
  94:Src/stm32f3xx_hal_msp.c **** 
  95:Src/stm32f3xx_hal_msp.c ****   /* System interrupt init*/
  96:Src/stm32f3xx_hal_msp.c **** 
  97:Src/stm32f3xx_hal_msp.c ****   /* USER CODE BEGIN MspInit 1 */
  98:Src/stm32f3xx_hal_msp.c **** 
  99:Src/stm32f3xx_hal_msp.c ****   /* USER CODE END MspInit 1 */
 100:Src/stm32f3xx_hal_msp.c **** }
  64              		.loc 1 100 0
  65 0030 03B0     		add	sp, sp, #12
  66              	.LCFI2:
  67              		.cfi_def_cfa_offset 4
  68              		@ sp needed
  69 0032 5DF804FB 		ldr	pc, [sp], #4
  70              	.L4:
  71 0036 00BF     		.align	2
  72              	.L3:
ARM GAS  /tmp/ccheyYaN.s 			page 4


  73 0038 00100240 		.word	1073876992
  74              		.cfi_endproc
  75              	.LFE752:
  77              		.section	.text.HAL_PCD_MspInit,"ax",%progbits
  78              		.align	1
  79              		.global	HAL_PCD_MspInit
  80              		.syntax unified
  81              		.thumb
  82              		.thumb_func
  83              		.fpu fpv4-sp-d16
  85              	HAL_PCD_MspInit:
  86              	.LFB753:
 101:Src/stm32f3xx_hal_msp.c **** 
 102:Src/stm32f3xx_hal_msp.c **** /**
 103:Src/stm32f3xx_hal_msp.c **** * @brief PCD MSP Initialization
 104:Src/stm32f3xx_hal_msp.c **** * This function configures the hardware resources used in this example
 105:Src/stm32f3xx_hal_msp.c **** * @param hpcd: PCD handle pointer
 106:Src/stm32f3xx_hal_msp.c **** * @retval None
 107:Src/stm32f3xx_hal_msp.c **** */
 108:Src/stm32f3xx_hal_msp.c **** void HAL_PCD_MspInit(PCD_HandleTypeDef* hpcd)
 109:Src/stm32f3xx_hal_msp.c **** {
  87              		.loc 1 109 0
  88              		.cfi_startproc
  89              		@ args = 0, pretend = 0, frame = 32
  90              		@ frame_needed = 0, uses_anonymous_args = 0
  91              	.LVL1:
  92 0000 10B5     		push	{r4, lr}
  93              	.LCFI3:
  94              		.cfi_def_cfa_offset 8
  95              		.cfi_offset 4, -8
  96              		.cfi_offset 14, -4
  97 0002 88B0     		sub	sp, sp, #32
  98              	.LCFI4:
  99              		.cfi_def_cfa_offset 40
 110:Src/stm32f3xx_hal_msp.c **** 
 111:Src/stm32f3xx_hal_msp.c ****   GPIO_InitTypeDef GPIO_InitStruct = {0};
 100              		.loc 1 111 0
 101 0004 0023     		movs	r3, #0
 102 0006 0393     		str	r3, [sp, #12]
 103 0008 0493     		str	r3, [sp, #16]
 104 000a 0593     		str	r3, [sp, #20]
 105 000c 0693     		str	r3, [sp, #24]
 106 000e 0793     		str	r3, [sp, #28]
 112:Src/stm32f3xx_hal_msp.c ****   if(hpcd->Instance==USB)
 107              		.loc 1 112 0
 108 0010 0268     		ldr	r2, [r0]
 109 0012 134B     		ldr	r3, .L9
 110 0014 9A42     		cmp	r2, r3
 111 0016 01D0     		beq	.L8
 112              	.LVL2:
 113              	.L5:
 113:Src/stm32f3xx_hal_msp.c ****   {
 114:Src/stm32f3xx_hal_msp.c ****   /* USER CODE BEGIN USB_MspInit 0 */
 115:Src/stm32f3xx_hal_msp.c **** 
 116:Src/stm32f3xx_hal_msp.c ****   /* USER CODE END USB_MspInit 0 */
 117:Src/stm32f3xx_hal_msp.c ****   
 118:Src/stm32f3xx_hal_msp.c ****     __HAL_RCC_GPIOA_CLK_ENABLE();
ARM GAS  /tmp/ccheyYaN.s 			page 5


 119:Src/stm32f3xx_hal_msp.c ****     /**USB GPIO Configuration    
 120:Src/stm32f3xx_hal_msp.c ****     PA11     ------> USB_DM
 121:Src/stm32f3xx_hal_msp.c ****     PA12     ------> USB_DP 
 122:Src/stm32f3xx_hal_msp.c ****     */
 123:Src/stm32f3xx_hal_msp.c ****     GPIO_InitStruct.Pin = GPIO_PIN_11|GPIO_PIN_12;
 124:Src/stm32f3xx_hal_msp.c ****     GPIO_InitStruct.Mode = GPIO_MODE_AF_PP;
 125:Src/stm32f3xx_hal_msp.c ****     GPIO_InitStruct.Pull = GPIO_NOPULL;
 126:Src/stm32f3xx_hal_msp.c ****     GPIO_InitStruct.Speed = GPIO_SPEED_FREQ_HIGH;
 127:Src/stm32f3xx_hal_msp.c ****     GPIO_InitStruct.Alternate = GPIO_AF14_USB;
 128:Src/stm32f3xx_hal_msp.c ****     HAL_GPIO_Init(GPIOA, &GPIO_InitStruct);
 129:Src/stm32f3xx_hal_msp.c **** 
 130:Src/stm32f3xx_hal_msp.c ****     /* Peripheral clock enable */
 131:Src/stm32f3xx_hal_msp.c ****     __HAL_RCC_USB_CLK_ENABLE();
 132:Src/stm32f3xx_hal_msp.c ****   /* USER CODE BEGIN USB_MspInit 1 */
 133:Src/stm32f3xx_hal_msp.c **** 
 134:Src/stm32f3xx_hal_msp.c ****   /* USER CODE END USB_MspInit 1 */
 135:Src/stm32f3xx_hal_msp.c ****   }
 136:Src/stm32f3xx_hal_msp.c **** 
 137:Src/stm32f3xx_hal_msp.c **** }
 114              		.loc 1 137 0
 115 0018 08B0     		add	sp, sp, #32
 116              	.LCFI5:
 117              		.cfi_remember_state
 118              		.cfi_def_cfa_offset 8
 119              		@ sp needed
 120 001a 10BD     		pop	{r4, pc}
 121              	.LVL3:
 122              	.L8:
 123              	.LCFI6:
 124              		.cfi_restore_state
 125              	.LBB4:
 118:Src/stm32f3xx_hal_msp.c ****     /**USB GPIO Configuration    
 126              		.loc 1 118 0
 127 001c 114C     		ldr	r4, .L9+4
 128 001e 6369     		ldr	r3, [r4, #20]
 129 0020 43F40033 		orr	r3, r3, #131072
 130 0024 6361     		str	r3, [r4, #20]
 131 0026 6369     		ldr	r3, [r4, #20]
 132 0028 03F40033 		and	r3, r3, #131072
 133 002c 0193     		str	r3, [sp, #4]
 134 002e 019B     		ldr	r3, [sp, #4]
 135              	.LBE4:
 123:Src/stm32f3xx_hal_msp.c ****     GPIO_InitStruct.Mode = GPIO_MODE_AF_PP;
 136              		.loc 1 123 0
 137 0030 4FF4C053 		mov	r3, #6144
 138 0034 0393     		str	r3, [sp, #12]
 124:Src/stm32f3xx_hal_msp.c ****     GPIO_InitStruct.Pull = GPIO_NOPULL;
 139              		.loc 1 124 0
 140 0036 0223     		movs	r3, #2
 141 0038 0493     		str	r3, [sp, #16]
 126:Src/stm32f3xx_hal_msp.c ****     GPIO_InitStruct.Alternate = GPIO_AF14_USB;
 142              		.loc 1 126 0
 143 003a 0323     		movs	r3, #3
 144 003c 0693     		str	r3, [sp, #24]
 127:Src/stm32f3xx_hal_msp.c ****     HAL_GPIO_Init(GPIOA, &GPIO_InitStruct);
 145              		.loc 1 127 0
 146 003e 0E23     		movs	r3, #14
ARM GAS  /tmp/ccheyYaN.s 			page 6


 147 0040 0793     		str	r3, [sp, #28]
 128:Src/stm32f3xx_hal_msp.c **** 
 148              		.loc 1 128 0
 149 0042 03A9     		add	r1, sp, #12
 150 0044 4FF09040 		mov	r0, #1207959552
 151              	.LVL4:
 152 0048 FFF7FEFF 		bl	HAL_GPIO_Init
 153              	.LVL5:
 154              	.LBB5:
 131:Src/stm32f3xx_hal_msp.c ****   /* USER CODE BEGIN USB_MspInit 1 */
 155              		.loc 1 131 0
 156 004c E369     		ldr	r3, [r4, #28]
 157 004e 43F40003 		orr	r3, r3, #8388608
 158 0052 E361     		str	r3, [r4, #28]
 159 0054 E369     		ldr	r3, [r4, #28]
 160 0056 03F40003 		and	r3, r3, #8388608
 161 005a 0293     		str	r3, [sp, #8]
 162 005c 029B     		ldr	r3, [sp, #8]
 163              	.LBE5:
 164              		.loc 1 137 0
 165 005e DBE7     		b	.L5
 166              	.L10:
 167              		.align	2
 168              	.L9:
 169 0060 005C0040 		.word	1073765376
 170 0064 00100240 		.word	1073876992
 171              		.cfi_endproc
 172              	.LFE753:
 174              		.section	.text.HAL_PCD_MspDeInit,"ax",%progbits
 175              		.align	1
 176              		.global	HAL_PCD_MspDeInit
 177              		.syntax unified
 178              		.thumb
 179              		.thumb_func
 180              		.fpu fpv4-sp-d16
 182              	HAL_PCD_MspDeInit:
 183              	.LFB754:
 138:Src/stm32f3xx_hal_msp.c **** 
 139:Src/stm32f3xx_hal_msp.c **** /**
 140:Src/stm32f3xx_hal_msp.c **** * @brief PCD MSP De-Initialization
 141:Src/stm32f3xx_hal_msp.c **** * This function freeze the hardware resources used in this example
 142:Src/stm32f3xx_hal_msp.c **** * @param hpcd: PCD handle pointer
 143:Src/stm32f3xx_hal_msp.c **** * @retval None
 144:Src/stm32f3xx_hal_msp.c **** */
 145:Src/stm32f3xx_hal_msp.c **** 
 146:Src/stm32f3xx_hal_msp.c **** void HAL_PCD_MspDeInit(PCD_HandleTypeDef* hpcd)
 147:Src/stm32f3xx_hal_msp.c **** {
 184              		.loc 1 147 0
 185              		.cfi_startproc
 186              		@ args = 0, pretend = 0, frame = 0
 187              		@ frame_needed = 0, uses_anonymous_args = 0
 188              	.LVL6:
 189 0000 08B5     		push	{r3, lr}
 190              	.LCFI7:
 191              		.cfi_def_cfa_offset 8
 192              		.cfi_offset 3, -8
 193              		.cfi_offset 14, -4
ARM GAS  /tmp/ccheyYaN.s 			page 7


 148:Src/stm32f3xx_hal_msp.c **** 
 149:Src/stm32f3xx_hal_msp.c ****   if(hpcd->Instance==USB)
 194              		.loc 1 149 0
 195 0002 0268     		ldr	r2, [r0]
 196 0004 074B     		ldr	r3, .L15
 197 0006 9A42     		cmp	r2, r3
 198 0008 00D0     		beq	.L14
 199              	.LVL7:
 200              	.L11:
 150:Src/stm32f3xx_hal_msp.c ****   {
 151:Src/stm32f3xx_hal_msp.c ****   /* USER CODE BEGIN USB_MspDeInit 0 */
 152:Src/stm32f3xx_hal_msp.c **** 
 153:Src/stm32f3xx_hal_msp.c ****   /* USER CODE END USB_MspDeInit 0 */
 154:Src/stm32f3xx_hal_msp.c ****     /* Peripheral clock disable */
 155:Src/stm32f3xx_hal_msp.c ****     __HAL_RCC_USB_CLK_DISABLE();
 156:Src/stm32f3xx_hal_msp.c ****   
 157:Src/stm32f3xx_hal_msp.c ****     /**USB GPIO Configuration    
 158:Src/stm32f3xx_hal_msp.c ****     PA11     ------> USB_DM
 159:Src/stm32f3xx_hal_msp.c ****     PA12     ------> USB_DP 
 160:Src/stm32f3xx_hal_msp.c ****     */
 161:Src/stm32f3xx_hal_msp.c ****     HAL_GPIO_DeInit(GPIOA, GPIO_PIN_11|GPIO_PIN_12);
 162:Src/stm32f3xx_hal_msp.c **** 
 163:Src/stm32f3xx_hal_msp.c ****   /* USER CODE BEGIN USB_MspDeInit 1 */
 164:Src/stm32f3xx_hal_msp.c **** 
 165:Src/stm32f3xx_hal_msp.c ****   /* USER CODE END USB_MspDeInit 1 */
 166:Src/stm32f3xx_hal_msp.c ****   }
 167:Src/stm32f3xx_hal_msp.c **** 
 168:Src/stm32f3xx_hal_msp.c **** }
 201              		.loc 1 168 0
 202 000a 08BD     		pop	{r3, pc}
 203              	.LVL8:
 204              	.L14:
 155:Src/stm32f3xx_hal_msp.c ****   
 205              		.loc 1 155 0
 206 000c 064A     		ldr	r2, .L15+4
 207 000e D369     		ldr	r3, [r2, #28]
 208 0010 23F40003 		bic	r3, r3, #8388608
 209 0014 D361     		str	r3, [r2, #28]
 161:Src/stm32f3xx_hal_msp.c **** 
 210              		.loc 1 161 0
 211 0016 4FF4C051 		mov	r1, #6144
 212 001a 4FF09040 		mov	r0, #1207959552
 213              	.LVL9:
 214 001e FFF7FEFF 		bl	HAL_GPIO_DeInit
 215              	.LVL10:
 216              		.loc 1 168 0
 217 0022 F2E7     		b	.L11
 218              	.L16:
 219              		.align	2
 220              	.L15:
 221 0024 005C0040 		.word	1073765376
 222 0028 00100240 		.word	1073876992
 223              		.cfi_endproc
 224              	.LFE754:
 226              		.text
 227              	.Letext0:
 228              		.file 2 "/usr/arm-none-eabi/include/machine/_default_types.h"
ARM GAS  /tmp/ccheyYaN.s 			page 8


 229              		.file 3 "/usr/arm-none-eabi/include/sys/_stdint.h"
 230              		.file 4 "Drivers/CMSIS/Include/core_cm4.h"
 231              		.file 5 "Drivers/CMSIS/Device/ST/STM32F3xx/Include/system_stm32f3xx.h"
 232              		.file 6 "Drivers/CMSIS/Device/ST/STM32F3xx/Include/stm32f303xc.h"
 233              		.file 7 "/usr/arm-none-eabi/include/sys/lock.h"
 234              		.file 8 "/usr/arm-none-eabi/include/sys/_types.h"
 235              		.file 9 "/usr/lib/gcc/arm-none-eabi/7.3.1/include/stddef.h"
 236              		.file 10 "/usr/arm-none-eabi/include/sys/reent.h"
 237              		.file 11 "Drivers/STM32F3xx_HAL_Driver/Inc/stm32f3xx_hal_def.h"
 238              		.file 12 "Drivers/STM32F3xx_HAL_Driver/Inc/stm32f3xx_hal_gpio.h"
 239              		.file 13 "Drivers/STM32F3xx_HAL_Driver/Inc/stm32f3xx_hal_pcd.h"
 240              		.file 14 "Drivers/STM32F3xx_HAL_Driver/Inc/stm32f3xx_hal.h"
 241              		.file 15 "Drivers/STM32F3xx_HAL_Driver/Inc/stm32f3xx_ll_dma.h"
 242              		.file 16 "Drivers/STM32F3xx_HAL_Driver/Inc/stm32f3xx_hal_cortex.h"
ARM GAS  /tmp/ccheyYaN.s 			page 9

